Archive member included to satisfy reference by file (symbol)

S:/UltimateEnvironment/code-mod-example/param-replace/code-mod-framework/lib/libnx_min/nx/lib\libnx_min.a(switch_crt0.o)
                              (_start)
S:/UltimateEnvironment/code-mod-example/param-replace/code-mod-framework/lib/libnx_min/nx/lib\libnx_min.a(exception.o)
                              S:/UltimateEnvironment/code-mod-example/param-replace/code-mod-framework/lib/libnx_min/nx/lib\libnx_min.a(switch_crt0.o) (__libnx_exception_entry)
S:/UltimateEnvironment/code-mod-example/param-replace/code-mod-framework/lib/libnx_min/nx/lib\libnx_min.a(argv.o)
                              S:/UltimateEnvironment/code-mod-example/param-replace/code-mod-framework/lib/libnx_min/nx/lib\libnx_min.a(switch_crt0.o) (__system_argv)
S:/UltimateEnvironment/code-mod-example/param-replace/code-mod-framework/lib/libnx_min/nx/lib\libnx_min.a(env.o)
                              S:/UltimateEnvironment/code-mod-example/param-replace/code-mod-framework/lib/libnx_min/nx/lib\libnx_min.a(argv.o) (envIsNso)
S:/UltimateEnvironment/code-mod-example/param-replace/code-mod-framework/lib/libnx_min/nx/lib\libnx_min.a(init.o)
                              S:/UltimateEnvironment/code-mod-example/param-replace/code-mod-framework/lib/libnx_min/nx/lib\libnx_min.a(exception.o) (__nx_exceptiondump)
S:/UltimateEnvironment/code-mod-example/param-replace/code-mod-framework/lib/libnx_min/nx/lib\libnx_min.a(hosversion.o)
                              S:/UltimateEnvironment/code-mod-example/param-replace/code-mod-framework/lib/libnx_min/nx/lib\libnx_min.a(init.o) (hosversionSet)
S:/UltimateEnvironment/code-mod-example/param-replace/code-mod-framework/lib/libnx_min/nx/lib\libnx_min.a(dynamic.o)
                              S:/UltimateEnvironment/code-mod-example/param-replace/code-mod-framework/lib/libnx_min/nx/lib\libnx_min.a(switch_crt0.o) (__nx_dynamic)
S:/UltimateEnvironment/code-mod-example/param-replace/code-mod-framework/lib/libnx_min/nx/lib\libnx_min.a(fs_dev.o)
                              S:/UltimateEnvironment/code-mod-example/param-replace/code-mod-framework/lib/libnx_min/nx/lib\libnx_min.a(init.o) (fsdevMountSdmc)
S:/UltimateEnvironment/code-mod-example/param-replace/code-mod-framework/lib/libnx_min/nx/lib\libnx_min.a(decode_utf8.o)
                              S:/UltimateEnvironment/code-mod-example/param-replace/code-mod-framework/lib/libnx_min/nx/lib\libnx_min.a(fs_dev.o) (decode_utf8)
S:/UltimateEnvironment/code-mod-example/param-replace/code-mod-framework/lib/libnx_min/nx/lib\libnx_min.a(svc.o)
                              S:/UltimateEnvironment/code-mod-example/param-replace/code-mod-framework/lib/libnx_min/nx/lib\libnx_min.a(init.o) (svcSetHeapSize)
S:/UltimateEnvironment/code-mod-example/param-replace/code-mod-framework/lib/libnx_min/nx/lib\libnx_min.a(readtp.o)
                              S:/UltimateEnvironment/code-mod-example/param-replace/code-mod-framework/lib/libnx_min/nx/lib\libnx_min.a(fs_dev.o) (__aarch64_read_tp)
S:/UltimateEnvironment/code-mod-example/param-replace/code-mod-framework/lib/libnx_min/nx/lib\libnx_min.a(virtmem.o)
                              S:/UltimateEnvironment/code-mod-example/param-replace/code-mod-framework/lib/libnx_min/nx/lib\libnx_min.a(init.o) (virtmemSetup)
S:/UltimateEnvironment/code-mod-example/param-replace/code-mod-framework/lib/libnx_min/nx/lib\libnx_min.a(mutex.o)
                              S:/UltimateEnvironment/code-mod-example/param-replace/code-mod-framework/lib/libnx_min/nx/lib\libnx_min.a(virtmem.o) (mutexLock)
S:/UltimateEnvironment/code-mod-example/param-replace/code-mod-framework/lib/libnx_min/nx/lib\libnx_min.a(fs.o)
                              S:/UltimateEnvironment/code-mod-example/param-replace/code-mod-framework/lib/libnx_min/nx/lib\libnx_min.a(init.o) (fsInitialize)
S:/UltimateEnvironment/code-mod-example/param-replace/code-mod-framework/lib/libnx_min/nx/lib\libnx_min.a(set.o)
                              S:/UltimateEnvironment/code-mod-example/param-replace/code-mod-framework/lib/libnx_min/nx/lib\libnx_min.a(init.o) (setsysInitialize)
S:/UltimateEnvironment/code-mod-example/param-replace/code-mod-framework/lib/libnx_min/nx/lib\libnx_min.a(fatal.o)
                              S:/UltimateEnvironment/code-mod-example/param-replace/code-mod-framework/lib/libnx_min/nx/lib\libnx_min.a(env.o) (fatalSimple)
S:/UltimateEnvironment/code-mod-example/param-replace/code-mod-framework/lib/libnx_min/nx/lib\libnx_min.a(sm.o)
                              S:/UltimateEnvironment/code-mod-example/param-replace/code-mod-framework/lib/libnx_min/nx/lib\libnx_min.a(env.o) (smAddOverrideHandle)
S:/UltimateEnvironment/code-mod-example/param-replace/code-mod-framework/lib/libnx_min/nx/lib\libnx_min.a(hid.o)
                              S:/UltimateEnvironment/code-mod-example/param-replace/code-mod-framework/lib/libnx_min/nx/lib\libnx_min.a(init.o) (hidExit)
S:/UltimateEnvironment/code-mod-example/param-replace/code-mod-framework/lib/libnx_min/nx/lib\libnx_min.a(time.o)
                              S:/UltimateEnvironment/code-mod-example/param-replace/code-mod-framework/lib/libnx_min/nx/lib\libnx_min.a(init.o) (timeExit)
S:/UltimateEnvironment/code-mod-example/param-replace/code-mod-framework/lib/libnx_min/nx/lib\libnx_min.a(applet.o)
                              S:/UltimateEnvironment/code-mod-example/param-replace/code-mod-framework/lib/libnx_min/nx/lib\libnx_min.a(hid.o) (appletGetAppletResourceUserId)
S:/UltimateEnvironment/code-mod-example/param-replace/code-mod-framework/lib/libnx_min/nx/lib\libnx_min.a(newlib.o)
                              S:/UltimateEnvironment/code-mod-example/param-replace/code-mod-framework/lib/libnx_min/nx/lib\libnx_min.a(init.o) (__libnx_init_time)
S:/UltimateEnvironment/code-mod-example/param-replace/code-mod-framework/lib/libnx_min/nx/lib\libnx_min.a(thread.o)
                              S:/UltimateEnvironment/code-mod-example/param-replace/code-mod-framework/lib/libnx_min/nx/lib\libnx_min.a(newlib.o) (threadCreate)
S:/UltimateEnvironment/code-mod-example/param-replace/code-mod-framework/lib/libnx_min/nx/lib\libnx_min.a(condvar.o)
                              S:/UltimateEnvironment/code-mod-example/param-replace/code-mod-framework/lib/libnx_min/nx/lib\libnx_min.a(newlib.o) (condvarWaitTimeout)
S:/UltimateEnvironment/code-mod-example/param-replace/code-mod-framework/lib/libnx_min/nx/lib\libnx_min.a(event.o)
                              S:/UltimateEnvironment/code-mod-example/param-replace/code-mod-framework/lib/libnx_min/nx/lib\libnx_min.a(set.o) (eventLoadRemote)
S:/UltimateEnvironment/code-mod-example/param-replace/code-mod-framework/lib/libnx_min/nx/lib\libnx_min.a(tmem.o)
                              S:/UltimateEnvironment/code-mod-example/param-replace/code-mod-framework/lib/libnx_min/nx/lib\libnx_min.a(applet.o) (tmemCreate)
S:/UltimateEnvironment/code-mod-example/param-replace/code-mod-framework/lib/libnx_min/nx/lib\libnx_min.a(rwlock.o)
                              S:/UltimateEnvironment/code-mod-example/param-replace/code-mod-framework/lib/libnx_min/nx/lib\libnx_min.a(hid.o) (rwlockReadLock)
S:/UltimateEnvironment/code-mod-example/param-replace/code-mod-framework/lib/libnx_min/nx/lib\libnx_min.a(wait.o)
                              S:/UltimateEnvironment/code-mod-example/param-replace/code-mod-framework/lib/libnx_min/nx/lib\libnx_min.a(applet.o) (waitObjects)
S:/UltimateEnvironment/code-mod-example/param-replace/code-mod-framework/lib/libnx_min/nx/lib\libnx_min.a(shmem.o)
                              S:/UltimateEnvironment/code-mod-example/param-replace/code-mod-framework/lib/libnx_min/nx/lib\libnx_min.a(hid.o) (shmemLoadRemote)
S:/UltimateEnvironment/code-mod-example/param-replace/code-mod-framework/lib/libnx_min/nx/lib\libnx_min.a(detect.o)
                              S:/UltimateEnvironment/code-mod-example/param-replace/code-mod-framework/lib/libnx_min/nx/lib\libnx_min.a(fatal.o) (detectKernelVersion)
S:/UltimateEnvironment/code-mod-example/param-replace/code-mod-framework/lib/libnx_min/nx/lib\libnx_min.a(apm.o)
                              S:/UltimateEnvironment/code-mod-example/param-replace/code-mod-framework/lib/libnx_min/nx/lib\libnx_min.a(applet.o) (apmExit)
c:/devkitpro/devkita64/bin/../lib/gcc/aarch64-none-elf/8.3.0/../../../../aarch64-none-elf/lib/pic\libg.a(lib_a-bsearch.o)
                              S:/UltimateEnvironment/code-mod-example/param-replace/code-mod-framework/lib/libnx_min/nx/lib\libnx_min.a(fs_dev.o) (bsearch)
c:/devkitpro/devkita64/bin/../lib/gcc/aarch64-none-elf/8.3.0/../../../../aarch64-none-elf/lib/pic\libg.a(lib_a-ctype_.o)
                              S:/UltimateEnvironment/code-mod-example/param-replace/code-mod-framework/lib/libnx_min/nx/lib\libnx_min.a(argv.o) (_ctype_)
c:/devkitpro/devkita64/bin/../lib/gcc/aarch64-none-elf/8.3.0/../../../../aarch64-none-elf/lib/pic\libg.a(lib_a-errno.o)
                              S:/UltimateEnvironment/code-mod-example/param-replace/code-mod-framework/lib/libnx_min/nx/lib\libnx_min.a(fs_dev.o) (__errno)
c:/devkitpro/devkita64/bin/../lib/gcc/aarch64-none-elf/8.3.0/../../../../aarch64-none-elf/lib/pic\libg.a(lib_a-exit.o)
                              S:/UltimateEnvironment/code-mod-example/param-replace/code-mod-framework/lib/libnx_min/nx/lib\libnx_min.a(switch_crt0.o) (exit)
c:/devkitpro/devkita64/bin/../lib/gcc/aarch64-none-elf/8.3.0/../../../../aarch64-none-elf/lib/pic\libg.a(lib_a-fini.o)
                              main.o (__libc_fini_array)
c:/devkitpro/devkita64/bin/../lib/gcc/aarch64-none-elf/8.3.0/../../../../aarch64-none-elf/lib/pic\libg.a(lib_a-impure.o)
                              c:/devkitpro/devkita64/bin/../lib/gcc/aarch64-none-elf/8.3.0/../../../../aarch64-none-elf/lib/pic\libg.a(lib_a-exit.o) (_global_impure_ptr)
c:/devkitpro/devkita64/bin/../lib/gcc/aarch64-none-elf/8.3.0/../../../../aarch64-none-elf/lib/pic\libg.a(lib_a-init.o)
                              main.o (__libc_init_array)
c:/devkitpro/devkita64/bin/../lib/gcc/aarch64-none-elf/8.3.0/../../../../aarch64-none-elf/lib/pic\libg.a(lib_a-malign.o)
                              S:/UltimateEnvironment/code-mod-example/param-replace/code-mod-framework/lib/libnx_min/nx/lib\libnx_min.a(hid.o) (memalign)
c:/devkitpro/devkita64/bin/../lib/gcc/aarch64-none-elf/8.3.0/../../../../aarch64-none-elf/lib/pic\libg.a(lib_a-malignr.o)
                              c:/devkitpro/devkita64/bin/../lib/gcc/aarch64-none-elf/8.3.0/../../../../aarch64-none-elf/lib/pic\libg.a(lib_a-malign.o) (_memalign_r)
c:/devkitpro/devkita64/bin/../lib/gcc/aarch64-none-elf/8.3.0/../../../../aarch64-none-elf/lib/pic\libg.a(lib_a-malloc.o)
                              S:/UltimateEnvironment/code-mod-example/param-replace/code-mod-framework/lib/libnx_min/nx/lib\libnx_min.a(newlib.o) (malloc)
c:/devkitpro/devkita64/bin/../lib/gcc/aarch64-none-elf/8.3.0/../../../../aarch64-none-elf/lib/pic\libg.a(lib_a-mallocr.o)
                              c:/devkitpro/devkita64/bin/../lib/gcc/aarch64-none-elf/8.3.0/../../../../aarch64-none-elf/lib/pic\libg.a(lib_a-malignr.o) (_malloc_r)
c:/devkitpro/devkita64/bin/../lib/gcc/aarch64-none-elf/8.3.0/../../../../aarch64-none-elf/lib/pic\libg.a(lib_a-memcpy.o)
                              S:/UltimateEnvironment/code-mod-example/param-replace/code-mod-framework/lib/libnx_min/nx/lib\libnx_min.a(fs_dev.o) (memcpy)
c:/devkitpro/devkita64/bin/../lib/gcc/aarch64-none-elf/8.3.0/../../../../aarch64-none-elf/lib/pic\libg.a(lib_a-memset.o)
                              S:/UltimateEnvironment/code-mod-example/param-replace/code-mod-framework/lib/libnx_min/nx/lib\libnx_min.a(argv.o) (memset)
c:/devkitpro/devkita64/bin/../lib/gcc/aarch64-none-elf/8.3.0/../../../../aarch64-none-elf/lib/pic\libg.a(lib_a-mlock.o)
                              c:/devkitpro/devkita64/bin/../lib/gcc/aarch64-none-elf/8.3.0/../../../../aarch64-none-elf/lib/pic\libg.a(lib_a-malignr.o) (__malloc_lock)
c:/devkitpro/devkita64/bin/../lib/gcc/aarch64-none-elf/8.3.0/../../../../aarch64-none-elf/lib/pic\libg.a(lib_a-setenv.o)
                              S:/UltimateEnvironment/code-mod-example/param-replace/code-mod-framework/lib/libnx_min/nx/lib\libnx_min.a(newlib.o) (setenv)
c:/devkitpro/devkita64/bin/../lib/gcc/aarch64-none-elf/8.3.0/../../../../aarch64-none-elf/lib/pic\libg.a(lib_a-setenv_r.o)
                              c:/devkitpro/devkita64/bin/../lib/gcc/aarch64-none-elf/8.3.0/../../../../aarch64-none-elf/lib/pic\libg.a(lib_a-setenv.o) (_setenv_r)
c:/devkitpro/devkita64/bin/../lib/gcc/aarch64-none-elf/8.3.0/../../../../aarch64-none-elf/lib/pic\libg.a(lib_a-strchr.o)
                              raygun_printer.o (strchr)
c:/devkitpro/devkita64/bin/../lib/gcc/aarch64-none-elf/8.3.0/../../../../aarch64-none-elf/lib/pic\libg.a(lib_a-strcpy.o)
                              S:/UltimateEnvironment/code-mod-example/param-replace/code-mod-framework/lib/libnx_min/nx/lib\libnx_min.a(env.o) (strcpy)
c:/devkitpro/devkita64/bin/../lib/gcc/aarch64-none-elf/8.3.0/../../../../aarch64-none-elf/lib/pic\libg.a(lib_a-strlen.o)
                              lua_bind_hash.o (strlen)
c:/devkitpro/devkita64/bin/../lib/gcc/aarch64-none-elf/8.3.0/../../../../aarch64-none-elf/lib/pic\libg.a(lib_a-strncat.o)
                              S:/UltimateEnvironment/code-mod-example/param-replace/code-mod-framework/lib/libnx_min/nx/lib\libnx_min.a(fs_dev.o) (strncat)
c:/devkitpro/devkita64/bin/../lib/gcc/aarch64-none-elf/8.3.0/../../../../aarch64-none-elf/lib/pic\libg.a(lib_a-strncmp.o)
                              S:/UltimateEnvironment/code-mod-example/param-replace/code-mod-framework/lib/libnx_min/nx/lib\libnx_min.a(fs_dev.o) (strncmp)
c:/devkitpro/devkita64/bin/../lib/gcc/aarch64-none-elf/8.3.0/../../../../aarch64-none-elf/lib/pic\libg.a(lib_a-strncpy.o)
                              S:/UltimateEnvironment/code-mod-example/param-replace/code-mod-framework/lib/libnx_min/nx/lib\libnx_min.a(argv.o) (strncpy)
c:/devkitpro/devkita64/bin/../lib/gcc/aarch64-none-elf/8.3.0/../../../../aarch64-none-elf/lib/pic\libg.a(lib_a-strnlen.o)
                              S:/UltimateEnvironment/code-mod-example/param-replace/code-mod-framework/lib/libnx_min/nx/lib\libnx_min.a(fs_dev.o) (strnlen)
c:/devkitpro/devkita64/bin/../lib/gcc/aarch64-none-elf/8.3.0/../../../../aarch64-none-elf/lib/pic\libg.a(lib_a-toupper.o)
                              raygun_printer.o (toupper)
c:/devkitpro/devkita64/bin/../lib/gcc/aarch64-none-elf/8.3.0/../../../../aarch64-none-elf/lib/pic\libg.a(lib_a-vsnprintf.o)
                              raygun_printer.o (vsnprintf)
c:/devkitpro/devkita64/bin/../lib/gcc/aarch64-none-elf/8.3.0/../../../../aarch64-none-elf/lib/pic\libg.a(lib_a-__call_atexit.o)
                              c:/devkitpro/devkita64/bin/../lib/gcc/aarch64-none-elf/8.3.0/../../../../aarch64-none-elf/lib/pic\libg.a(lib_a-exit.o) (__call_exitprocs)
c:/devkitpro/devkita64/bin/../lib/gcc/aarch64-none-elf/8.3.0/../../../../aarch64-none-elf/lib/pic\libg.a(lib_a-environ.o)
                              c:/devkitpro/devkita64/bin/../lib/gcc/aarch64-none-elf/8.3.0/../../../../aarch64-none-elf/lib/pic\libg.a(lib_a-setenv_r.o) (environ)
c:/devkitpro/devkita64/bin/../lib/gcc/aarch64-none-elf/8.3.0/../../../../aarch64-none-elf/lib/pic\libg.a(lib_a-envlock.o)
                              c:/devkitpro/devkita64/bin/../lib/gcc/aarch64-none-elf/8.3.0/../../../../aarch64-none-elf/lib/pic\libg.a(lib_a-setenv_r.o) (__env_lock)
c:/devkitpro/devkita64/bin/../lib/gcc/aarch64-none-elf/8.3.0/../../../../aarch64-none-elf/lib/pic\libg.a(lib_a-freer.o)
                              c:/devkitpro/devkita64/bin/../lib/gcc/aarch64-none-elf/8.3.0/../../../../aarch64-none-elf/lib/pic\libg.a(lib_a-malignr.o) (_free_r)
c:/devkitpro/devkita64/bin/../lib/gcc/aarch64-none-elf/8.3.0/../../../../aarch64-none-elf/lib/pic\libg.a(lib_a-getenv_r.o)
                              c:/devkitpro/devkita64/bin/../lib/gcc/aarch64-none-elf/8.3.0/../../../../aarch64-none-elf/lib/pic\libg.a(lib_a-setenv_r.o) (_findenv_r)
c:/devkitpro/devkita64/bin/../lib/gcc/aarch64-none-elf/8.3.0/../../../../aarch64-none-elf/lib/pic\libg.a(lib_a-reallocr.o)
                              c:/devkitpro/devkita64/bin/../lib/gcc/aarch64-none-elf/8.3.0/../../../../aarch64-none-elf/lib/pic\libg.a(lib_a-setenv_r.o) (_realloc_r)
c:/devkitpro/devkita64/bin/../lib/gcc/aarch64-none-elf/8.3.0/../../../../aarch64-none-elf/lib/pic\libg.a(lib_a-svfprintf.o)
                              c:/devkitpro/devkita64/bin/../lib/gcc/aarch64-none-elf/8.3.0/../../../../aarch64-none-elf/lib/pic\libg.a(lib_a-vsnprintf.o) (_svfprintf_r)
c:/devkitpro/devkita64/bin/../lib/gcc/aarch64-none-elf/8.3.0/../../../../aarch64-none-elf/lib/pic\libg.a(lib_a-wcrtomb.o)
                              c:/devkitpro/devkita64/bin/../lib/gcc/aarch64-none-elf/8.3.0/../../../../aarch64-none-elf/lib/pic\libg.a(lib_a-svfprintf.o) (_wcrtomb_r)
c:/devkitpro/devkita64/bin/../lib/gcc/aarch64-none-elf/8.3.0/../../../../aarch64-none-elf/lib/pic\libg.a(lib_a-wcsrtombs.o)
                              c:/devkitpro/devkita64/bin/../lib/gcc/aarch64-none-elf/8.3.0/../../../../aarch64-none-elf/lib/pic\libg.a(lib_a-svfprintf.o) (_wcsrtombs_r)
c:/devkitpro/devkita64/bin/../lib/gcc/aarch64-none-elf/8.3.0/../../../../aarch64-none-elf/lib/pic\libg.a(lib_a-dtoa.o)
                              c:/devkitpro/devkita64/bin/../lib/gcc/aarch64-none-elf/8.3.0/../../../../aarch64-none-elf/lib/pic\libg.a(lib_a-svfprintf.o) (_dtoa_r)
c:/devkitpro/devkita64/bin/../lib/gcc/aarch64-none-elf/8.3.0/../../../../aarch64-none-elf/lib/pic\libg.a(lib_a-localeconv.o)
                              c:/devkitpro/devkita64/bin/../lib/gcc/aarch64-none-elf/8.3.0/../../../../aarch64-none-elf/lib/pic\libg.a(lib_a-svfprintf.o) (_localeconv_r)
c:/devkitpro/devkita64/bin/../lib/gcc/aarch64-none-elf/8.3.0/../../../../aarch64-none-elf/lib/pic\libg.a(lib_a-locale.o)
                              c:/devkitpro/devkita64/bin/../lib/gcc/aarch64-none-elf/8.3.0/../../../../aarch64-none-elf/lib/pic\libg.a(lib_a-svfprintf.o) (__global_locale)
c:/devkitpro/devkita64/bin/../lib/gcc/aarch64-none-elf/8.3.0/../../../../aarch64-none-elf/lib/pic\libg.a(lib_a-mbtowc_r.o)
                              c:/devkitpro/devkita64/bin/../lib/gcc/aarch64-none-elf/8.3.0/../../../../aarch64-none-elf/lib/pic\libg.a(lib_a-locale.o) (__ascii_mbtowc)
c:/devkitpro/devkita64/bin/../lib/gcc/aarch64-none-elf/8.3.0/../../../../aarch64-none-elf/lib/pic\libg.a(lib_a-memchr.o)
                              c:/devkitpro/devkita64/bin/../lib/gcc/aarch64-none-elf/8.3.0/../../../../aarch64-none-elf/lib/pic\libg.a(lib_a-svfprintf.o) (memchr)
c:/devkitpro/devkita64/bin/../lib/gcc/aarch64-none-elf/8.3.0/../../../../aarch64-none-elf/lib/pic\libg.a(lib_a-memmove.o)
                              c:/devkitpro/devkita64/bin/../lib/gcc/aarch64-none-elf/8.3.0/../../../../aarch64-none-elf/lib/pic\libg.a(lib_a-reallocr.o) (memmove)
c:/devkitpro/devkita64/bin/../lib/gcc/aarch64-none-elf/8.3.0/../../../../aarch64-none-elf/lib/pic\libg.a(lib_a-mprec.o)
                              c:/devkitpro/devkita64/bin/../lib/gcc/aarch64-none-elf/8.3.0/../../../../aarch64-none-elf/lib/pic\libg.a(lib_a-dtoa.o) (_Balloc)
c:/devkitpro/devkita64/bin/../lib/gcc/aarch64-none-elf/8.3.0/../../../../aarch64-none-elf/lib/pic\libg.a(lib_a-s_frexp.o)
                              c:/devkitpro/devkita64/bin/../lib/gcc/aarch64-none-elf/8.3.0/../../../../aarch64-none-elf/lib/pic\libg.a(lib_a-svfprintf.o) (frexp)
c:/devkitpro/devkita64/bin/../lib/gcc/aarch64-none-elf/8.3.0/../../../../aarch64-none-elf/lib/pic\libg.a(lib_a-strcasecmp.o)
                              c:/devkitpro/devkita64/bin/../lib/gcc/aarch64-none-elf/8.3.0/../../../../aarch64-none-elf/lib/pic\libg.a(lib_a-locale.o) (strcasecmp)
c:/devkitpro/devkita64/bin/../lib/gcc/aarch64-none-elf/8.3.0/../../../../aarch64-none-elf/lib/pic\libg.a(lib_a-strcat.o)
                              c:/devkitpro/devkita64/bin/../lib/gcc/aarch64-none-elf/8.3.0/../../../../aarch64-none-elf/lib/pic\libg.a(lib_a-locale.o) (strcat)
c:/devkitpro/devkita64/bin/../lib/gcc/aarch64-none-elf/8.3.0/../../../../aarch64-none-elf/lib/pic\libg.a(lib_a-strcmp.o)
                              c:/devkitpro/devkita64/bin/../lib/gcc/aarch64-none-elf/8.3.0/../../../../aarch64-none-elf/lib/pic\libg.a(lib_a-locale.o) (strcmp)
c:/devkitpro/devkita64/bin/../lib/gcc/aarch64-none-elf/8.3.0/../../../../aarch64-none-elf/lib/pic\libg.a(lib_a-strlcpy.o)
                              c:/devkitpro/devkita64/bin/../lib/gcc/aarch64-none-elf/8.3.0/../../../../aarch64-none-elf/lib/pic\libg.a(lib_a-locale.o) (strlcpy)
c:/devkitpro/devkita64/bin/../lib/gcc/aarch64-none-elf/8.3.0/../../../../aarch64-none-elf/lib/pic\libg.a(lib_a-strncasecmp.o)
                              c:/devkitpro/devkita64/bin/../lib/gcc/aarch64-none-elf/8.3.0/../../../../aarch64-none-elf/lib/pic\libg.a(lib_a-locale.o) (strncasecmp)
c:/devkitpro/devkita64/bin/../lib/gcc/aarch64-none-elf/8.3.0/../../../../aarch64-none-elf/lib/pic\libg.a(lib_a-strtol.o)
                              c:/devkitpro/devkita64/bin/../lib/gcc/aarch64-none-elf/8.3.0/../../../../aarch64-none-elf/lib/pic\libg.a(lib_a-locale.o) (strtol)
c:/devkitpro/devkita64/bin/../lib/gcc/aarch64-none-elf/8.3.0/../../../../aarch64-none-elf/lib/pic\libg.a(lib_a-svfiprintf.o)
                              c:/devkitpro/devkita64/bin/../lib/gcc/aarch64-none-elf/8.3.0/../../../../aarch64-none-elf/lib/pic\libg.a(lib_a-svfprintf.o) (__chclass)
c:/devkitpro/devkita64/bin/../lib/gcc/aarch64-none-elf/8.3.0/../../../../aarch64-none-elf/lib/pic\libg.a(lib_a-wcsnrtombs.o)
                              c:/devkitpro/devkita64/bin/../lib/gcc/aarch64-none-elf/8.3.0/../../../../aarch64-none-elf/lib/pic\libg.a(lib_a-wcsrtombs.o) (_wcsnrtombs_r)
c:/devkitpro/devkita64/bin/../lib/gcc/aarch64-none-elf/8.3.0/../../../../aarch64-none-elf/lib/pic\libg.a(lib_a-wctomb_r.o)
                              c:/devkitpro/devkita64/bin/../lib/gcc/aarch64-none-elf/8.3.0/../../../../aarch64-none-elf/lib/pic\libg.a(lib_a-locale.o) (__ascii_wctomb)
c:/devkitpro/devkita64/bin/../lib/gcc/aarch64-none-elf/8.3.0/../../../../aarch64-none-elf/lib/pic\libg.a(lib_a-callocr.o)
                              c:/devkitpro/devkita64/bin/../lib/gcc/aarch64-none-elf/8.3.0/../../../../aarch64-none-elf/lib/pic\libg.a(lib_a-mprec.o) (_calloc_r)
c:/devkitpro/devkita64/bin/../lib/gcc/aarch64-none-elf/8.3.0/../../../../aarch64-none-elf/lib/pic\libsysbase.a(iosupport.o)
                              S:/UltimateEnvironment/code-mod-example/param-replace/code-mod-framework/lib/libnx_min/nx/lib\libnx_min.a(fs_dev.o) (setDefaultDevice)
c:/devkitpro/devkita64/bin/../lib/gcc/aarch64-none-elf/8.3.0/../../../../aarch64-none-elf/lib/pic\libsysbase.a(sbrk.o)
                              c:/devkitpro/devkita64/bin/../lib/gcc/aarch64-none-elf/8.3.0/../../../../aarch64-none-elf/lib/pic\libg.a(lib_a-mallocr.o) (_sbrk_r)
c:/devkitpro/devkita64/bin/../lib/gcc/aarch64-none-elf/8.3.0/../../../../aarch64-none-elf/lib/pic\libsysbase.a(_exit.o)
                              c:/devkitpro/devkita64/bin/../lib/gcc/aarch64-none-elf/8.3.0/../../../../aarch64-none-elf/lib/pic\libg.a(lib_a-exit.o) (_exit)
c:/devkitpro/devkita64/bin/../lib/gcc/aarch64-none-elf/8.3.0/../../../../aarch64-none-elf/lib/pic\libsysbase.a(malloc_vars.o)
                              main.o (fake_heap_start)
c:/devkitpro/devkita64/bin/../lib/gcc/aarch64-none-elf/8.3.0/../../../../aarch64-none-elf/lib/pic\libsysbase.a(chdir.o)
                              S:/UltimateEnvironment/code-mod-example/param-replace/code-mod-framework/lib/libnx_min/nx/lib\libnx_min.a(fs_dev.o) (chdir)
c:/devkitpro/devkita64/bin/../lib/gcc/aarch64-none-elf/8.3.0/../../../../aarch64-none-elf/lib/pic\libsysbase.a(locks.o)
                              S:/UltimateEnvironment/code-mod-example/param-replace/code-mod-framework/lib/libnx_min/nx/lib\libnx_min.a(newlib.o) (timespec2nsec)
c:/devkitpro/devkita64/bin/../lib/gcc/aarch64-none-elf/8.3.0/../../../../aarch64-none-elf/lib/pic\libsysbase.a(getreent.o)
                              S:/UltimateEnvironment/code-mod-example/param-replace/code-mod-framework/lib/libnx_min/nx/lib\libnx_min.a(fs_dev.o) (__getreent)
c:/devkitpro/devkita64/bin/../lib/gcc/aarch64-none-elf/8.3.0/../../../../aarch64-none-elf/lib/pic\libsysbase.a(clocks.o)
                              c:/devkitpro/devkita64/bin/../lib/gcc/aarch64-none-elf/8.3.0/../../../../aarch64-none-elf/lib/pic\libsysbase.a(locks.o) (clock_gettime)
c:/devkitpro/devkita64/bin/../lib/gcc/aarch64-none-elf/8.3.0/pic\libgcc.a(trunctfdf2.o)
                              c:/devkitpro/devkita64/bin/../lib/gcc/aarch64-none-elf/8.3.0/../../../../aarch64-none-elf/lib/pic\libg.a(lib_a-svfprintf.o) (__trunctfdf2)
c:/devkitpro/devkita64/bin/../lib/gcc/aarch64-none-elf/8.3.0/pic\libgcc.a(sfp-exceptions.o)
                              c:/devkitpro/devkita64/bin/../lib/gcc/aarch64-none-elf/8.3.0/pic\libgcc.a(trunctfdf2.o) (__sfp_handle_exceptions)
c:/devkitpro/devkita64/bin/../lib/gcc/aarch64-none-elf/8.3.0/../../../../aarch64-none-elf/lib/pic\libg.a(lib_a-strrchr.o)
                              c:/devkitpro/devkita64/bin/../lib/gcc/aarch64-none-elf/8.3.0/../../../../aarch64-none-elf/lib/pic\libsysbase.a(chdir.o) (strrchr)

Allocating common symbols
Common symbol       size              file

__nx_exceptiondump  0x340             S:/UltimateEnvironment/code-mod-example/param-replace/code-mod-framework/lib/libnx_min/nx/lib\libnx_min.a(init.o)
__system_argv       0x8               S:/UltimateEnvironment/code-mod-example/param-replace/code-mod-framework/lib/libnx_min/nx/lib\libnx_min.a(argv.o)
__system_argc       0x4               S:/UltimateEnvironment/code-mod-example/param-replace/code-mod-framework/lib/libnx_min/nx/lib\libnx_min.a(argv.o)
__stack_top         0x8               S:/UltimateEnvironment/code-mod-example/param-replace/code-mod-framework/lib/libnx_min/nx/lib\libnx_min.a(init.o)

Discarded input sections

 .text          0x0000000000000000        0x0 c:/devkitpro/devkita64/bin/../lib/gcc/aarch64-none-elf/8.3.0/pic/crti.o
 .data          0x0000000000000000        0x0 c:/devkitpro/devkita64/bin/../lib/gcc/aarch64-none-elf/8.3.0/pic/crti.o
 .bss           0x0000000000000000        0x0 c:/devkitpro/devkita64/bin/../lib/gcc/aarch64-none-elf/8.3.0/pic/crti.o
 .text          0x0000000000000000        0x0 c:/devkitpro/devkita64/bin/../lib/gcc/aarch64-none-elf/8.3.0/pic/crtbegin.o
 .data          0x0000000000000000        0x0 c:/devkitpro/devkita64/bin/../lib/gcc/aarch64-none-elf/8.3.0/pic/crtbegin.o
 .bss           0x0000000000000000        0x0 c:/devkitpro/devkita64/bin/../lib/gcc/aarch64-none-elf/8.3.0/pic/crtbegin.o
 .data.__dso_handle
                0x0000000000000000        0x8 c:/devkitpro/devkita64/bin/../lib/gcc/aarch64-none-elf/8.3.0/pic/crtbegin.o
 .comment       0x0000000000000000       0x23 c:/devkitpro/devkita64/bin/../lib/gcc/aarch64-none-elf/8.3.0/pic/crtbegin.o
 .comment       0x0000000000000000       0x23 main.o
 .data          0x0000000000000000        0x0 acmd_wrapper.o
 .bss           0x0000000000000000        0x0 acmd_wrapper.o
 .comment       0x0000000000000000       0x23 acmd_wrapper.o
 .data          0x0000000000000000        0x0 saltysd_helper.o
 .comment       0x0000000000000000       0x23 saltysd_helper.o
 .data          0x0000000000000000        0x0 lua_bind_hash.o
 .bss           0x0000000000000000        0x0 lua_bind_hash.o
 .comment       0x0000000000000000       0x23 lua_bind_hash.o
 .data          0x0000000000000000        0x0 l2c_imports.o
 .bss           0x0000000000000000        0x0 l2c_imports.o
 .comment       0x0000000000000000       0x23 l2c_imports.o
 .data          0x0000000000000000        0x0 raygun_printer.o
 .bss           0x0000000000000000        0x0 raygun_printer.o
 .comment       0x0000000000000000       0x23 raygun_printer.o
 .text          0x0000000000000000        0x0 S:/UltimateEnvironment/code-mod-example/param-replace/code-mod-framework/lib/libnx_min/nx/lib\libnx_min.a(switch_crt0.o)
 .data          0x0000000000000000        0x0 S:/UltimateEnvironment/code-mod-example/param-replace/code-mod-framework/lib/libnx_min/nx/lib\libnx_min.a(switch_crt0.o)
 .bss           0x0000000000000000        0x0 S:/UltimateEnvironment/code-mod-example/param-replace/code-mod-framework/lib/libnx_min/nx/lib\libnx_min.a(switch_crt0.o)
 .debug_line    0x0000000000000000       0xc3 S:/UltimateEnvironment/code-mod-example/param-replace/code-mod-framework/lib/libnx_min/nx/lib\libnx_min.a(switch_crt0.o)
 .debug_info    0x0000000000000000       0x2e S:/UltimateEnvironment/code-mod-example/param-replace/code-mod-framework/lib/libnx_min/nx/lib\libnx_min.a(switch_crt0.o)
 .debug_abbrev  0x0000000000000000       0x14 S:/UltimateEnvironment/code-mod-example/param-replace/code-mod-framework/lib/libnx_min/nx/lib\libnx_min.a(switch_crt0.o)
 .debug_aranges
                0x0000000000000000       0x30 S:/UltimateEnvironment/code-mod-example/param-replace/code-mod-framework/lib/libnx_min/nx/lib\libnx_min.a(switch_crt0.o)
 .debug_str     0x0000000000000000       0xc1 S:/UltimateEnvironment/code-mod-example/param-replace/code-mod-framework/lib/libnx_min/nx/lib\libnx_min.a(switch_crt0.o)
 .text          0x0000000000000000        0x0 S:/UltimateEnvironment/code-mod-example/param-replace/code-mod-framework/lib/libnx_min/nx/lib\libnx_min.a(exception.o)
 .data          0x0000000000000000        0x0 S:/UltimateEnvironment/code-mod-example/param-replace/code-mod-framework/lib/libnx_min/nx/lib\libnx_min.a(exception.o)
 .bss           0x0000000000000000        0x0 S:/UltimateEnvironment/code-mod-example/param-replace/code-mod-framework/lib/libnx_min/nx/lib\libnx_min.a(exception.o)
 .debug_line    0x0000000000000000      0x11e S:/UltimateEnvironment/code-mod-example/param-replace/code-mod-framework/lib/libnx_min/nx/lib\libnx_min.a(exception.o)
 .debug_info    0x0000000000000000       0x22 S:/UltimateEnvironment/code-mod-example/param-replace/code-mod-framework/lib/libnx_min/nx/lib\libnx_min.a(exception.o)
 .debug_abbrev  0x0000000000000000       0x12 S:/UltimateEnvironment/code-mod-example/param-replace/code-mod-framework/lib/libnx_min/nx/lib\libnx_min.a(exception.o)
 .debug_aranges
                0x0000000000000000       0x40 S:/UltimateEnvironment/code-mod-example/param-replace/code-mod-framework/lib/libnx_min/nx/lib\libnx_min.a(exception.o)
 .debug_str     0x0000000000000000       0xbf S:/UltimateEnvironment/code-mod-example/param-replace/code-mod-framework/lib/libnx_min/nx/lib\libnx_min.a(exception.o)
 .debug_ranges  0x0000000000000000       0x40 S:/UltimateEnvironment/code-mod-example/param-replace/code-mod-framework/lib/libnx_min/nx/lib\libnx_min.a(exception.o)
 .text          0x0000000000000000        0x0 S:/UltimateEnvironment/code-mod-example/param-replace/code-mod-framework/lib/libnx_min/nx/lib\libnx_min.a(argv.o)
 .data          0x0000000000000000        0x0 S:/UltimateEnvironment/code-mod-example/param-replace/code-mod-framework/lib/libnx_min/nx/lib\libnx_min.a(argv.o)
 .bss           0x0000000000000000        0x0 S:/UltimateEnvironment/code-mod-example/param-replace/code-mod-framework/lib/libnx_min/nx/lib\libnx_min.a(argv.o)
 .debug_info    0x0000000000000000      0xe43 S:/UltimateEnvironment/code-mod-example/param-replace/code-mod-framework/lib/libnx_min/nx/lib\libnx_min.a(argv.o)
 .debug_abbrev  0x0000000000000000      0x2de S:/UltimateEnvironment/code-mod-example/param-replace/code-mod-framework/lib/libnx_min/nx/lib\libnx_min.a(argv.o)
 .debug_loc     0x0000000000000000      0x6a8 S:/UltimateEnvironment/code-mod-example/param-replace/code-mod-framework/lib/libnx_min/nx/lib\libnx_min.a(argv.o)
 .debug_aranges
                0x0000000000000000       0x30 S:/UltimateEnvironment/code-mod-example/param-replace/code-mod-framework/lib/libnx_min/nx/lib\libnx_min.a(argv.o)
 .debug_ranges  0x0000000000000000       0x20 S:/UltimateEnvironment/code-mod-example/param-replace/code-mod-framework/lib/libnx_min/nx/lib\libnx_min.a(argv.o)
 .debug_line    0x0000000000000000      0x64d S:/UltimateEnvironment/code-mod-example/param-replace/code-mod-framework/lib/libnx_min/nx/lib\libnx_min.a(argv.o)
 .debug_str     0x0000000000000000      0x874 S:/UltimateEnvironment/code-mod-example/param-replace/code-mod-framework/lib/libnx_min/nx/lib\libnx_min.a(argv.o)
 .comment       0x0000000000000000       0x23 S:/UltimateEnvironment/code-mod-example/param-replace/code-mod-framework/lib/libnx_min/nx/lib\libnx_min.a(argv.o)
 .text          0x0000000000000000        0x0 S:/UltimateEnvironment/code-mod-example/param-replace/code-mod-framework/lib/libnx_min/nx/lib\libnx_min.a(env.o)
 .data          0x0000000000000000        0x0 S:/UltimateEnvironment/code-mod-example/param-replace/code-mod-framework/lib/libnx_min/nx/lib\libnx_min.a(env.o)
 .bss           0x0000000000000000        0x0 S:/UltimateEnvironment/code-mod-example/param-replace/code-mod-framework/lib/libnx_min/nx/lib\libnx_min.a(env.o)
 .debug_info    0x0000000000000000     0x111a S:/UltimateEnvironment/code-mod-example/param-replace/code-mod-framework/lib/libnx_min/nx/lib\libnx_min.a(env.o)
 .debug_abbrev  0x0000000000000000      0x322 S:/UltimateEnvironment/code-mod-example/param-replace/code-mod-framework/lib/libnx_min/nx/lib\libnx_min.a(env.o)
 .debug_loc     0x0000000000000000      0x362 S:/UltimateEnvironment/code-mod-example/param-replace/code-mod-framework/lib/libnx_min/nx/lib\libnx_min.a(env.o)
 .debug_aranges
                0x0000000000000000      0x130 S:/UltimateEnvironment/code-mod-example/param-replace/code-mod-framework/lib/libnx_min/nx/lib\libnx_min.a(env.o)
 .debug_ranges  0x0000000000000000      0x120 S:/UltimateEnvironment/code-mod-example/param-replace/code-mod-framework/lib/libnx_min/nx/lib\libnx_min.a(env.o)
 .debug_line    0x0000000000000000      0x6fe S:/UltimateEnvironment/code-mod-example/param-replace/code-mod-framework/lib/libnx_min/nx/lib\libnx_min.a(env.o)
 .debug_str     0x0000000000000000     0x107e S:/UltimateEnvironment/code-mod-example/param-replace/code-mod-framework/lib/libnx_min/nx/lib\libnx_min.a(env.o)
 .comment       0x0000000000000000       0x23 S:/UltimateEnvironment/code-mod-example/param-replace/code-mod-framework/lib/libnx_min/nx/lib\libnx_min.a(env.o)
 .text          0x0000000000000000        0x0 S:/UltimateEnvironment/code-mod-example/param-replace/code-mod-framework/lib/libnx_min/nx/lib\libnx_min.a(init.o)
 .data          0x0000000000000000        0x0 S:/UltimateEnvironment/code-mod-example/param-replace/code-mod-framework/lib/libnx_min/nx/lib\libnx_min.a(init.o)
 .bss           0x0000000000000000        0x0 S:/UltimateEnvironment/code-mod-example/param-replace/code-mod-framework/lib/libnx_min/nx/lib\libnx_min.a(init.o)
 .text.__libnx_init
                0x0000000000000000       0x28 S:/UltimateEnvironment/code-mod-example/param-replace/code-mod-framework/lib/libnx_min/nx/lib\libnx_min.a(init.o)
 .text.__libnx_exit
                0x0000000000000000       0x20 S:/UltimateEnvironment/code-mod-example/param-replace/code-mod-framework/lib/libnx_min/nx/lib\libnx_min.a(init.o)
 .debug_info    0x0000000000000000      0xce2 S:/UltimateEnvironment/code-mod-example/param-replace/code-mod-framework/lib/libnx_min/nx/lib\libnx_min.a(init.o)
 .debug_abbrev  0x0000000000000000      0x2a1 S:/UltimateEnvironment/code-mod-example/param-replace/code-mod-framework/lib/libnx_min/nx/lib\libnx_min.a(init.o)
 .debug_loc     0x0000000000000000      0x34a S:/UltimateEnvironment/code-mod-example/param-replace/code-mod-framework/lib/libnx_min/nx/lib\libnx_min.a(init.o)
 .debug_aranges
                0x0000000000000000       0x70 S:/UltimateEnvironment/code-mod-example/param-replace/code-mod-framework/lib/libnx_min/nx/lib\libnx_min.a(init.o)
 .debug_ranges  0x0000000000000000       0xa0 S:/UltimateEnvironment/code-mod-example/param-replace/code-mod-framework/lib/libnx_min/nx/lib\libnx_min.a(init.o)
 .debug_line    0x0000000000000000      0x685 S:/UltimateEnvironment/code-mod-example/param-replace/code-mod-framework/lib/libnx_min/nx/lib\libnx_min.a(init.o)
 .debug_str     0x0000000000000000      0xf19 S:/UltimateEnvironment/code-mod-example/param-replace/code-mod-framework/lib/libnx_min/nx/lib\libnx_min.a(init.o)
 .comment       0x0000000000000000       0x23 S:/UltimateEnvironment/code-mod-example/param-replace/code-mod-framework/lib/libnx_min/nx/lib\libnx_min.a(init.o)
 .text          0x0000000000000000        0x0 S:/UltimateEnvironment/code-mod-example/param-replace/code-mod-framework/lib/libnx_min/nx/lib\libnx_min.a(hosversion.o)
 .data          0x0000000000000000        0x0 S:/UltimateEnvironment/code-mod-example/param-replace/code-mod-framework/lib/libnx_min/nx/lib\libnx_min.a(hosversion.o)
 .bss           0x0000000000000000        0x0 S:/UltimateEnvironment/code-mod-example/param-replace/code-mod-framework/lib/libnx_min/nx/lib\libnx_min.a(hosversion.o)
 .debug_info    0x0000000000000000      0x103 S:/UltimateEnvironment/code-mod-example/param-replace/code-mod-framework/lib/libnx_min/nx/lib\libnx_min.a(hosversion.o)
 .debug_abbrev  0x0000000000000000       0xa2 S:/UltimateEnvironment/code-mod-example/param-replace/code-mod-framework/lib/libnx_min/nx/lib\libnx_min.a(hosversion.o)
 .debug_aranges
                0x0000000000000000       0x40 S:/UltimateEnvironment/code-mod-example/param-replace/code-mod-framework/lib/libnx_min/nx/lib\libnx_min.a(hosversion.o)
 .debug_ranges  0x0000000000000000       0x30 S:/UltimateEnvironment/code-mod-example/param-replace/code-mod-framework/lib/libnx_min/nx/lib\libnx_min.a(hosversion.o)
 .debug_line    0x0000000000000000      0x1b0 S:/UltimateEnvironment/code-mod-example/param-replace/code-mod-framework/lib/libnx_min/nx/lib\libnx_min.a(hosversion.o)
 .debug_str     0x0000000000000000      0x234 S:/UltimateEnvironment/code-mod-example/param-replace/code-mod-framework/lib/libnx_min/nx/lib\libnx_min.a(hosversion.o)
 .comment       0x0000000000000000       0x23 S:/UltimateEnvironment/code-mod-example/param-replace/code-mod-framework/lib/libnx_min/nx/lib\libnx_min.a(hosversion.o)
 .text          0x0000000000000000        0x0 S:/UltimateEnvironment/code-mod-example/param-replace/code-mod-framework/lib/libnx_min/nx/lib\libnx_min.a(dynamic.o)
 .data          0x0000000000000000        0x0 S:/UltimateEnvironment/code-mod-example/param-replace/code-mod-framework/lib/libnx_min/nx/lib\libnx_min.a(dynamic.o)
 .bss           0x0000000000000000        0x0 S:/UltimateEnvironment/code-mod-example/param-replace/code-mod-framework/lib/libnx_min/nx/lib\libnx_min.a(dynamic.o)
 .debug_info    0x0000000000000000      0x3c9 S:/UltimateEnvironment/code-mod-example/param-replace/code-mod-framework/lib/libnx_min/nx/lib\libnx_min.a(dynamic.o)
 .debug_abbrev  0x0000000000000000      0x16b S:/UltimateEnvironment/code-mod-example/param-replace/code-mod-framework/lib/libnx_min/nx/lib\libnx_min.a(dynamic.o)
 .debug_loc     0x0000000000000000      0x1b8 S:/UltimateEnvironment/code-mod-example/param-replace/code-mod-framework/lib/libnx_min/nx/lib\libnx_min.a(dynamic.o)
 .debug_aranges
                0x0000000000000000       0x30 S:/UltimateEnvironment/code-mod-example/param-replace/code-mod-framework/lib/libnx_min/nx/lib\libnx_min.a(dynamic.o)
 .debug_ranges  0x0000000000000000       0x20 S:/UltimateEnvironment/code-mod-example/param-replace/code-mod-framework/lib/libnx_min/nx/lib\libnx_min.a(dynamic.o)
 .debug_line    0x0000000000000000      0x2df S:/UltimateEnvironment/code-mod-example/param-replace/code-mod-framework/lib/libnx_min/nx/lib\libnx_min.a(dynamic.o)
 .debug_str     0x0000000000000000      0x837 S:/UltimateEnvironment/code-mod-example/param-replace/code-mod-framework/lib/libnx_min/nx/lib\libnx_min.a(dynamic.o)
 .comment       0x0000000000000000       0x23 S:/UltimateEnvironment/code-mod-example/param-replace/code-mod-framework/lib/libnx_min/nx/lib\libnx_min.a(dynamic.o)
 .text          0x0000000000000000        0x0 S:/UltimateEnvironment/code-mod-example/param-replace/code-mod-framework/lib/libnx_min/nx/lib\libnx_min.a(fs_dev.o)
 .data          0x0000000000000000        0x0 S:/UltimateEnvironment/code-mod-example/param-replace/code-mod-framework/lib/libnx_min/nx/lib\libnx_min.a(fs_dev.o)
 .bss           0x0000000000000000        0x0 S:/UltimateEnvironment/code-mod-example/param-replace/code-mod-framework/lib/libnx_min/nx/lib\libnx_min.a(fs_dev.o)
 .debug_info    0x0000000000000000     0x411e S:/UltimateEnvironment/code-mod-example/param-replace/code-mod-framework/lib/libnx_min/nx/lib\libnx_min.a(fs_dev.o)
 .debug_abbrev  0x0000000000000000      0x5b7 S:/UltimateEnvironment/code-mod-example/param-replace/code-mod-framework/lib/libnx_min/nx/lib\libnx_min.a(fs_dev.o)
 .debug_loc     0x0000000000000000     0x4332 S:/UltimateEnvironment/code-mod-example/param-replace/code-mod-framework/lib/libnx_min/nx/lib\libnx_min.a(fs_dev.o)
 .debug_aranges
                0x0000000000000000      0x2a0 S:/UltimateEnvironment/code-mod-example/param-replace/code-mod-framework/lib/libnx_min/nx/lib\libnx_min.a(fs_dev.o)
 .debug_ranges  0x0000000000000000      0x670 S:/UltimateEnvironment/code-mod-example/param-replace/code-mod-framework/lib/libnx_min/nx/lib\libnx_min.a(fs_dev.o)
 .debug_line    0x0000000000000000     0x1a73 S:/UltimateEnvironment/code-mod-example/param-replace/code-mod-framework/lib/libnx_min/nx/lib\libnx_min.a(fs_dev.o)
 .debug_str     0x0000000000000000     0x1939 S:/UltimateEnvironment/code-mod-example/param-replace/code-mod-framework/lib/libnx_min/nx/lib\libnx_min.a(fs_dev.o)
 .comment       0x0000000000000000       0x23 S:/UltimateEnvironment/code-mod-example/param-replace/code-mod-framework/lib/libnx_min/nx/lib\libnx_min.a(fs_dev.o)
 .text          0x0000000000000000        0x0 S:/UltimateEnvironment/code-mod-example/param-replace/code-mod-framework/lib/libnx_min/nx/lib\libnx_min.a(decode_utf8.o)
 .data          0x0000000000000000        0x0 S:/UltimateEnvironment/code-mod-example/param-replace/code-mod-framework/lib/libnx_min/nx/lib\libnx_min.a(decode_utf8.o)
 .bss           0x0000000000000000        0x0 S:/UltimateEnvironment/code-mod-example/param-replace/code-mod-framework/lib/libnx_min/nx/lib\libnx_min.a(decode_utf8.o)
 .debug_info    0x0000000000000000      0x170 S:/UltimateEnvironment/code-mod-example/param-replace/code-mod-framework/lib/libnx_min/nx/lib\libnx_min.a(decode_utf8.o)
 .debug_abbrev  0x0000000000000000       0x9e S:/UltimateEnvironment/code-mod-example/param-replace/code-mod-framework/lib/libnx_min/nx/lib\libnx_min.a(decode_utf8.o)
 .debug_loc     0x0000000000000000      0x334 S:/UltimateEnvironment/code-mod-example/param-replace/code-mod-framework/lib/libnx_min/nx/lib\libnx_min.a(decode_utf8.o)
 .debug_aranges
                0x0000000000000000       0x30 S:/UltimateEnvironment/code-mod-example/param-replace/code-mod-framework/lib/libnx_min/nx/lib\libnx_min.a(decode_utf8.o)
 .debug_ranges  0x0000000000000000       0x20 S:/UltimateEnvironment/code-mod-example/param-replace/code-mod-framework/lib/libnx_min/nx/lib\libnx_min.a(decode_utf8.o)
 .debug_line    0x0000000000000000      0x28a S:/UltimateEnvironment/code-mod-example/param-replace/code-mod-framework/lib/libnx_min/nx/lib\libnx_min.a(decode_utf8.o)
 .debug_str     0x0000000000000000      0x259 S:/UltimateEnvironment/code-mod-example/param-replace/code-mod-framework/lib/libnx_min/nx/lib\libnx_min.a(decode_utf8.o)
 .comment       0x0000000000000000       0x23 S:/UltimateEnvironment/code-mod-example/param-replace/code-mod-framework/lib/libnx_min/nx/lib\libnx_min.a(decode_utf8.o)
 .text          0x0000000000000000        0x0 S:/UltimateEnvironment/code-mod-example/param-replace/code-mod-framework/lib/libnx_min/nx/lib\libnx_min.a(svc.o)
 .data          0x0000000000000000        0x0 S:/UltimateEnvironment/code-mod-example/param-replace/code-mod-framework/lib/libnx_min/nx/lib\libnx_min.a(svc.o)
 .bss           0x0000000000000000        0x0 S:/UltimateEnvironment/code-mod-example/param-replace/code-mod-framework/lib/libnx_min/nx/lib\libnx_min.a(svc.o)
 .debug_line    0x0000000000000000      0x92d S:/UltimateEnvironment/code-mod-example/param-replace/code-mod-framework/lib/libnx_min/nx/lib\libnx_min.a(svc.o)
 .debug_info    0x0000000000000000       0x22 S:/UltimateEnvironment/code-mod-example/param-replace/code-mod-framework/lib/libnx_min/nx/lib\libnx_min.a(svc.o)
 .debug_abbrev  0x0000000000000000       0x12 S:/UltimateEnvironment/code-mod-example/param-replace/code-mod-framework/lib/libnx_min/nx/lib\libnx_min.a(svc.o)
 .debug_aranges
                0x0000000000000000      0x660 S:/UltimateEnvironment/code-mod-example/param-replace/code-mod-framework/lib/libnx_min/nx/lib\libnx_min.a(svc.o)
 .debug_str     0x0000000000000000       0xb8 S:/UltimateEnvironment/code-mod-example/param-replace/code-mod-framework/lib/libnx_min/nx/lib\libnx_min.a(svc.o)
 .debug_ranges  0x0000000000000000      0x660 S:/UltimateEnvironment/code-mod-example/param-replace/code-mod-framework/lib/libnx_min/nx/lib\libnx_min.a(svc.o)
 .text          0x0000000000000000        0x0 S:/UltimateEnvironment/code-mod-example/param-replace/code-mod-framework/lib/libnx_min/nx/lib\libnx_min.a(readtp.o)
 .data          0x0000000000000000        0x0 S:/UltimateEnvironment/code-mod-example/param-replace/code-mod-framework/lib/libnx_min/nx/lib\libnx_min.a(readtp.o)
 .bss           0x0000000000000000        0x0 S:/UltimateEnvironment/code-mod-example/param-replace/code-mod-framework/lib/libnx_min/nx/lib\libnx_min.a(readtp.o)
 .debug_line    0x0000000000000000       0x93 S:/UltimateEnvironment/code-mod-example/param-replace/code-mod-framework/lib/libnx_min/nx/lib\libnx_min.a(readtp.o)
 .debug_info    0x0000000000000000       0x2e S:/UltimateEnvironment/code-mod-example/param-replace/code-mod-framework/lib/libnx_min/nx/lib\libnx_min.a(readtp.o)
 .debug_abbrev  0x0000000000000000       0x14 S:/UltimateEnvironment/code-mod-example/param-replace/code-mod-framework/lib/libnx_min/nx/lib\libnx_min.a(readtp.o)
 .debug_aranges
                0x0000000000000000       0x30 S:/UltimateEnvironment/code-mod-example/param-replace/code-mod-framework/lib/libnx_min/nx/lib\libnx_min.a(readtp.o)
 .debug_str     0x0000000000000000       0xbc S:/UltimateEnvironment/code-mod-example/param-replace/code-mod-framework/lib/libnx_min/nx/lib\libnx_min.a(readtp.o)
 .text          0x0000000000000000        0x0 S:/UltimateEnvironment/code-mod-example/param-replace/code-mod-framework/lib/libnx_min/nx/lib\libnx_min.a(virtmem.o)
 .data          0x0000000000000000        0x0 S:/UltimateEnvironment/code-mod-example/param-replace/code-mod-framework/lib/libnx_min/nx/lib\libnx_min.a(virtmem.o)
 .bss           0x0000000000000000        0x0 S:/UltimateEnvironment/code-mod-example/param-replace/code-mod-framework/lib/libnx_min/nx/lib\libnx_min.a(virtmem.o)
 .debug_info    0x0000000000000000      0xb52 S:/UltimateEnvironment/code-mod-example/param-replace/code-mod-framework/lib/libnx_min/nx/lib\libnx_min.a(virtmem.o)
 .debug_abbrev  0x0000000000000000      0x2cf S:/UltimateEnvironment/code-mod-example/param-replace/code-mod-framework/lib/libnx_min/nx/lib\libnx_min.a(virtmem.o)
 .debug_loc     0x0000000000000000      0x668 S:/UltimateEnvironment/code-mod-example/param-replace/code-mod-framework/lib/libnx_min/nx/lib\libnx_min.a(virtmem.o)
 .debug_aranges
                0x0000000000000000       0x70 S:/UltimateEnvironment/code-mod-example/param-replace/code-mod-framework/lib/libnx_min/nx/lib\libnx_min.a(virtmem.o)
 .debug_ranges  0x0000000000000000      0x170 S:/UltimateEnvironment/code-mod-example/param-replace/code-mod-framework/lib/libnx_min/nx/lib\libnx_min.a(virtmem.o)
 .debug_line    0x0000000000000000      0x60f S:/UltimateEnvironment/code-mod-example/param-replace/code-mod-framework/lib/libnx_min/nx/lib\libnx_min.a(virtmem.o)
 .debug_str     0x0000000000000000      0xbfa S:/UltimateEnvironment/code-mod-example/param-replace/code-mod-framework/lib/libnx_min/nx/lib\libnx_min.a(virtmem.o)
 .comment       0x0000000000000000       0x23 S:/UltimateEnvironment/code-mod-example/param-replace/code-mod-framework/lib/libnx_min/nx/lib\libnx_min.a(virtmem.o)
 .text          0x0000000000000000        0x0 S:/UltimateEnvironment/code-mod-example/param-replace/code-mod-framework/lib/libnx_min/nx/lib\libnx_min.a(mutex.o)
 .data          0x0000000000000000        0x0 S:/UltimateEnvironment/code-mod-example/param-replace/code-mod-framework/lib/libnx_min/nx/lib\libnx_min.a(mutex.o)
 .bss           0x0000000000000000        0x0 S:/UltimateEnvironment/code-mod-example/param-replace/code-mod-framework/lib/libnx_min/nx/lib\libnx_min.a(mutex.o)
 .debug_info    0x0000000000000000      0x782 S:/UltimateEnvironment/code-mod-example/param-replace/code-mod-framework/lib/libnx_min/nx/lib\libnx_min.a(mutex.o)
 .debug_abbrev  0x0000000000000000      0x1fe S:/UltimateEnvironment/code-mod-example/param-replace/code-mod-framework/lib/libnx_min/nx/lib\libnx_min.a(mutex.o)
 .debug_loc     0x0000000000000000      0x3d1 S:/UltimateEnvironment/code-mod-example/param-replace/code-mod-framework/lib/libnx_min/nx/lib\libnx_min.a(mutex.o)
 .debug_aranges
                0x0000000000000000       0x80 S:/UltimateEnvironment/code-mod-example/param-replace/code-mod-framework/lib/libnx_min/nx/lib\libnx_min.a(mutex.o)
 .debug_ranges  0x0000000000000000      0x470 S:/UltimateEnvironment/code-mod-example/param-replace/code-mod-framework/lib/libnx_min/nx/lib\libnx_min.a(mutex.o)
 .debug_line    0x0000000000000000      0x5e6 S:/UltimateEnvironment/code-mod-example/param-replace/code-mod-framework/lib/libnx_min/nx/lib\libnx_min.a(mutex.o)
 .debug_str     0x0000000000000000      0x3a4 S:/UltimateEnvironment/code-mod-example/param-replace/code-mod-framework/lib/libnx_min/nx/lib\libnx_min.a(mutex.o)
 .comment       0x0000000000000000       0x23 S:/UltimateEnvironment/code-mod-example/param-replace/code-mod-framework/lib/libnx_min/nx/lib\libnx_min.a(mutex.o)
 .text          0x0000000000000000        0x0 S:/UltimateEnvironment/code-mod-example/param-replace/code-mod-framework/lib/libnx_min/nx/lib\libnx_min.a(fs.o)
 .data          0x0000000000000000        0x0 S:/UltimateEnvironment/code-mod-example/param-replace/code-mod-framework/lib/libnx_min/nx/lib\libnx_min.a(fs.o)
 .bss           0x0000000000000000        0x0 S:/UltimateEnvironment/code-mod-example/param-replace/code-mod-framework/lib/libnx_min/nx/lib\libnx_min.a(fs.o)
 .debug_info    0x0000000000000000    0x148db S:/UltimateEnvironment/code-mod-example/param-replace/code-mod-framework/lib/libnx_min/nx/lib\libnx_min.a(fs.o)
 .debug_abbrev  0x0000000000000000      0x6cd S:/UltimateEnvironment/code-mod-example/param-replace/code-mod-framework/lib/libnx_min/nx/lib\libnx_min.a(fs.o)
 .debug_loc     0x0000000000000000    0x23e9b S:/UltimateEnvironment/code-mod-example/param-replace/code-mod-framework/lib/libnx_min/nx/lib\libnx_min.a(fs.o)
 .debug_aranges
                0x0000000000000000      0x4a0 S:/UltimateEnvironment/code-mod-example/param-replace/code-mod-framework/lib/libnx_min/nx/lib\libnx_min.a(fs.o)
 .debug_ranges  0x0000000000000000     0xb5b0 S:/UltimateEnvironment/code-mod-example/param-replace/code-mod-framework/lib/libnx_min/nx/lib\libnx_min.a(fs.o)
 .debug_line    0x0000000000000000     0xb1b2 S:/UltimateEnvironment/code-mod-example/param-replace/code-mod-framework/lib/libnx_min/nx/lib\libnx_min.a(fs.o)
 .debug_str     0x0000000000000000     0x23e6 S:/UltimateEnvironment/code-mod-example/param-replace/code-mod-framework/lib/libnx_min/nx/lib\libnx_min.a(fs.o)
 .comment       0x0000000000000000       0x23 S:/UltimateEnvironment/code-mod-example/param-replace/code-mod-framework/lib/libnx_min/nx/lib\libnx_min.a(fs.o)
 .text          0x0000000000000000        0x0 S:/UltimateEnvironment/code-mod-example/param-replace/code-mod-framework/lib/libnx_min/nx/lib\libnx_min.a(set.o)
 .data          0x0000000000000000        0x0 S:/UltimateEnvironment/code-mod-example/param-replace/code-mod-framework/lib/libnx_min/nx/lib\libnx_min.a(set.o)
 .bss           0x0000000000000000        0x0 S:/UltimateEnvironment/code-mod-example/param-replace/code-mod-framework/lib/libnx_min/nx/lib\libnx_min.a(set.o)
 .debug_info    0x0000000000000000     0x692b S:/UltimateEnvironment/code-mod-example/param-replace/code-mod-framework/lib/libnx_min/nx/lib\libnx_min.a(set.o)
 .debug_abbrev  0x0000000000000000      0x5eb S:/UltimateEnvironment/code-mod-example/param-replace/code-mod-framework/lib/libnx_min/nx/lib\libnx_min.a(set.o)
 .debug_loc     0x0000000000000000     0xc88f S:/UltimateEnvironment/code-mod-example/param-replace/code-mod-framework/lib/libnx_min/nx/lib\libnx_min.a(set.o)
 .debug_aranges
                0x0000000000000000      0x1d0 S:/UltimateEnvironment/code-mod-example/param-replace/code-mod-framework/lib/libnx_min/nx/lib\libnx_min.a(set.o)
 .debug_ranges  0x0000000000000000     0x25f0 S:/UltimateEnvironment/code-mod-example/param-replace/code-mod-framework/lib/libnx_min/nx/lib\libnx_min.a(set.o)
 .debug_line    0x0000000000000000     0x3101 S:/UltimateEnvironment/code-mod-example/param-replace/code-mod-framework/lib/libnx_min/nx/lib\libnx_min.a(set.o)
 .debug_str     0x0000000000000000     0x1b23 S:/UltimateEnvironment/code-mod-example/param-replace/code-mod-framework/lib/libnx_min/nx/lib\libnx_min.a(set.o)
 .comment       0x0000000000000000       0x23 S:/UltimateEnvironment/code-mod-example/param-replace/code-mod-framework/lib/libnx_min/nx/lib\libnx_min.a(set.o)
 .text          0x0000000000000000        0x0 S:/UltimateEnvironment/code-mod-example/param-replace/code-mod-framework/lib/libnx_min/nx/lib\libnx_min.a(fatal.o)
 .data          0x0000000000000000        0x0 S:/UltimateEnvironment/code-mod-example/param-replace/code-mod-framework/lib/libnx_min/nx/lib\libnx_min.a(fatal.o)
 .bss           0x0000000000000000        0x0 S:/UltimateEnvironment/code-mod-example/param-replace/code-mod-framework/lib/libnx_min/nx/lib\libnx_min.a(fatal.o)
 .debug_info    0x0000000000000000      0xd6e S:/UltimateEnvironment/code-mod-example/param-replace/code-mod-framework/lib/libnx_min/nx/lib\libnx_min.a(fatal.o)
 .debug_abbrev  0x0000000000000000      0x393 S:/UltimateEnvironment/code-mod-example/param-replace/code-mod-framework/lib/libnx_min/nx/lib\libnx_min.a(fatal.o)
 .debug_loc     0x0000000000000000      0x895 S:/UltimateEnvironment/code-mod-example/param-replace/code-mod-framework/lib/libnx_min/nx/lib\libnx_min.a(fatal.o)
 .debug_aranges
                0x0000000000000000       0x60 S:/UltimateEnvironment/code-mod-example/param-replace/code-mod-framework/lib/libnx_min/nx/lib\libnx_min.a(fatal.o)
 .debug_ranges  0x0000000000000000      0x240 S:/UltimateEnvironment/code-mod-example/param-replace/code-mod-framework/lib/libnx_min/nx/lib\libnx_min.a(fatal.o)
 .debug_line    0x0000000000000000      0x5c9 S:/UltimateEnvironment/code-mod-example/param-replace/code-mod-framework/lib/libnx_min/nx/lib\libnx_min.a(fatal.o)
 .debug_str     0x0000000000000000      0x763 S:/UltimateEnvironment/code-mod-example/param-replace/code-mod-framework/lib/libnx_min/nx/lib\libnx_min.a(fatal.o)
 .comment       0x0000000000000000       0x23 S:/UltimateEnvironment/code-mod-example/param-replace/code-mod-framework/lib/libnx_min/nx/lib\libnx_min.a(fatal.o)
 .text          0x0000000000000000        0x0 S:/UltimateEnvironment/code-mod-example/param-replace/code-mod-framework/lib/libnx_min/nx/lib\libnx_min.a(sm.o)
 .data          0x0000000000000000        0x0 S:/UltimateEnvironment/code-mod-example/param-replace/code-mod-framework/lib/libnx_min/nx/lib\libnx_min.a(sm.o)
 .bss           0x0000000000000000        0x0 S:/UltimateEnvironment/code-mod-example/param-replace/code-mod-framework/lib/libnx_min/nx/lib\libnx_min.a(sm.o)
 .debug_info    0x0000000000000000     0x34eb S:/UltimateEnvironment/code-mod-example/param-replace/code-mod-framework/lib/libnx_min/nx/lib\libnx_min.a(sm.o)
 .debug_abbrev  0x0000000000000000      0x4c4 S:/UltimateEnvironment/code-mod-example/param-replace/code-mod-framework/lib/libnx_min/nx/lib\libnx_min.a(sm.o)
 .debug_loc     0x0000000000000000     0x5a55 S:/UltimateEnvironment/code-mod-example/param-replace/code-mod-framework/lib/libnx_min/nx/lib\libnx_min.a(sm.o)
 .debug_aranges
                0x0000000000000000       0xe0 S:/UltimateEnvironment/code-mod-example/param-replace/code-mod-framework/lib/libnx_min/nx/lib\libnx_min.a(sm.o)
 .debug_ranges  0x0000000000000000     0x1160 S:/UltimateEnvironment/code-mod-example/param-replace/code-mod-framework/lib/libnx_min/nx/lib\libnx_min.a(sm.o)
 .debug_line    0x0000000000000000     0x175a S:/UltimateEnvironment/code-mod-example/param-replace/code-mod-framework/lib/libnx_min/nx/lib\libnx_min.a(sm.o)
 .debug_str     0x0000000000000000     0x150b S:/UltimateEnvironment/code-mod-example/param-replace/code-mod-framework/lib/libnx_min/nx/lib\libnx_min.a(sm.o)
 .comment       0x0000000000000000       0x23 S:/UltimateEnvironment/code-mod-example/param-replace/code-mod-framework/lib/libnx_min/nx/lib\libnx_min.a(sm.o)
 .text          0x0000000000000000        0x0 S:/UltimateEnvironment/code-mod-example/param-replace/code-mod-framework/lib/libnx_min/nx/lib\libnx_min.a(hid.o)
 .data          0x0000000000000000        0x0 S:/UltimateEnvironment/code-mod-example/param-replace/code-mod-framework/lib/libnx_min/nx/lib\libnx_min.a(hid.o)
 .bss           0x0000000000000000        0x0 S:/UltimateEnvironment/code-mod-example/param-replace/code-mod-framework/lib/libnx_min/nx/lib\libnx_min.a(hid.o)
 .debug_info    0x0000000000000000     0xb19f S:/UltimateEnvironment/code-mod-example/param-replace/code-mod-framework/lib/libnx_min/nx/lib\libnx_min.a(hid.o)
 .debug_abbrev  0x0000000000000000      0x743 S:/UltimateEnvironment/code-mod-example/param-replace/code-mod-framework/lib/libnx_min/nx/lib\libnx_min.a(hid.o)
 .debug_loc     0x0000000000000000    0x1192e S:/UltimateEnvironment/code-mod-example/param-replace/code-mod-framework/lib/libnx_min/nx/lib\libnx_min.a(hid.o)
 .debug_aranges
                0x0000000000000000      0x450 S:/UltimateEnvironment/code-mod-example/param-replace/code-mod-framework/lib/libnx_min/nx/lib\libnx_min.a(hid.o)
 .debug_ranges  0x0000000000000000     0x3140 S:/UltimateEnvironment/code-mod-example/param-replace/code-mod-framework/lib/libnx_min/nx/lib\libnx_min.a(hid.o)
 .debug_line    0x0000000000000000     0x5037 S:/UltimateEnvironment/code-mod-example/param-replace/code-mod-framework/lib/libnx_min/nx/lib\libnx_min.a(hid.o)
 .debug_str     0x0000000000000000     0x338c S:/UltimateEnvironment/code-mod-example/param-replace/code-mod-framework/lib/libnx_min/nx/lib\libnx_min.a(hid.o)
 .comment       0x0000000000000000       0x23 S:/UltimateEnvironment/code-mod-example/param-replace/code-mod-framework/lib/libnx_min/nx/lib\libnx_min.a(hid.o)
 .text          0x0000000000000000        0x0 S:/UltimateEnvironment/code-mod-example/param-replace/code-mod-framework/lib/libnx_min/nx/lib\libnx_min.a(time.o)
 .data          0x0000000000000000        0x0 S:/UltimateEnvironment/code-mod-example/param-replace/code-mod-framework/lib/libnx_min/nx/lib\libnx_min.a(time.o)
 .bss           0x0000000000000000        0x0 S:/UltimateEnvironment/code-mod-example/param-replace/code-mod-framework/lib/libnx_min/nx/lib\libnx_min.a(time.o)
 .debug_info    0x0000000000000000     0x2f93 S:/UltimateEnvironment/code-mod-example/param-replace/code-mod-framework/lib/libnx_min/nx/lib\libnx_min.a(time.o)
 .debug_abbrev  0x0000000000000000      0x544 S:/UltimateEnvironment/code-mod-example/param-replace/code-mod-framework/lib/libnx_min/nx/lib\libnx_min.a(time.o)
 .debug_loc     0x0000000000000000     0x36b5 S:/UltimateEnvironment/code-mod-example/param-replace/code-mod-framework/lib/libnx_min/nx/lib\libnx_min.a(time.o)
 .debug_aranges
                0x0000000000000000       0xa0 S:/UltimateEnvironment/code-mod-example/param-replace/code-mod-framework/lib/libnx_min/nx/lib\libnx_min.a(time.o)
 .debug_ranges  0x0000000000000000      0xa70 S:/UltimateEnvironment/code-mod-example/param-replace/code-mod-framework/lib/libnx_min/nx/lib\libnx_min.a(time.o)
 .debug_line    0x0000000000000000     0x10ba S:/UltimateEnvironment/code-mod-example/param-replace/code-mod-framework/lib/libnx_min/nx/lib\libnx_min.a(time.o)
 .debug_str     0x0000000000000000     0x151b S:/UltimateEnvironment/code-mod-example/param-replace/code-mod-framework/lib/libnx_min/nx/lib\libnx_min.a(time.o)
 .comment       0x0000000000000000       0x23 S:/UltimateEnvironment/code-mod-example/param-replace/code-mod-framework/lib/libnx_min/nx/lib\libnx_min.a(time.o)
 .text          0x0000000000000000        0x0 S:/UltimateEnvironment/code-mod-example/param-replace/code-mod-framework/lib/libnx_min/nx/lib\libnx_min.a(applet.o)
 .data          0x0000000000000000        0x0 S:/UltimateEnvironment/code-mod-example/param-replace/code-mod-framework/lib/libnx_min/nx/lib\libnx_min.a(applet.o)
 .bss           0x0000000000000000        0x0 S:/UltimateEnvironment/code-mod-example/param-replace/code-mod-framework/lib/libnx_min/nx/lib\libnx_min.a(applet.o)
 .data.__nx_applet_type
                0x0000000000000000        0x4 S:/UltimateEnvironment/code-mod-example/param-replace/code-mod-framework/lib/libnx_min/nx/lib\libnx_min.a(applet.o)
 .debug_info    0x0000000000000000    0x1572b S:/UltimateEnvironment/code-mod-example/param-replace/code-mod-framework/lib/libnx_min/nx/lib\libnx_min.a(applet.o)
 .debug_abbrev  0x0000000000000000      0x76e S:/UltimateEnvironment/code-mod-example/param-replace/code-mod-framework/lib/libnx_min/nx/lib\libnx_min.a(applet.o)
 .debug_loc     0x0000000000000000    0x20f04 S:/UltimateEnvironment/code-mod-example/param-replace/code-mod-framework/lib/libnx_min/nx/lib\libnx_min.a(applet.o)
 .debug_aranges
                0x0000000000000000      0x730 S:/UltimateEnvironment/code-mod-example/param-replace/code-mod-framework/lib/libnx_min/nx/lib\libnx_min.a(applet.o)
 .debug_ranges  0x0000000000000000     0x8b40 S:/UltimateEnvironment/code-mod-example/param-replace/code-mod-framework/lib/libnx_min/nx/lib\libnx_min.a(applet.o)
 .debug_line    0x0000000000000000     0xadb0 S:/UltimateEnvironment/code-mod-example/param-replace/code-mod-framework/lib/libnx_min/nx/lib\libnx_min.a(applet.o)
 .debug_str     0x0000000000000000     0x30c0 S:/UltimateEnvironment/code-mod-example/param-replace/code-mod-framework/lib/libnx_min/nx/lib\libnx_min.a(applet.o)
 .comment       0x0000000000000000       0x23 S:/UltimateEnvironment/code-mod-example/param-replace/code-mod-framework/lib/libnx_min/nx/lib\libnx_min.a(applet.o)
 .text          0x0000000000000000        0x0 S:/UltimateEnvironment/code-mod-example/param-replace/code-mod-framework/lib/libnx_min/nx/lib\libnx_min.a(newlib.o)
 .data          0x0000000000000000        0x0 S:/UltimateEnvironment/code-mod-example/param-replace/code-mod-framework/lib/libnx_min/nx/lib\libnx_min.a(newlib.o)
 .bss           0x0000000000000000        0x0 S:/UltimateEnvironment/code-mod-example/param-replace/code-mod-framework/lib/libnx_min/nx/lib\libnx_min.a(newlib.o)
 .debug_info    0x0000000000000000     0x2bc2 S:/UltimateEnvironment/code-mod-example/param-replace/code-mod-framework/lib/libnx_min/nx/lib\libnx_min.a(newlib.o)
 .debug_abbrev  0x0000000000000000      0x571 S:/UltimateEnvironment/code-mod-example/param-replace/code-mod-framework/lib/libnx_min/nx/lib\libnx_min.a(newlib.o)
 .debug_loc     0x0000000000000000     0x192e S:/UltimateEnvironment/code-mod-example/param-replace/code-mod-framework/lib/libnx_min/nx/lib\libnx_min.a(newlib.o)
 .debug_aranges
                0x0000000000000000      0x1f0 S:/UltimateEnvironment/code-mod-example/param-replace/code-mod-framework/lib/libnx_min/nx/lib\libnx_min.a(newlib.o)
 .debug_ranges  0x0000000000000000      0x4e0 S:/UltimateEnvironment/code-mod-example/param-replace/code-mod-framework/lib/libnx_min/nx/lib\libnx_min.a(newlib.o)
 .debug_line    0x0000000000000000     0x10e9 S:/UltimateEnvironment/code-mod-example/param-replace/code-mod-framework/lib/libnx_min/nx/lib\libnx_min.a(newlib.o)
 .debug_str     0x0000000000000000     0x18ae S:/UltimateEnvironment/code-mod-example/param-replace/code-mod-framework/lib/libnx_min/nx/lib\libnx_min.a(newlib.o)
 .comment       0x0000000000000000       0x23 S:/UltimateEnvironment/code-mod-example/param-replace/code-mod-framework/lib/libnx_min/nx/lib\libnx_min.a(newlib.o)
 .text          0x0000000000000000        0x0 S:/UltimateEnvironment/code-mod-example/param-replace/code-mod-framework/lib/libnx_min/nx/lib\libnx_min.a(thread.o)
 .data          0x0000000000000000        0x0 S:/UltimateEnvironment/code-mod-example/param-replace/code-mod-framework/lib/libnx_min/nx/lib\libnx_min.a(thread.o)
 .bss           0x0000000000000000        0x0 S:/UltimateEnvironment/code-mod-example/param-replace/code-mod-framework/lib/libnx_min/nx/lib\libnx_min.a(thread.o)
 .debug_info    0x0000000000000000     0x1a68 S:/UltimateEnvironment/code-mod-example/param-replace/code-mod-framework/lib/libnx_min/nx/lib\libnx_min.a(thread.o)
 .debug_abbrev  0x0000000000000000      0x492 S:/UltimateEnvironment/code-mod-example/param-replace/code-mod-framework/lib/libnx_min/nx/lib\libnx_min.a(thread.o)
 .debug_loc     0x0000000000000000      0xbd2 S:/UltimateEnvironment/code-mod-example/param-replace/code-mod-framework/lib/libnx_min/nx/lib\libnx_min.a(thread.o)
 .debug_aranges
                0x0000000000000000      0x100 S:/UltimateEnvironment/code-mod-example/param-replace/code-mod-framework/lib/libnx_min/nx/lib\libnx_min.a(thread.o)
 .debug_ranges  0x0000000000000000      0x320 S:/UltimateEnvironment/code-mod-example/param-replace/code-mod-framework/lib/libnx_min/nx/lib\libnx_min.a(thread.o)
 .debug_line    0x0000000000000000      0xa2c S:/UltimateEnvironment/code-mod-example/param-replace/code-mod-framework/lib/libnx_min/nx/lib\libnx_min.a(thread.o)
 .debug_str     0x0000000000000000      0xfee S:/UltimateEnvironment/code-mod-example/param-replace/code-mod-framework/lib/libnx_min/nx/lib\libnx_min.a(thread.o)
 .comment       0x0000000000000000       0x23 S:/UltimateEnvironment/code-mod-example/param-replace/code-mod-framework/lib/libnx_min/nx/lib\libnx_min.a(thread.o)
 .text          0x0000000000000000        0x0 S:/UltimateEnvironment/code-mod-example/param-replace/code-mod-framework/lib/libnx_min/nx/lib\libnx_min.a(condvar.o)
 .data          0x0000000000000000        0x0 S:/UltimateEnvironment/code-mod-example/param-replace/code-mod-framework/lib/libnx_min/nx/lib\libnx_min.a(condvar.o)
 .bss           0x0000000000000000        0x0 S:/UltimateEnvironment/code-mod-example/param-replace/code-mod-framework/lib/libnx_min/nx/lib\libnx_min.a(condvar.o)
 .debug_info    0x0000000000000000      0x396 S:/UltimateEnvironment/code-mod-example/param-replace/code-mod-framework/lib/libnx_min/nx/lib\libnx_min.a(condvar.o)
 .debug_abbrev  0x0000000000000000      0x1aa S:/UltimateEnvironment/code-mod-example/param-replace/code-mod-framework/lib/libnx_min/nx/lib\libnx_min.a(condvar.o)
 .debug_loc     0x0000000000000000      0x1c1 S:/UltimateEnvironment/code-mod-example/param-replace/code-mod-framework/lib/libnx_min/nx/lib\libnx_min.a(condvar.o)
 .debug_aranges
                0x0000000000000000       0x30 S:/UltimateEnvironment/code-mod-example/param-replace/code-mod-framework/lib/libnx_min/nx/lib\libnx_min.a(condvar.o)
 .debug_ranges  0x0000000000000000       0x60 S:/UltimateEnvironment/code-mod-example/param-replace/code-mod-framework/lib/libnx_min/nx/lib\libnx_min.a(condvar.o)
 .debug_line    0x0000000000000000      0x398 S:/UltimateEnvironment/code-mod-example/param-replace/code-mod-framework/lib/libnx_min/nx/lib\libnx_min.a(condvar.o)
 .debug_str     0x0000000000000000      0x350 S:/UltimateEnvironment/code-mod-example/param-replace/code-mod-framework/lib/libnx_min/nx/lib\libnx_min.a(condvar.o)
 .comment       0x0000000000000000       0x23 S:/UltimateEnvironment/code-mod-example/param-replace/code-mod-framework/lib/libnx_min/nx/lib\libnx_min.a(condvar.o)
 .text          0x0000000000000000        0x0 S:/UltimateEnvironment/code-mod-example/param-replace/code-mod-framework/lib/libnx_min/nx/lib\libnx_min.a(event.o)
 .data          0x0000000000000000        0x0 S:/UltimateEnvironment/code-mod-example/param-replace/code-mod-framework/lib/libnx_min/nx/lib\libnx_min.a(event.o)
 .bss           0x0000000000000000        0x0 S:/UltimateEnvironment/code-mod-example/param-replace/code-mod-framework/lib/libnx_min/nx/lib\libnx_min.a(event.o)
 .debug_info    0x0000000000000000      0x702 S:/UltimateEnvironment/code-mod-example/param-replace/code-mod-framework/lib/libnx_min/nx/lib\libnx_min.a(event.o)
 .debug_abbrev  0x0000000000000000      0x28b S:/UltimateEnvironment/code-mod-example/param-replace/code-mod-framework/lib/libnx_min/nx/lib\libnx_min.a(event.o)
 .debug_loc     0x0000000000000000      0x2e3 S:/UltimateEnvironment/code-mod-example/param-replace/code-mod-framework/lib/libnx_min/nx/lib\libnx_min.a(event.o)
 .debug_aranges
                0x0000000000000000       0x80 S:/UltimateEnvironment/code-mod-example/param-replace/code-mod-framework/lib/libnx_min/nx/lib\libnx_min.a(event.o)
 .debug_ranges  0x0000000000000000       0xe0 S:/UltimateEnvironment/code-mod-example/param-replace/code-mod-framework/lib/libnx_min/nx/lib\libnx_min.a(event.o)
 .debug_line    0x0000000000000000      0x3a9 S:/UltimateEnvironment/code-mod-example/param-replace/code-mod-framework/lib/libnx_min/nx/lib\libnx_min.a(event.o)
 .debug_str     0x0000000000000000      0x950 S:/UltimateEnvironment/code-mod-example/param-replace/code-mod-framework/lib/libnx_min/nx/lib\libnx_min.a(event.o)
 .comment       0x0000000000000000       0x23 S:/UltimateEnvironment/code-mod-example/param-replace/code-mod-framework/lib/libnx_min/nx/lib\libnx_min.a(event.o)
 .text          0x0000000000000000        0x0 S:/UltimateEnvironment/code-mod-example/param-replace/code-mod-framework/lib/libnx_min/nx/lib\libnx_min.a(tmem.o)
 .data          0x0000000000000000        0x0 S:/UltimateEnvironment/code-mod-example/param-replace/code-mod-framework/lib/libnx_min/nx/lib\libnx_min.a(tmem.o)
 .bss           0x0000000000000000        0x0 S:/UltimateEnvironment/code-mod-example/param-replace/code-mod-framework/lib/libnx_min/nx/lib\libnx_min.a(tmem.o)
 .debug_info    0x0000000000000000     0x100a S:/UltimateEnvironment/code-mod-example/param-replace/code-mod-framework/lib/libnx_min/nx/lib\libnx_min.a(tmem.o)
 .debug_abbrev  0x0000000000000000      0x3a2 S:/UltimateEnvironment/code-mod-example/param-replace/code-mod-framework/lib/libnx_min/nx/lib\libnx_min.a(tmem.o)
 .debug_loc     0x0000000000000000      0x6e2 S:/UltimateEnvironment/code-mod-example/param-replace/code-mod-framework/lib/libnx_min/nx/lib\libnx_min.a(tmem.o)
 .debug_aranges
                0x0000000000000000       0x80 S:/UltimateEnvironment/code-mod-example/param-replace/code-mod-framework/lib/libnx_min/nx/lib\libnx_min.a(tmem.o)
 .debug_ranges  0x0000000000000000       0xf0 S:/UltimateEnvironment/code-mod-example/param-replace/code-mod-framework/lib/libnx_min/nx/lib\libnx_min.a(tmem.o)
 .debug_line    0x0000000000000000      0x507 S:/UltimateEnvironment/code-mod-example/param-replace/code-mod-framework/lib/libnx_min/nx/lib\libnx_min.a(tmem.o)
 .debug_str     0x0000000000000000      0xd4f S:/UltimateEnvironment/code-mod-example/param-replace/code-mod-framework/lib/libnx_min/nx/lib\libnx_min.a(tmem.o)
 .comment       0x0000000000000000       0x23 S:/UltimateEnvironment/code-mod-example/param-replace/code-mod-framework/lib/libnx_min/nx/lib\libnx_min.a(tmem.o)
 .text          0x0000000000000000        0x0 S:/UltimateEnvironment/code-mod-example/param-replace/code-mod-framework/lib/libnx_min/nx/lib\libnx_min.a(rwlock.o)
 .data          0x0000000000000000        0x0 S:/UltimateEnvironment/code-mod-example/param-replace/code-mod-framework/lib/libnx_min/nx/lib\libnx_min.a(rwlock.o)
 .bss           0x0000000000000000        0x0 S:/UltimateEnvironment/code-mod-example/param-replace/code-mod-framework/lib/libnx_min/nx/lib\libnx_min.a(rwlock.o)
 .debug_info    0x0000000000000000      0x659 S:/UltimateEnvironment/code-mod-example/param-replace/code-mod-framework/lib/libnx_min/nx/lib\libnx_min.a(rwlock.o)
 .debug_abbrev  0x0000000000000000      0x1cc S:/UltimateEnvironment/code-mod-example/param-replace/code-mod-framework/lib/libnx_min/nx/lib\libnx_min.a(rwlock.o)
 .debug_loc     0x0000000000000000      0x4ab S:/UltimateEnvironment/code-mod-example/param-replace/code-mod-framework/lib/libnx_min/nx/lib\libnx_min.a(rwlock.o)
 .debug_aranges
                0x0000000000000000       0x70 S:/UltimateEnvironment/code-mod-example/param-replace/code-mod-framework/lib/libnx_min/nx/lib\libnx_min.a(rwlock.o)
 .debug_ranges  0x0000000000000000      0x130 S:/UltimateEnvironment/code-mod-example/param-replace/code-mod-framework/lib/libnx_min/nx/lib\libnx_min.a(rwlock.o)
 .debug_line    0x0000000000000000      0x3eb S:/UltimateEnvironment/code-mod-example/param-replace/code-mod-framework/lib/libnx_min/nx/lib\libnx_min.a(rwlock.o)
 .debug_str     0x0000000000000000      0x346 S:/UltimateEnvironment/code-mod-example/param-replace/code-mod-framework/lib/libnx_min/nx/lib\libnx_min.a(rwlock.o)
 .comment       0x0000000000000000       0x23 S:/UltimateEnvironment/code-mod-example/param-replace/code-mod-framework/lib/libnx_min/nx/lib\libnx_min.a(rwlock.o)
 .text          0x0000000000000000        0x0 S:/UltimateEnvironment/code-mod-example/param-replace/code-mod-framework/lib/libnx_min/nx/lib\libnx_min.a(wait.o)
 .data          0x0000000000000000        0x0 S:/UltimateEnvironment/code-mod-example/param-replace/code-mod-framework/lib/libnx_min/nx/lib\libnx_min.a(wait.o)
 .bss           0x0000000000000000        0x0 S:/UltimateEnvironment/code-mod-example/param-replace/code-mod-framework/lib/libnx_min/nx/lib\libnx_min.a(wait.o)
 .debug_info    0x0000000000000000      0xe46 S:/UltimateEnvironment/code-mod-example/param-replace/code-mod-framework/lib/libnx_min/nx/lib\libnx_min.a(wait.o)
 .debug_abbrev  0x0000000000000000      0x35d S:/UltimateEnvironment/code-mod-example/param-replace/code-mod-framework/lib/libnx_min/nx/lib\libnx_min.a(wait.o)
 .debug_loc     0x0000000000000000      0xeb6 S:/UltimateEnvironment/code-mod-example/param-replace/code-mod-framework/lib/libnx_min/nx/lib\libnx_min.a(wait.o)
 .debug_aranges
                0x0000000000000000       0x60 S:/UltimateEnvironment/code-mod-example/param-replace/code-mod-framework/lib/libnx_min/nx/lib\libnx_min.a(wait.o)
 .debug_ranges  0x0000000000000000      0x290 S:/UltimateEnvironment/code-mod-example/param-replace/code-mod-framework/lib/libnx_min/nx/lib\libnx_min.a(wait.o)
 .debug_line    0x0000000000000000      0x7bb S:/UltimateEnvironment/code-mod-example/param-replace/code-mod-framework/lib/libnx_min/nx/lib\libnx_min.a(wait.o)
 .debug_str     0x0000000000000000      0xa07 S:/UltimateEnvironment/code-mod-example/param-replace/code-mod-framework/lib/libnx_min/nx/lib\libnx_min.a(wait.o)
 .comment       0x0000000000000000       0x23 S:/UltimateEnvironment/code-mod-example/param-replace/code-mod-framework/lib/libnx_min/nx/lib\libnx_min.a(wait.o)
 .text          0x0000000000000000        0x0 S:/UltimateEnvironment/code-mod-example/param-replace/code-mod-framework/lib/libnx_min/nx/lib\libnx_min.a(shmem.o)
 .data          0x0000000000000000        0x0 S:/UltimateEnvironment/code-mod-example/param-replace/code-mod-framework/lib/libnx_min/nx/lib\libnx_min.a(shmem.o)
 .bss           0x0000000000000000        0x0 S:/UltimateEnvironment/code-mod-example/param-replace/code-mod-framework/lib/libnx_min/nx/lib\libnx_min.a(shmem.o)
 .debug_info    0x0000000000000000      0xe91 S:/UltimateEnvironment/code-mod-example/param-replace/code-mod-framework/lib/libnx_min/nx/lib\libnx_min.a(shmem.o)
 .debug_abbrev  0x0000000000000000      0x377 S:/UltimateEnvironment/code-mod-example/param-replace/code-mod-framework/lib/libnx_min/nx/lib\libnx_min.a(shmem.o)
 .debug_loc     0x0000000000000000      0x442 S:/UltimateEnvironment/code-mod-example/param-replace/code-mod-framework/lib/libnx_min/nx/lib\libnx_min.a(shmem.o)
 .debug_aranges
                0x0000000000000000       0x70 S:/UltimateEnvironment/code-mod-example/param-replace/code-mod-framework/lib/libnx_min/nx/lib\libnx_min.a(shmem.o)
 .debug_ranges  0x0000000000000000       0xe0 S:/UltimateEnvironment/code-mod-example/param-replace/code-mod-framework/lib/libnx_min/nx/lib\libnx_min.a(shmem.o)
 .debug_line    0x0000000000000000      0x401 S:/UltimateEnvironment/code-mod-example/param-replace/code-mod-framework/lib/libnx_min/nx/lib\libnx_min.a(shmem.o)
 .debug_str     0x0000000000000000      0xc9a S:/UltimateEnvironment/code-mod-example/param-replace/code-mod-framework/lib/libnx_min/nx/lib\libnx_min.a(shmem.o)
 .comment       0x0000000000000000       0x23 S:/UltimateEnvironment/code-mod-example/param-replace/code-mod-framework/lib/libnx_min/nx/lib\libnx_min.a(shmem.o)
 .text          0x0000000000000000        0x0 S:/UltimateEnvironment/code-mod-example/param-replace/code-mod-framework/lib/libnx_min/nx/lib\libnx_min.a(detect.o)
 .data          0x0000000000000000        0x0 S:/UltimateEnvironment/code-mod-example/param-replace/code-mod-framework/lib/libnx_min/nx/lib\libnx_min.a(detect.o)
 .bss           0x0000000000000000        0x0 S:/UltimateEnvironment/code-mod-example/param-replace/code-mod-framework/lib/libnx_min/nx/lib\libnx_min.a(detect.o)
 .debug_info    0x0000000000000000     0x103a S:/UltimateEnvironment/code-mod-example/param-replace/code-mod-framework/lib/libnx_min/nx/lib\libnx_min.a(detect.o)
 .debug_abbrev  0x0000000000000000      0x31e S:/UltimateEnvironment/code-mod-example/param-replace/code-mod-framework/lib/libnx_min/nx/lib\libnx_min.a(detect.o)
 .debug_loc     0x0000000000000000       0xb3 S:/UltimateEnvironment/code-mod-example/param-replace/code-mod-framework/lib/libnx_min/nx/lib\libnx_min.a(detect.o)
 .debug_aranges
                0x0000000000000000       0x60 S:/UltimateEnvironment/code-mod-example/param-replace/code-mod-framework/lib/libnx_min/nx/lib\libnx_min.a(detect.o)
 .debug_ranges  0x0000000000000000      0x130 S:/UltimateEnvironment/code-mod-example/param-replace/code-mod-framework/lib/libnx_min/nx/lib\libnx_min.a(detect.o)
 .debug_line    0x0000000000000000      0x48e S:/UltimateEnvironment/code-mod-example/param-replace/code-mod-framework/lib/libnx_min/nx/lib\libnx_min.a(detect.o)
 .debug_str     0x0000000000000000      0xea7 S:/UltimateEnvironment/code-mod-example/param-replace/code-mod-framework/lib/libnx_min/nx/lib\libnx_min.a(detect.o)
 .comment       0x0000000000000000       0x23 S:/UltimateEnvironment/code-mod-example/param-replace/code-mod-framework/lib/libnx_min/nx/lib\libnx_min.a(detect.o)
 .text          0x0000000000000000        0x0 S:/UltimateEnvironment/code-mod-example/param-replace/code-mod-framework/lib/libnx_min/nx/lib\libnx_min.a(apm.o)
 .data          0x0000000000000000        0x0 S:/UltimateEnvironment/code-mod-example/param-replace/code-mod-framework/lib/libnx_min/nx/lib\libnx_min.a(apm.o)
 .bss           0x0000000000000000        0x0 S:/UltimateEnvironment/code-mod-example/param-replace/code-mod-framework/lib/libnx_min/nx/lib\libnx_min.a(apm.o)
 .debug_info    0x0000000000000000     0x1b13 S:/UltimateEnvironment/code-mod-example/param-replace/code-mod-framework/lib/libnx_min/nx/lib\libnx_min.a(apm.o)
 .debug_abbrev  0x0000000000000000      0x442 S:/UltimateEnvironment/code-mod-example/param-replace/code-mod-framework/lib/libnx_min/nx/lib\libnx_min.a(apm.o)
 .debug_loc     0x0000000000000000     0x239a S:/UltimateEnvironment/code-mod-example/param-replace/code-mod-framework/lib/libnx_min/nx/lib\libnx_min.a(apm.o)
 .debug_aranges
                0x0000000000000000       0x80 S:/UltimateEnvironment/code-mod-example/param-replace/code-mod-framework/lib/libnx_min/nx/lib\libnx_min.a(apm.o)
 .debug_ranges  0x0000000000000000      0x630 S:/UltimateEnvironment/code-mod-example/param-replace/code-mod-framework/lib/libnx_min/nx/lib\libnx_min.a(apm.o)
 .debug_line    0x0000000000000000      0xbdc S:/UltimateEnvironment/code-mod-example/param-replace/code-mod-framework/lib/libnx_min/nx/lib\libnx_min.a(apm.o)
 .debug_str     0x0000000000000000      0xa22 S:/UltimateEnvironment/code-mod-example/param-replace/code-mod-framework/lib/libnx_min/nx/lib\libnx_min.a(apm.o)
 .comment       0x0000000000000000       0x23 S:/UltimateEnvironment/code-mod-example/param-replace/code-mod-framework/lib/libnx_min/nx/lib\libnx_min.a(apm.o)
 .text          0x0000000000000000        0x0 c:/devkitpro/devkita64/bin/../lib/gcc/aarch64-none-elf/8.3.0/../../../../aarch64-none-elf/lib/pic\libg.a(lib_a-bsearch.o)
 .data          0x0000000000000000        0x0 c:/devkitpro/devkita64/bin/../lib/gcc/aarch64-none-elf/8.3.0/../../../../aarch64-none-elf/lib/pic\libg.a(lib_a-bsearch.o)
 .bss           0x0000000000000000        0x0 c:/devkitpro/devkita64/bin/../lib/gcc/aarch64-none-elf/8.3.0/../../../../aarch64-none-elf/lib/pic\libg.a(lib_a-bsearch.o)
 .comment       0x0000000000000000       0x23 c:/devkitpro/devkita64/bin/../lib/gcc/aarch64-none-elf/8.3.0/../../../../aarch64-none-elf/lib/pic\libg.a(lib_a-bsearch.o)
 .text          0x0000000000000000        0x0 c:/devkitpro/devkita64/bin/../lib/gcc/aarch64-none-elf/8.3.0/../../../../aarch64-none-elf/lib/pic\libg.a(lib_a-ctype_.o)
 .data          0x0000000000000000        0x0 c:/devkitpro/devkita64/bin/../lib/gcc/aarch64-none-elf/8.3.0/../../../../aarch64-none-elf/lib/pic\libg.a(lib_a-ctype_.o)
 .bss           0x0000000000000000        0x0 c:/devkitpro/devkita64/bin/../lib/gcc/aarch64-none-elf/8.3.0/../../../../aarch64-none-elf/lib/pic\libg.a(lib_a-ctype_.o)
 .comment       0x0000000000000000       0x23 c:/devkitpro/devkita64/bin/../lib/gcc/aarch64-none-elf/8.3.0/../../../../aarch64-none-elf/lib/pic\libg.a(lib_a-ctype_.o)
 .text          0x0000000000000000        0x0 c:/devkitpro/devkita64/bin/../lib/gcc/aarch64-none-elf/8.3.0/../../../../aarch64-none-elf/lib/pic\libg.a(lib_a-errno.o)
 .data          0x0000000000000000        0x0 c:/devkitpro/devkita64/bin/../lib/gcc/aarch64-none-elf/8.3.0/../../../../aarch64-none-elf/lib/pic\libg.a(lib_a-errno.o)
 .bss           0x0000000000000000        0x0 c:/devkitpro/devkita64/bin/../lib/gcc/aarch64-none-elf/8.3.0/../../../../aarch64-none-elf/lib/pic\libg.a(lib_a-errno.o)
 .comment       0x0000000000000000       0x23 c:/devkitpro/devkita64/bin/../lib/gcc/aarch64-none-elf/8.3.0/../../../../aarch64-none-elf/lib/pic\libg.a(lib_a-errno.o)
 .text          0x0000000000000000        0x0 c:/devkitpro/devkita64/bin/../lib/gcc/aarch64-none-elf/8.3.0/../../../../aarch64-none-elf/lib/pic\libg.a(lib_a-exit.o)
 .data          0x0000000000000000        0x0 c:/devkitpro/devkita64/bin/../lib/gcc/aarch64-none-elf/8.3.0/../../../../aarch64-none-elf/lib/pic\libg.a(lib_a-exit.o)
 .bss           0x0000000000000000        0x0 c:/devkitpro/devkita64/bin/../lib/gcc/aarch64-none-elf/8.3.0/../../../../aarch64-none-elf/lib/pic\libg.a(lib_a-exit.o)
 .comment       0x0000000000000000       0x23 c:/devkitpro/devkita64/bin/../lib/gcc/aarch64-none-elf/8.3.0/../../../../aarch64-none-elf/lib/pic\libg.a(lib_a-exit.o)
 .text          0x0000000000000000        0x0 c:/devkitpro/devkita64/bin/../lib/gcc/aarch64-none-elf/8.3.0/../../../../aarch64-none-elf/lib/pic\libg.a(lib_a-fini.o)
 .data          0x0000000000000000        0x0 c:/devkitpro/devkita64/bin/../lib/gcc/aarch64-none-elf/8.3.0/../../../../aarch64-none-elf/lib/pic\libg.a(lib_a-fini.o)
 .bss           0x0000000000000000        0x0 c:/devkitpro/devkita64/bin/../lib/gcc/aarch64-none-elf/8.3.0/../../../../aarch64-none-elf/lib/pic\libg.a(lib_a-fini.o)
 .comment       0x0000000000000000       0x23 c:/devkitpro/devkita64/bin/../lib/gcc/aarch64-none-elf/8.3.0/../../../../aarch64-none-elf/lib/pic\libg.a(lib_a-fini.o)
 .text          0x0000000000000000        0x0 c:/devkitpro/devkita64/bin/../lib/gcc/aarch64-none-elf/8.3.0/../../../../aarch64-none-elf/lib/pic\libg.a(lib_a-impure.o)
 .data          0x0000000000000000        0x0 c:/devkitpro/devkita64/bin/../lib/gcc/aarch64-none-elf/8.3.0/../../../../aarch64-none-elf/lib/pic\libg.a(lib_a-impure.o)
 .bss           0x0000000000000000        0x0 c:/devkitpro/devkita64/bin/../lib/gcc/aarch64-none-elf/8.3.0/../../../../aarch64-none-elf/lib/pic\libg.a(lib_a-impure.o)
 .comment       0x0000000000000000       0x23 c:/devkitpro/devkita64/bin/../lib/gcc/aarch64-none-elf/8.3.0/../../../../aarch64-none-elf/lib/pic\libg.a(lib_a-impure.o)
 .text          0x0000000000000000        0x0 c:/devkitpro/devkita64/bin/../lib/gcc/aarch64-none-elf/8.3.0/../../../../aarch64-none-elf/lib/pic\libg.a(lib_a-init.o)
 .data          0x0000000000000000        0x0 c:/devkitpro/devkita64/bin/../lib/gcc/aarch64-none-elf/8.3.0/../../../../aarch64-none-elf/lib/pic\libg.a(lib_a-init.o)
 .bss           0x0000000000000000        0x0 c:/devkitpro/devkita64/bin/../lib/gcc/aarch64-none-elf/8.3.0/../../../../aarch64-none-elf/lib/pic\libg.a(lib_a-init.o)
 .comment       0x0000000000000000       0x23 c:/devkitpro/devkita64/bin/../lib/gcc/aarch64-none-elf/8.3.0/../../../../aarch64-none-elf/lib/pic\libg.a(lib_a-init.o)
 .text          0x0000000000000000        0x0 c:/devkitpro/devkita64/bin/../lib/gcc/aarch64-none-elf/8.3.0/../../../../aarch64-none-elf/lib/pic\libg.a(lib_a-malign.o)
 .data          0x0000000000000000        0x0 c:/devkitpro/devkita64/bin/../lib/gcc/aarch64-none-elf/8.3.0/../../../../aarch64-none-elf/lib/pic\libg.a(lib_a-malign.o)
 .bss           0x0000000000000000        0x0 c:/devkitpro/devkita64/bin/../lib/gcc/aarch64-none-elf/8.3.0/../../../../aarch64-none-elf/lib/pic\libg.a(lib_a-malign.o)
 .comment       0x0000000000000000       0x23 c:/devkitpro/devkita64/bin/../lib/gcc/aarch64-none-elf/8.3.0/../../../../aarch64-none-elf/lib/pic\libg.a(lib_a-malign.o)
 .text          0x0000000000000000        0x0 c:/devkitpro/devkita64/bin/../lib/gcc/aarch64-none-elf/8.3.0/../../../../aarch64-none-elf/lib/pic\libg.a(lib_a-malignr.o)
 .data          0x0000000000000000        0x0 c:/devkitpro/devkita64/bin/../lib/gcc/aarch64-none-elf/8.3.0/../../../../aarch64-none-elf/lib/pic\libg.a(lib_a-malignr.o)
 .bss           0x0000000000000000        0x0 c:/devkitpro/devkita64/bin/../lib/gcc/aarch64-none-elf/8.3.0/../../../../aarch64-none-elf/lib/pic\libg.a(lib_a-malignr.o)
 .comment       0x0000000000000000       0x23 c:/devkitpro/devkita64/bin/../lib/gcc/aarch64-none-elf/8.3.0/../../../../aarch64-none-elf/lib/pic\libg.a(lib_a-malignr.o)
 .text          0x0000000000000000        0x0 c:/devkitpro/devkita64/bin/../lib/gcc/aarch64-none-elf/8.3.0/../../../../aarch64-none-elf/lib/pic\libg.a(lib_a-malloc.o)
 .data          0x0000000000000000        0x0 c:/devkitpro/devkita64/bin/../lib/gcc/aarch64-none-elf/8.3.0/../../../../aarch64-none-elf/lib/pic\libg.a(lib_a-malloc.o)
 .bss           0x0000000000000000        0x0 c:/devkitpro/devkita64/bin/../lib/gcc/aarch64-none-elf/8.3.0/../../../../aarch64-none-elf/lib/pic\libg.a(lib_a-malloc.o)
 .comment       0x0000000000000000       0x23 c:/devkitpro/devkita64/bin/../lib/gcc/aarch64-none-elf/8.3.0/../../../../aarch64-none-elf/lib/pic\libg.a(lib_a-malloc.o)
 .text          0x0000000000000000        0x0 c:/devkitpro/devkita64/bin/../lib/gcc/aarch64-none-elf/8.3.0/../../../../aarch64-none-elf/lib/pic\libg.a(lib_a-mallocr.o)
 .data          0x0000000000000000        0x0 c:/devkitpro/devkita64/bin/../lib/gcc/aarch64-none-elf/8.3.0/../../../../aarch64-none-elf/lib/pic\libg.a(lib_a-mallocr.o)
 .bss           0x0000000000000000        0x0 c:/devkitpro/devkita64/bin/../lib/gcc/aarch64-none-elf/8.3.0/../../../../aarch64-none-elf/lib/pic\libg.a(lib_a-mallocr.o)
 .comment       0x0000000000000000       0x23 c:/devkitpro/devkita64/bin/../lib/gcc/aarch64-none-elf/8.3.0/../../../../aarch64-none-elf/lib/pic\libg.a(lib_a-mallocr.o)
 .data          0x0000000000000000        0x0 c:/devkitpro/devkita64/bin/../lib/gcc/aarch64-none-elf/8.3.0/../../../../aarch64-none-elf/lib/pic\libg.a(lib_a-memcpy.o)
 .bss           0x0000000000000000        0x0 c:/devkitpro/devkita64/bin/../lib/gcc/aarch64-none-elf/8.3.0/../../../../aarch64-none-elf/lib/pic\libg.a(lib_a-memcpy.o)
 .data          0x0000000000000000        0x0 c:/devkitpro/devkita64/bin/../lib/gcc/aarch64-none-elf/8.3.0/../../../../aarch64-none-elf/lib/pic\libg.a(lib_a-memset.o)
 .bss           0x0000000000000000        0x0 c:/devkitpro/devkita64/bin/../lib/gcc/aarch64-none-elf/8.3.0/../../../../aarch64-none-elf/lib/pic\libg.a(lib_a-memset.o)
 .text          0x0000000000000000        0x0 c:/devkitpro/devkita64/bin/../lib/gcc/aarch64-none-elf/8.3.0/../../../../aarch64-none-elf/lib/pic\libg.a(lib_a-mlock.o)
 .data          0x0000000000000000        0x0 c:/devkitpro/devkita64/bin/../lib/gcc/aarch64-none-elf/8.3.0/../../../../aarch64-none-elf/lib/pic\libg.a(lib_a-mlock.o)
 .bss           0x0000000000000000        0x0 c:/devkitpro/devkita64/bin/../lib/gcc/aarch64-none-elf/8.3.0/../../../../aarch64-none-elf/lib/pic\libg.a(lib_a-mlock.o)
 .comment       0x0000000000000000       0x23 c:/devkitpro/devkita64/bin/../lib/gcc/aarch64-none-elf/8.3.0/../../../../aarch64-none-elf/lib/pic\libg.a(lib_a-mlock.o)
 .text          0x0000000000000000        0x0 c:/devkitpro/devkita64/bin/../lib/gcc/aarch64-none-elf/8.3.0/../../../../aarch64-none-elf/lib/pic\libg.a(lib_a-setenv.o)
 .data          0x0000000000000000        0x0 c:/devkitpro/devkita64/bin/../lib/gcc/aarch64-none-elf/8.3.0/../../../../aarch64-none-elf/lib/pic\libg.a(lib_a-setenv.o)
 .bss           0x0000000000000000        0x0 c:/devkitpro/devkita64/bin/../lib/gcc/aarch64-none-elf/8.3.0/../../../../aarch64-none-elf/lib/pic\libg.a(lib_a-setenv.o)
 .comment       0x0000000000000000       0x23 c:/devkitpro/devkita64/bin/../lib/gcc/aarch64-none-elf/8.3.0/../../../../aarch64-none-elf/lib/pic\libg.a(lib_a-setenv.o)
 .text          0x0000000000000000        0x0 c:/devkitpro/devkita64/bin/../lib/gcc/aarch64-none-elf/8.3.0/../../../../aarch64-none-elf/lib/pic\libg.a(lib_a-setenv_r.o)
 .data          0x0000000000000000        0x0 c:/devkitpro/devkita64/bin/../lib/gcc/aarch64-none-elf/8.3.0/../../../../aarch64-none-elf/lib/pic\libg.a(lib_a-setenv_r.o)
 .bss           0x0000000000000000        0x0 c:/devkitpro/devkita64/bin/../lib/gcc/aarch64-none-elf/8.3.0/../../../../aarch64-none-elf/lib/pic\libg.a(lib_a-setenv_r.o)
 .comment       0x0000000000000000       0x23 c:/devkitpro/devkita64/bin/../lib/gcc/aarch64-none-elf/8.3.0/../../../../aarch64-none-elf/lib/pic\libg.a(lib_a-setenv_r.o)
 .data          0x0000000000000000        0x0 c:/devkitpro/devkita64/bin/../lib/gcc/aarch64-none-elf/8.3.0/../../../../aarch64-none-elf/lib/pic\libg.a(lib_a-strchr.o)
 .bss           0x0000000000000000        0x0 c:/devkitpro/devkita64/bin/../lib/gcc/aarch64-none-elf/8.3.0/../../../../aarch64-none-elf/lib/pic\libg.a(lib_a-strchr.o)
 .data          0x0000000000000000        0x0 c:/devkitpro/devkita64/bin/../lib/gcc/aarch64-none-elf/8.3.0/../../../../aarch64-none-elf/lib/pic\libg.a(lib_a-strcpy.o)
 .bss           0x0000000000000000        0x0 c:/devkitpro/devkita64/bin/../lib/gcc/aarch64-none-elf/8.3.0/../../../../aarch64-none-elf/lib/pic\libg.a(lib_a-strcpy.o)
 .data          0x0000000000000000        0x0 c:/devkitpro/devkita64/bin/../lib/gcc/aarch64-none-elf/8.3.0/../../../../aarch64-none-elf/lib/pic\libg.a(lib_a-strlen.o)
 .bss           0x0000000000000000        0x0 c:/devkitpro/devkita64/bin/../lib/gcc/aarch64-none-elf/8.3.0/../../../../aarch64-none-elf/lib/pic\libg.a(lib_a-strlen.o)
 .text          0x0000000000000000        0x0 c:/devkitpro/devkita64/bin/../lib/gcc/aarch64-none-elf/8.3.0/../../../../aarch64-none-elf/lib/pic\libg.a(lib_a-strncat.o)
 .data          0x0000000000000000        0x0 c:/devkitpro/devkita64/bin/../lib/gcc/aarch64-none-elf/8.3.0/../../../../aarch64-none-elf/lib/pic\libg.a(lib_a-strncat.o)
 .bss           0x0000000000000000        0x0 c:/devkitpro/devkita64/bin/../lib/gcc/aarch64-none-elf/8.3.0/../../../../aarch64-none-elf/lib/pic\libg.a(lib_a-strncat.o)
 .comment       0x0000000000000000       0x23 c:/devkitpro/devkita64/bin/../lib/gcc/aarch64-none-elf/8.3.0/../../../../aarch64-none-elf/lib/pic\libg.a(lib_a-strncat.o)
 .data          0x0000000000000000        0x0 c:/devkitpro/devkita64/bin/../lib/gcc/aarch64-none-elf/8.3.0/../../../../aarch64-none-elf/lib/pic\libg.a(lib_a-strncmp.o)
 .bss           0x0000000000000000        0x0 c:/devkitpro/devkita64/bin/../lib/gcc/aarch64-none-elf/8.3.0/../../../../aarch64-none-elf/lib/pic\libg.a(lib_a-strncmp.o)
 .text          0x0000000000000000        0x0 c:/devkitpro/devkita64/bin/../lib/gcc/aarch64-none-elf/8.3.0/../../../../aarch64-none-elf/lib/pic\libg.a(lib_a-strncpy.o)
 .data          0x0000000000000000        0x0 c:/devkitpro/devkita64/bin/../lib/gcc/aarch64-none-elf/8.3.0/../../../../aarch64-none-elf/lib/pic\libg.a(lib_a-strncpy.o)
 .bss           0x0000000000000000        0x0 c:/devkitpro/devkita64/bin/../lib/gcc/aarch64-none-elf/8.3.0/../../../../aarch64-none-elf/lib/pic\libg.a(lib_a-strncpy.o)
 .comment       0x0000000000000000       0x23 c:/devkitpro/devkita64/bin/../lib/gcc/aarch64-none-elf/8.3.0/../../../../aarch64-none-elf/lib/pic\libg.a(lib_a-strncpy.o)
 .data          0x0000000000000000        0x0 c:/devkitpro/devkita64/bin/../lib/gcc/aarch64-none-elf/8.3.0/../../../../aarch64-none-elf/lib/pic\libg.a(lib_a-strnlen.o)
 .bss           0x0000000000000000        0x0 c:/devkitpro/devkita64/bin/../lib/gcc/aarch64-none-elf/8.3.0/../../../../aarch64-none-elf/lib/pic\libg.a(lib_a-strnlen.o)
 .text          0x0000000000000000        0x0 c:/devkitpro/devkita64/bin/../lib/gcc/aarch64-none-elf/8.3.0/../../../../aarch64-none-elf/lib/pic\libg.a(lib_a-toupper.o)
 .data          0x0000000000000000        0x0 c:/devkitpro/devkita64/bin/../lib/gcc/aarch64-none-elf/8.3.0/../../../../aarch64-none-elf/lib/pic\libg.a(lib_a-toupper.o)
 .bss           0x0000000000000000        0x0 c:/devkitpro/devkita64/bin/../lib/gcc/aarch64-none-elf/8.3.0/../../../../aarch64-none-elf/lib/pic\libg.a(lib_a-toupper.o)
 .comment       0x0000000000000000       0x23 c:/devkitpro/devkita64/bin/../lib/gcc/aarch64-none-elf/8.3.0/../../../../aarch64-none-elf/lib/pic\libg.a(lib_a-toupper.o)
 .text          0x0000000000000000        0x0 c:/devkitpro/devkita64/bin/../lib/gcc/aarch64-none-elf/8.3.0/../../../../aarch64-none-elf/lib/pic\libg.a(lib_a-vsnprintf.o)
 .data          0x0000000000000000        0x0 c:/devkitpro/devkita64/bin/../lib/gcc/aarch64-none-elf/8.3.0/../../../../aarch64-none-elf/lib/pic\libg.a(lib_a-vsnprintf.o)
 .bss           0x0000000000000000        0x0 c:/devkitpro/devkita64/bin/../lib/gcc/aarch64-none-elf/8.3.0/../../../../aarch64-none-elf/lib/pic\libg.a(lib_a-vsnprintf.o)
 .comment       0x0000000000000000       0x23 c:/devkitpro/devkita64/bin/../lib/gcc/aarch64-none-elf/8.3.0/../../../../aarch64-none-elf/lib/pic\libg.a(lib_a-vsnprintf.o)
 .text          0x0000000000000000        0x0 c:/devkitpro/devkita64/bin/../lib/gcc/aarch64-none-elf/8.3.0/../../../../aarch64-none-elf/lib/pic\libg.a(lib_a-__call_atexit.o)
 .data          0x0000000000000000        0x0 c:/devkitpro/devkita64/bin/../lib/gcc/aarch64-none-elf/8.3.0/../../../../aarch64-none-elf/lib/pic\libg.a(lib_a-__call_atexit.o)
 .bss           0x0000000000000000        0x0 c:/devkitpro/devkita64/bin/../lib/gcc/aarch64-none-elf/8.3.0/../../../../aarch64-none-elf/lib/pic\libg.a(lib_a-__call_atexit.o)
 .comment       0x0000000000000000       0x23 c:/devkitpro/devkita64/bin/../lib/gcc/aarch64-none-elf/8.3.0/../../../../aarch64-none-elf/lib/pic\libg.a(lib_a-__call_atexit.o)
 .text          0x0000000000000000        0x0 c:/devkitpro/devkita64/bin/../lib/gcc/aarch64-none-elf/8.3.0/../../../../aarch64-none-elf/lib/pic\libg.a(lib_a-environ.o)
 .data          0x0000000000000000        0x0 c:/devkitpro/devkita64/bin/../lib/gcc/aarch64-none-elf/8.3.0/../../../../aarch64-none-elf/lib/pic\libg.a(lib_a-environ.o)
 .bss           0x0000000000000000        0x0 c:/devkitpro/devkita64/bin/../lib/gcc/aarch64-none-elf/8.3.0/../../../../aarch64-none-elf/lib/pic\libg.a(lib_a-environ.o)
 .comment       0x0000000000000000       0x23 c:/devkitpro/devkita64/bin/../lib/gcc/aarch64-none-elf/8.3.0/../../../../aarch64-none-elf/lib/pic\libg.a(lib_a-environ.o)
 .text          0x0000000000000000        0x0 c:/devkitpro/devkita64/bin/../lib/gcc/aarch64-none-elf/8.3.0/../../../../aarch64-none-elf/lib/pic\libg.a(lib_a-envlock.o)
 .data          0x0000000000000000        0x0 c:/devkitpro/devkita64/bin/../lib/gcc/aarch64-none-elf/8.3.0/../../../../aarch64-none-elf/lib/pic\libg.a(lib_a-envlock.o)
 .bss           0x0000000000000000        0x0 c:/devkitpro/devkita64/bin/../lib/gcc/aarch64-none-elf/8.3.0/../../../../aarch64-none-elf/lib/pic\libg.a(lib_a-envlock.o)
 .comment       0x0000000000000000       0x23 c:/devkitpro/devkita64/bin/../lib/gcc/aarch64-none-elf/8.3.0/../../../../aarch64-none-elf/lib/pic\libg.a(lib_a-envlock.o)
 .text          0x0000000000000000        0x0 c:/devkitpro/devkita64/bin/../lib/gcc/aarch64-none-elf/8.3.0/../../../../aarch64-none-elf/lib/pic\libg.a(lib_a-freer.o)
 .data          0x0000000000000000        0x0 c:/devkitpro/devkita64/bin/../lib/gcc/aarch64-none-elf/8.3.0/../../../../aarch64-none-elf/lib/pic\libg.a(lib_a-freer.o)
 .bss           0x0000000000000000        0x0 c:/devkitpro/devkita64/bin/../lib/gcc/aarch64-none-elf/8.3.0/../../../../aarch64-none-elf/lib/pic\libg.a(lib_a-freer.o)
 .comment       0x0000000000000000       0x23 c:/devkitpro/devkita64/bin/../lib/gcc/aarch64-none-elf/8.3.0/../../../../aarch64-none-elf/lib/pic\libg.a(lib_a-freer.o)
 .text          0x0000000000000000        0x0 c:/devkitpro/devkita64/bin/../lib/gcc/aarch64-none-elf/8.3.0/../../../../aarch64-none-elf/lib/pic\libg.a(lib_a-getenv_r.o)
 .data          0x0000000000000000        0x0 c:/devkitpro/devkita64/bin/../lib/gcc/aarch64-none-elf/8.3.0/../../../../aarch64-none-elf/lib/pic\libg.a(lib_a-getenv_r.o)
 .bss           0x0000000000000000        0x0 c:/devkitpro/devkita64/bin/../lib/gcc/aarch64-none-elf/8.3.0/../../../../aarch64-none-elf/lib/pic\libg.a(lib_a-getenv_r.o)
 .comment       0x0000000000000000       0x23 c:/devkitpro/devkita64/bin/../lib/gcc/aarch64-none-elf/8.3.0/../../../../aarch64-none-elf/lib/pic\libg.a(lib_a-getenv_r.o)
 .text          0x0000000000000000        0x0 c:/devkitpro/devkita64/bin/../lib/gcc/aarch64-none-elf/8.3.0/../../../../aarch64-none-elf/lib/pic\libg.a(lib_a-reallocr.o)
 .data          0x0000000000000000        0x0 c:/devkitpro/devkita64/bin/../lib/gcc/aarch64-none-elf/8.3.0/../../../../aarch64-none-elf/lib/pic\libg.a(lib_a-reallocr.o)
 .bss           0x0000000000000000        0x0 c:/devkitpro/devkita64/bin/../lib/gcc/aarch64-none-elf/8.3.0/../../../../aarch64-none-elf/lib/pic\libg.a(lib_a-reallocr.o)
 .comment       0x0000000000000000       0x23 c:/devkitpro/devkita64/bin/../lib/gcc/aarch64-none-elf/8.3.0/../../../../aarch64-none-elf/lib/pic\libg.a(lib_a-reallocr.o)
 .text          0x0000000000000000        0x0 c:/devkitpro/devkita64/bin/../lib/gcc/aarch64-none-elf/8.3.0/../../../../aarch64-none-elf/lib/pic\libg.a(lib_a-svfprintf.o)
 .data          0x0000000000000000        0x0 c:/devkitpro/devkita64/bin/../lib/gcc/aarch64-none-elf/8.3.0/../../../../aarch64-none-elf/lib/pic\libg.a(lib_a-svfprintf.o)
 .bss           0x0000000000000000        0x0 c:/devkitpro/devkita64/bin/../lib/gcc/aarch64-none-elf/8.3.0/../../../../aarch64-none-elf/lib/pic\libg.a(lib_a-svfprintf.o)
 .comment       0x0000000000000000       0x23 c:/devkitpro/devkita64/bin/../lib/gcc/aarch64-none-elf/8.3.0/../../../../aarch64-none-elf/lib/pic\libg.a(lib_a-svfprintf.o)
 .text          0x0000000000000000        0x0 c:/devkitpro/devkita64/bin/../lib/gcc/aarch64-none-elf/8.3.0/../../../../aarch64-none-elf/lib/pic\libg.a(lib_a-wcrtomb.o)
 .data          0x0000000000000000        0x0 c:/devkitpro/devkita64/bin/../lib/gcc/aarch64-none-elf/8.3.0/../../../../aarch64-none-elf/lib/pic\libg.a(lib_a-wcrtomb.o)
 .bss           0x0000000000000000        0x0 c:/devkitpro/devkita64/bin/../lib/gcc/aarch64-none-elf/8.3.0/../../../../aarch64-none-elf/lib/pic\libg.a(lib_a-wcrtomb.o)
 .comment       0x0000000000000000       0x23 c:/devkitpro/devkita64/bin/../lib/gcc/aarch64-none-elf/8.3.0/../../../../aarch64-none-elf/lib/pic\libg.a(lib_a-wcrtomb.o)
 .text          0x0000000000000000        0x0 c:/devkitpro/devkita64/bin/../lib/gcc/aarch64-none-elf/8.3.0/../../../../aarch64-none-elf/lib/pic\libg.a(lib_a-wcsrtombs.o)
 .data          0x0000000000000000        0x0 c:/devkitpro/devkita64/bin/../lib/gcc/aarch64-none-elf/8.3.0/../../../../aarch64-none-elf/lib/pic\libg.a(lib_a-wcsrtombs.o)
 .bss           0x0000000000000000        0x0 c:/devkitpro/devkita64/bin/../lib/gcc/aarch64-none-elf/8.3.0/../../../../aarch64-none-elf/lib/pic\libg.a(lib_a-wcsrtombs.o)
 .comment       0x0000000000000000       0x23 c:/devkitpro/devkita64/bin/../lib/gcc/aarch64-none-elf/8.3.0/../../../../aarch64-none-elf/lib/pic\libg.a(lib_a-wcsrtombs.o)
 .text          0x0000000000000000        0x0 c:/devkitpro/devkita64/bin/../lib/gcc/aarch64-none-elf/8.3.0/../../../../aarch64-none-elf/lib/pic\libg.a(lib_a-dtoa.o)
 .data          0x0000000000000000        0x0 c:/devkitpro/devkita64/bin/../lib/gcc/aarch64-none-elf/8.3.0/../../../../aarch64-none-elf/lib/pic\libg.a(lib_a-dtoa.o)
 .bss           0x0000000000000000        0x0 c:/devkitpro/devkita64/bin/../lib/gcc/aarch64-none-elf/8.3.0/../../../../aarch64-none-elf/lib/pic\libg.a(lib_a-dtoa.o)
 .comment       0x0000000000000000       0x23 c:/devkitpro/devkita64/bin/../lib/gcc/aarch64-none-elf/8.3.0/../../../../aarch64-none-elf/lib/pic\libg.a(lib_a-dtoa.o)
 .text          0x0000000000000000        0x0 c:/devkitpro/devkita64/bin/../lib/gcc/aarch64-none-elf/8.3.0/../../../../aarch64-none-elf/lib/pic\libg.a(lib_a-localeconv.o)
 .data          0x0000000000000000        0x0 c:/devkitpro/devkita64/bin/../lib/gcc/aarch64-none-elf/8.3.0/../../../../aarch64-none-elf/lib/pic\libg.a(lib_a-localeconv.o)
 .bss           0x0000000000000000        0x0 c:/devkitpro/devkita64/bin/../lib/gcc/aarch64-none-elf/8.3.0/../../../../aarch64-none-elf/lib/pic\libg.a(lib_a-localeconv.o)
 .comment       0x0000000000000000       0x23 c:/devkitpro/devkita64/bin/../lib/gcc/aarch64-none-elf/8.3.0/../../../../aarch64-none-elf/lib/pic\libg.a(lib_a-localeconv.o)
 .text          0x0000000000000000        0x0 c:/devkitpro/devkita64/bin/../lib/gcc/aarch64-none-elf/8.3.0/../../../../aarch64-none-elf/lib/pic\libg.a(lib_a-locale.o)
 .data          0x0000000000000000        0x0 c:/devkitpro/devkita64/bin/../lib/gcc/aarch64-none-elf/8.3.0/../../../../aarch64-none-elf/lib/pic\libg.a(lib_a-locale.o)
 .bss           0x0000000000000000        0x0 c:/devkitpro/devkita64/bin/../lib/gcc/aarch64-none-elf/8.3.0/../../../../aarch64-none-elf/lib/pic\libg.a(lib_a-locale.o)
 .comment       0x0000000000000000       0x23 c:/devkitpro/devkita64/bin/../lib/gcc/aarch64-none-elf/8.3.0/../../../../aarch64-none-elf/lib/pic\libg.a(lib_a-locale.o)
 .text          0x0000000000000000        0x0 c:/devkitpro/devkita64/bin/../lib/gcc/aarch64-none-elf/8.3.0/../../../../aarch64-none-elf/lib/pic\libg.a(lib_a-mbtowc_r.o)
 .data          0x0000000000000000        0x0 c:/devkitpro/devkita64/bin/../lib/gcc/aarch64-none-elf/8.3.0/../../../../aarch64-none-elf/lib/pic\libg.a(lib_a-mbtowc_r.o)
 .bss           0x0000000000000000        0x0 c:/devkitpro/devkita64/bin/../lib/gcc/aarch64-none-elf/8.3.0/../../../../aarch64-none-elf/lib/pic\libg.a(lib_a-mbtowc_r.o)
 .comment       0x0000000000000000       0x23 c:/devkitpro/devkita64/bin/../lib/gcc/aarch64-none-elf/8.3.0/../../../../aarch64-none-elf/lib/pic\libg.a(lib_a-mbtowc_r.o)
 .data          0x0000000000000000        0x0 c:/devkitpro/devkita64/bin/../lib/gcc/aarch64-none-elf/8.3.0/../../../../aarch64-none-elf/lib/pic\libg.a(lib_a-memchr.o)
 .bss           0x0000000000000000        0x0 c:/devkitpro/devkita64/bin/../lib/gcc/aarch64-none-elf/8.3.0/../../../../aarch64-none-elf/lib/pic\libg.a(lib_a-memchr.o)
 .data          0x0000000000000000        0x0 c:/devkitpro/devkita64/bin/../lib/gcc/aarch64-none-elf/8.3.0/../../../../aarch64-none-elf/lib/pic\libg.a(lib_a-memmove.o)
 .bss           0x0000000000000000        0x0 c:/devkitpro/devkita64/bin/../lib/gcc/aarch64-none-elf/8.3.0/../../../../aarch64-none-elf/lib/pic\libg.a(lib_a-memmove.o)
 .text          0x0000000000000000        0x0 c:/devkitpro/devkita64/bin/../lib/gcc/aarch64-none-elf/8.3.0/../../../../aarch64-none-elf/lib/pic\libg.a(lib_a-mprec.o)
 .data          0x0000000000000000        0x0 c:/devkitpro/devkita64/bin/../lib/gcc/aarch64-none-elf/8.3.0/../../../../aarch64-none-elf/lib/pic\libg.a(lib_a-mprec.o)
 .bss           0x0000000000000000        0x0 c:/devkitpro/devkita64/bin/../lib/gcc/aarch64-none-elf/8.3.0/../../../../aarch64-none-elf/lib/pic\libg.a(lib_a-mprec.o)
 .comment       0x0000000000000000       0x23 c:/devkitpro/devkita64/bin/../lib/gcc/aarch64-none-elf/8.3.0/../../../../aarch64-none-elf/lib/pic\libg.a(lib_a-mprec.o)
 .text          0x0000000000000000        0x0 c:/devkitpro/devkita64/bin/../lib/gcc/aarch64-none-elf/8.3.0/../../../../aarch64-none-elf/lib/pic\libg.a(lib_a-s_frexp.o)
 .data          0x0000000000000000        0x0 c:/devkitpro/devkita64/bin/../lib/gcc/aarch64-none-elf/8.3.0/../../../../aarch64-none-elf/lib/pic\libg.a(lib_a-s_frexp.o)
 .bss           0x0000000000000000        0x0 c:/devkitpro/devkita64/bin/../lib/gcc/aarch64-none-elf/8.3.0/../../../../aarch64-none-elf/lib/pic\libg.a(lib_a-s_frexp.o)
 .comment       0x0000000000000000       0x23 c:/devkitpro/devkita64/bin/../lib/gcc/aarch64-none-elf/8.3.0/../../../../aarch64-none-elf/lib/pic\libg.a(lib_a-s_frexp.o)
 .text          0x0000000000000000        0x0 c:/devkitpro/devkita64/bin/../lib/gcc/aarch64-none-elf/8.3.0/../../../../aarch64-none-elf/lib/pic\libg.a(lib_a-strcasecmp.o)
 .data          0x0000000000000000        0x0 c:/devkitpro/devkita64/bin/../lib/gcc/aarch64-none-elf/8.3.0/../../../../aarch64-none-elf/lib/pic\libg.a(lib_a-strcasecmp.o)
 .bss           0x0000000000000000        0x0 c:/devkitpro/devkita64/bin/../lib/gcc/aarch64-none-elf/8.3.0/../../../../aarch64-none-elf/lib/pic\libg.a(lib_a-strcasecmp.o)
 .comment       0x0000000000000000       0x23 c:/devkitpro/devkita64/bin/../lib/gcc/aarch64-none-elf/8.3.0/../../../../aarch64-none-elf/lib/pic\libg.a(lib_a-strcasecmp.o)
 .text          0x0000000000000000        0x0 c:/devkitpro/devkita64/bin/../lib/gcc/aarch64-none-elf/8.3.0/../../../../aarch64-none-elf/lib/pic\libg.a(lib_a-strcat.o)
 .data          0x0000000000000000        0x0 c:/devkitpro/devkita64/bin/../lib/gcc/aarch64-none-elf/8.3.0/../../../../aarch64-none-elf/lib/pic\libg.a(lib_a-strcat.o)
 .bss           0x0000000000000000        0x0 c:/devkitpro/devkita64/bin/../lib/gcc/aarch64-none-elf/8.3.0/../../../../aarch64-none-elf/lib/pic\libg.a(lib_a-strcat.o)
 .comment       0x0000000000000000       0x23 c:/devkitpro/devkita64/bin/../lib/gcc/aarch64-none-elf/8.3.0/../../../../aarch64-none-elf/lib/pic\libg.a(lib_a-strcat.o)
 .data          0x0000000000000000        0x0 c:/devkitpro/devkita64/bin/../lib/gcc/aarch64-none-elf/8.3.0/../../../../aarch64-none-elf/lib/pic\libg.a(lib_a-strcmp.o)
 .bss           0x0000000000000000        0x0 c:/devkitpro/devkita64/bin/../lib/gcc/aarch64-none-elf/8.3.0/../../../../aarch64-none-elf/lib/pic\libg.a(lib_a-strcmp.o)
 .text          0x0000000000000000        0x0 c:/devkitpro/devkita64/bin/../lib/gcc/aarch64-none-elf/8.3.0/../../../../aarch64-none-elf/lib/pic\libg.a(lib_a-strlcpy.o)
 .data          0x0000000000000000        0x0 c:/devkitpro/devkita64/bin/../lib/gcc/aarch64-none-elf/8.3.0/../../../../aarch64-none-elf/lib/pic\libg.a(lib_a-strlcpy.o)
 .bss           0x0000000000000000        0x0 c:/devkitpro/devkita64/bin/../lib/gcc/aarch64-none-elf/8.3.0/../../../../aarch64-none-elf/lib/pic\libg.a(lib_a-strlcpy.o)
 .comment       0x0000000000000000       0x23 c:/devkitpro/devkita64/bin/../lib/gcc/aarch64-none-elf/8.3.0/../../../../aarch64-none-elf/lib/pic\libg.a(lib_a-strlcpy.o)
 .text          0x0000000000000000        0x0 c:/devkitpro/devkita64/bin/../lib/gcc/aarch64-none-elf/8.3.0/../../../../aarch64-none-elf/lib/pic\libg.a(lib_a-strncasecmp.o)
 .data          0x0000000000000000        0x0 c:/devkitpro/devkita64/bin/../lib/gcc/aarch64-none-elf/8.3.0/../../../../aarch64-none-elf/lib/pic\libg.a(lib_a-strncasecmp.o)
 .bss           0x0000000000000000        0x0 c:/devkitpro/devkita64/bin/../lib/gcc/aarch64-none-elf/8.3.0/../../../../aarch64-none-elf/lib/pic\libg.a(lib_a-strncasecmp.o)
 .comment       0x0000000000000000       0x23 c:/devkitpro/devkita64/bin/../lib/gcc/aarch64-none-elf/8.3.0/../../../../aarch64-none-elf/lib/pic\libg.a(lib_a-strncasecmp.o)
 .text          0x0000000000000000        0x0 c:/devkitpro/devkita64/bin/../lib/gcc/aarch64-none-elf/8.3.0/../../../../aarch64-none-elf/lib/pic\libg.a(lib_a-strtol.o)
 .data          0x0000000000000000        0x0 c:/devkitpro/devkita64/bin/../lib/gcc/aarch64-none-elf/8.3.0/../../../../aarch64-none-elf/lib/pic\libg.a(lib_a-strtol.o)
 .bss           0x0000000000000000        0x0 c:/devkitpro/devkita64/bin/../lib/gcc/aarch64-none-elf/8.3.0/../../../../aarch64-none-elf/lib/pic\libg.a(lib_a-strtol.o)
 .comment       0x0000000000000000       0x23 c:/devkitpro/devkita64/bin/../lib/gcc/aarch64-none-elf/8.3.0/../../../../aarch64-none-elf/lib/pic\libg.a(lib_a-strtol.o)
 .text          0x0000000000000000        0x0 c:/devkitpro/devkita64/bin/../lib/gcc/aarch64-none-elf/8.3.0/../../../../aarch64-none-elf/lib/pic\libg.a(lib_a-svfiprintf.o)
 .data          0x0000000000000000        0x0 c:/devkitpro/devkita64/bin/../lib/gcc/aarch64-none-elf/8.3.0/../../../../aarch64-none-elf/lib/pic\libg.a(lib_a-svfiprintf.o)
 .bss           0x0000000000000000        0x0 c:/devkitpro/devkita64/bin/../lib/gcc/aarch64-none-elf/8.3.0/../../../../aarch64-none-elf/lib/pic\libg.a(lib_a-svfiprintf.o)
 .comment       0x0000000000000000       0x23 c:/devkitpro/devkita64/bin/../lib/gcc/aarch64-none-elf/8.3.0/../../../../aarch64-none-elf/lib/pic\libg.a(lib_a-svfiprintf.o)
 .text          0x0000000000000000        0x0 c:/devkitpro/devkita64/bin/../lib/gcc/aarch64-none-elf/8.3.0/../../../../aarch64-none-elf/lib/pic\libg.a(lib_a-wcsnrtombs.o)
 .data          0x0000000000000000        0x0 c:/devkitpro/devkita64/bin/../lib/gcc/aarch64-none-elf/8.3.0/../../../../aarch64-none-elf/lib/pic\libg.a(lib_a-wcsnrtombs.o)
 .bss           0x0000000000000000        0x0 c:/devkitpro/devkita64/bin/../lib/gcc/aarch64-none-elf/8.3.0/../../../../aarch64-none-elf/lib/pic\libg.a(lib_a-wcsnrtombs.o)
 .comment       0x0000000000000000       0x23 c:/devkitpro/devkita64/bin/../lib/gcc/aarch64-none-elf/8.3.0/../../../../aarch64-none-elf/lib/pic\libg.a(lib_a-wcsnrtombs.o)
 .text          0x0000000000000000        0x0 c:/devkitpro/devkita64/bin/../lib/gcc/aarch64-none-elf/8.3.0/../../../../aarch64-none-elf/lib/pic\libg.a(lib_a-wctomb_r.o)
 .data          0x0000000000000000        0x0 c:/devkitpro/devkita64/bin/../lib/gcc/aarch64-none-elf/8.3.0/../../../../aarch64-none-elf/lib/pic\libg.a(lib_a-wctomb_r.o)
 .bss           0x0000000000000000        0x0 c:/devkitpro/devkita64/bin/../lib/gcc/aarch64-none-elf/8.3.0/../../../../aarch64-none-elf/lib/pic\libg.a(lib_a-wctomb_r.o)
 .comment       0x0000000000000000       0x23 c:/devkitpro/devkita64/bin/../lib/gcc/aarch64-none-elf/8.3.0/../../../../aarch64-none-elf/lib/pic\libg.a(lib_a-wctomb_r.o)
 .text          0x0000000000000000        0x0 c:/devkitpro/devkita64/bin/../lib/gcc/aarch64-none-elf/8.3.0/../../../../aarch64-none-elf/lib/pic\libg.a(lib_a-callocr.o)
 .data          0x0000000000000000        0x0 c:/devkitpro/devkita64/bin/../lib/gcc/aarch64-none-elf/8.3.0/../../../../aarch64-none-elf/lib/pic\libg.a(lib_a-callocr.o)
 .bss           0x0000000000000000        0x0 c:/devkitpro/devkita64/bin/../lib/gcc/aarch64-none-elf/8.3.0/../../../../aarch64-none-elf/lib/pic\libg.a(lib_a-callocr.o)
 .comment       0x0000000000000000       0x23 c:/devkitpro/devkita64/bin/../lib/gcc/aarch64-none-elf/8.3.0/../../../../aarch64-none-elf/lib/pic\libg.a(lib_a-callocr.o)
 .text          0x0000000000000000        0x0 c:/devkitpro/devkita64/bin/../lib/gcc/aarch64-none-elf/8.3.0/../../../../aarch64-none-elf/lib/pic\libsysbase.a(iosupport.o)
 .data          0x0000000000000000        0x0 c:/devkitpro/devkita64/bin/../lib/gcc/aarch64-none-elf/8.3.0/../../../../aarch64-none-elf/lib/pic\libsysbase.a(iosupport.o)
 .bss           0x0000000000000000        0x0 c:/devkitpro/devkita64/bin/../lib/gcc/aarch64-none-elf/8.3.0/../../../../aarch64-none-elf/lib/pic\libsysbase.a(iosupport.o)
 .comment       0x0000000000000000       0x23 c:/devkitpro/devkita64/bin/../lib/gcc/aarch64-none-elf/8.3.0/../../../../aarch64-none-elf/lib/pic\libsysbase.a(iosupport.o)
 .text          0x0000000000000000        0x0 c:/devkitpro/devkita64/bin/../lib/gcc/aarch64-none-elf/8.3.0/../../../../aarch64-none-elf/lib/pic\libsysbase.a(sbrk.o)
 .data          0x0000000000000000        0x0 c:/devkitpro/devkita64/bin/../lib/gcc/aarch64-none-elf/8.3.0/../../../../aarch64-none-elf/lib/pic\libsysbase.a(sbrk.o)
 .bss           0x0000000000000000        0x0 c:/devkitpro/devkita64/bin/../lib/gcc/aarch64-none-elf/8.3.0/../../../../aarch64-none-elf/lib/pic\libsysbase.a(sbrk.o)
 .comment       0x0000000000000000       0x23 c:/devkitpro/devkita64/bin/../lib/gcc/aarch64-none-elf/8.3.0/../../../../aarch64-none-elf/lib/pic\libsysbase.a(sbrk.o)
 .text          0x0000000000000000        0x0 c:/devkitpro/devkita64/bin/../lib/gcc/aarch64-none-elf/8.3.0/../../../../aarch64-none-elf/lib/pic\libsysbase.a(_exit.o)
 .data          0x0000000000000000        0x0 c:/devkitpro/devkita64/bin/../lib/gcc/aarch64-none-elf/8.3.0/../../../../aarch64-none-elf/lib/pic\libsysbase.a(_exit.o)
 .bss           0x0000000000000000        0x0 c:/devkitpro/devkita64/bin/../lib/gcc/aarch64-none-elf/8.3.0/../../../../aarch64-none-elf/lib/pic\libsysbase.a(_exit.o)
 .comment       0x0000000000000000       0x23 c:/devkitpro/devkita64/bin/../lib/gcc/aarch64-none-elf/8.3.0/../../../../aarch64-none-elf/lib/pic\libsysbase.a(_exit.o)
 .text          0x0000000000000000        0x0 c:/devkitpro/devkita64/bin/../lib/gcc/aarch64-none-elf/8.3.0/../../../../aarch64-none-elf/lib/pic\libsysbase.a(malloc_vars.o)
 .data          0x0000000000000000        0x0 c:/devkitpro/devkita64/bin/../lib/gcc/aarch64-none-elf/8.3.0/../../../../aarch64-none-elf/lib/pic\libsysbase.a(malloc_vars.o)
 .bss           0x0000000000000000        0x0 c:/devkitpro/devkita64/bin/../lib/gcc/aarch64-none-elf/8.3.0/../../../../aarch64-none-elf/lib/pic\libsysbase.a(malloc_vars.o)
 .comment       0x0000000000000000       0x23 c:/devkitpro/devkita64/bin/../lib/gcc/aarch64-none-elf/8.3.0/../../../../aarch64-none-elf/lib/pic\libsysbase.a(malloc_vars.o)
 .text          0x0000000000000000        0x0 c:/devkitpro/devkita64/bin/../lib/gcc/aarch64-none-elf/8.3.0/../../../../aarch64-none-elf/lib/pic\libsysbase.a(chdir.o)
 .data          0x0000000000000000        0x0 c:/devkitpro/devkita64/bin/../lib/gcc/aarch64-none-elf/8.3.0/../../../../aarch64-none-elf/lib/pic\libsysbase.a(chdir.o)
 .bss           0x0000000000000000        0x0 c:/devkitpro/devkita64/bin/../lib/gcc/aarch64-none-elf/8.3.0/../../../../aarch64-none-elf/lib/pic\libsysbase.a(chdir.o)
 .comment       0x0000000000000000       0x23 c:/devkitpro/devkita64/bin/../lib/gcc/aarch64-none-elf/8.3.0/../../../../aarch64-none-elf/lib/pic\libsysbase.a(chdir.o)
 .text          0x0000000000000000        0x0 c:/devkitpro/devkita64/bin/../lib/gcc/aarch64-none-elf/8.3.0/../../../../aarch64-none-elf/lib/pic\libsysbase.a(locks.o)
 .data          0x0000000000000000        0x0 c:/devkitpro/devkita64/bin/../lib/gcc/aarch64-none-elf/8.3.0/../../../../aarch64-none-elf/lib/pic\libsysbase.a(locks.o)
 .bss           0x0000000000000000        0x0 c:/devkitpro/devkita64/bin/../lib/gcc/aarch64-none-elf/8.3.0/../../../../aarch64-none-elf/lib/pic\libsysbase.a(locks.o)
 .comment       0x0000000000000000       0x23 c:/devkitpro/devkita64/bin/../lib/gcc/aarch64-none-elf/8.3.0/../../../../aarch64-none-elf/lib/pic\libsysbase.a(locks.o)
 .text          0x0000000000000000        0x0 c:/devkitpro/devkita64/bin/../lib/gcc/aarch64-none-elf/8.3.0/../../../../aarch64-none-elf/lib/pic\libsysbase.a(getreent.o)
 .data          0x0000000000000000        0x0 c:/devkitpro/devkita64/bin/../lib/gcc/aarch64-none-elf/8.3.0/../../../../aarch64-none-elf/lib/pic\libsysbase.a(getreent.o)
 .bss           0x0000000000000000        0x0 c:/devkitpro/devkita64/bin/../lib/gcc/aarch64-none-elf/8.3.0/../../../../aarch64-none-elf/lib/pic\libsysbase.a(getreent.o)
 .comment       0x0000000000000000       0x23 c:/devkitpro/devkita64/bin/../lib/gcc/aarch64-none-elf/8.3.0/../../../../aarch64-none-elf/lib/pic\libsysbase.a(getreent.o)
 .text          0x0000000000000000        0x0 c:/devkitpro/devkita64/bin/../lib/gcc/aarch64-none-elf/8.3.0/../../../../aarch64-none-elf/lib/pic\libsysbase.a(clocks.o)
 .data          0x0000000000000000        0x0 c:/devkitpro/devkita64/bin/../lib/gcc/aarch64-none-elf/8.3.0/../../../../aarch64-none-elf/lib/pic\libsysbase.a(clocks.o)
 .bss           0x0000000000000000        0x0 c:/devkitpro/devkita64/bin/../lib/gcc/aarch64-none-elf/8.3.0/../../../../aarch64-none-elf/lib/pic\libsysbase.a(clocks.o)
 .comment       0x0000000000000000       0x23 c:/devkitpro/devkita64/bin/../lib/gcc/aarch64-none-elf/8.3.0/../../../../aarch64-none-elf/lib/pic\libsysbase.a(clocks.o)
 .text          0x0000000000000000        0x0 c:/devkitpro/devkita64/bin/../lib/gcc/aarch64-none-elf/8.3.0/pic\libgcc.a(trunctfdf2.o)
 .data          0x0000000000000000        0x0 c:/devkitpro/devkita64/bin/../lib/gcc/aarch64-none-elf/8.3.0/pic\libgcc.a(trunctfdf2.o)
 .bss           0x0000000000000000        0x0 c:/devkitpro/devkita64/bin/../lib/gcc/aarch64-none-elf/8.3.0/pic\libgcc.a(trunctfdf2.o)
 .comment       0x0000000000000000       0x23 c:/devkitpro/devkita64/bin/../lib/gcc/aarch64-none-elf/8.3.0/pic\libgcc.a(trunctfdf2.o)
 .text          0x0000000000000000        0x0 c:/devkitpro/devkita64/bin/../lib/gcc/aarch64-none-elf/8.3.0/pic\libgcc.a(sfp-exceptions.o)
 .data          0x0000000000000000        0x0 c:/devkitpro/devkita64/bin/../lib/gcc/aarch64-none-elf/8.3.0/pic\libgcc.a(sfp-exceptions.o)
 .bss           0x0000000000000000        0x0 c:/devkitpro/devkita64/bin/../lib/gcc/aarch64-none-elf/8.3.0/pic\libgcc.a(sfp-exceptions.o)
 .comment       0x0000000000000000       0x23 c:/devkitpro/devkita64/bin/../lib/gcc/aarch64-none-elf/8.3.0/pic\libgcc.a(sfp-exceptions.o)
 .data          0x0000000000000000        0x0 c:/devkitpro/devkita64/bin/../lib/gcc/aarch64-none-elf/8.3.0/../../../../aarch64-none-elf/lib/pic\libg.a(lib_a-strrchr.o)
 .bss           0x0000000000000000        0x0 c:/devkitpro/devkita64/bin/../lib/gcc/aarch64-none-elf/8.3.0/../../../../aarch64-none-elf/lib/pic\libg.a(lib_a-strrchr.o)
 .text          0x0000000000000000        0x0 c:/devkitpro/devkita64/bin/../lib/gcc/aarch64-none-elf/8.3.0/pic/crtend.o
 .data          0x0000000000000000        0x0 c:/devkitpro/devkita64/bin/../lib/gcc/aarch64-none-elf/8.3.0/pic/crtend.o
 .bss           0x0000000000000000        0x0 c:/devkitpro/devkita64/bin/../lib/gcc/aarch64-none-elf/8.3.0/pic/crtend.o
 .comment       0x0000000000000000       0x23 c:/devkitpro/devkita64/bin/../lib/gcc/aarch64-none-elf/8.3.0/pic/crtend.o
 .text          0x0000000000000000        0x0 c:/devkitpro/devkita64/bin/../lib/gcc/aarch64-none-elf/8.3.0/pic/crtn.o
 .data          0x0000000000000000        0x0 c:/devkitpro/devkita64/bin/../lib/gcc/aarch64-none-elf/8.3.0/pic/crtn.o
 .bss           0x0000000000000000        0x0 c:/devkitpro/devkita64/bin/../lib/gcc/aarch64-none-elf/8.3.0/pic/crtn.o

Memory Configuration

Name             Origin             Length             Attributes
*default*        0x0000000000000000 0xffffffffffffffff

Linker script and memory map

                0x0000000000000000                PROVIDE (__start__ = 0x0)
                0x0000000000000000                . = __start__

.crt0           0x0000000000000000      0x158
 *(.crt0)
 .crt0          0x0000000000000000      0x158 S:/UltimateEnvironment/code-mod-example/param-replace/code-mod-framework/lib/libnx_min/nx/lib\libnx_min.a(switch_crt0.o)
                0x0000000000000000                _start
                0x0000000000000120                __nx_exit
                0x0000000000000130                __nx_mod0
                0x0000000000000158                . = ALIGN (0x8)

.init           0x0000000000000158       0x38
 *(.init)
 .init          0x0000000000000158       0x18 c:/devkitpro/devkita64/bin/../lib/gcc/aarch64-none-elf/8.3.0/pic/crti.o
                0x0000000000000158                _init
 .init          0x0000000000000170       0x1c c:/devkitpro/devkita64/bin/../lib/gcc/aarch64-none-elf/8.3.0/pic/crtn.o
                0x0000000000000190                . = ALIGN (0x8)
 *fill*         0x000000000000018c        0x4 

.plt            0x0000000000000190       0xa0
 *(.plt)
 .plt           0x0000000000000190       0xa0 c:/devkitpro/devkita64/bin/../lib/gcc/aarch64-none-elf/8.3.0/pic/crti.o
 *(.iplt)
                0x0000000000000230                . = ALIGN (0x8)

.text           0x0000000000000240    0x2a308
 *(.text.unlikely .text.*_unlikely .text.unlikely.*)
 *(.text.exit .text.exit.*)
 .text.exit     0x0000000000000240       0x38 c:/devkitpro/devkita64/bin/../lib/gcc/aarch64-none-elf/8.3.0/../../../../aarch64-none-elf/lib/pic\libg.a(lib_a-exit.o)
                0x0000000000000240                exit
 *(.text.startup .text.startup.*)
 *fill*         0x0000000000000278        0x8 
 .text.startup  0x0000000000000280       0x78 main.o
                0x0000000000000280                main
 *(.text.hot .text.hot.*)
 *(.text .stub .text.* .gnu.linkonce.t.*)
 .text.deregister_tm_clones
                0x00000000000002f8       0x2c c:/devkitpro/devkita64/bin/../lib/gcc/aarch64-none-elf/8.3.0/pic/crtbegin.o
 *fill*         0x0000000000000324        0x4 
 .text.register_tm_clones
                0x0000000000000328       0x38 c:/devkitpro/devkita64/bin/../lib/gcc/aarch64-none-elf/8.3.0/pic/crtbegin.o
 .text.__do_global_dtors_aux
                0x0000000000000360       0x48 c:/devkitpro/devkita64/bin/../lib/gcc/aarch64-none-elf/8.3.0/pic/crtbegin.o
 .text.frame_dummy
                0x00000000000003a8       0x34 c:/devkitpro/devkita64/bin/../lib/gcc/aarch64-none-elf/8.3.0/pic/crtbegin.o
 *fill*         0x00000000000003dc        0x4 
 .text          0x00000000000003e0     0x14a0 main.o
                0x00000000000003e0                end_shieldbreakfly_replace(unsigned long, unsigned long)
                0x00000000000004a0                LoadModule_intercept(nn::ro::Module*, void const*, void*, unsigned long, int)
                0x0000000000000500                app::lua_bind::WorkModule::get_param_float_replace(unsigned long, unsigned long, unsigned long)
                0x0000000000000560                shine_replace(lib::L2CAgent*, void*)
                0x0000000000000c80                clear_lua_stack_replace(lib::L2CAgent*)
                0x0000000000000d10                squirtle_utilt(lib::L2CAgent*, void*)
                0x0000000000001170                ivy_upsmash(lib::L2CAgent*, void*)
                0x0000000000001690                replace_scripts(lib::L2CAgent*, unsigned char, int)
                0x00000000000016f0                sv_get_status_func(unsigned long, int, unsigned long)
                0x0000000000001740                sv_replace_status_func(unsigned long, int, unsigned long, void*)
                0x0000000000001780                script_replacement()
                0x00000000000017e0                __libnx_init
                0x0000000000001830                __libnx_exit
 .text          0x0000000000001880      0x8c8 acmd_wrapper.o
                0x0000000000001880                is_before_frame(unsigned long, float)
                0x00000000000018b0                load_module(unsigned long, unsigned long)
                0x00000000000018c0                load_module_impl(unsigned long, unsigned long)
                0x00000000000018d0                ACMD::ACMD(lib::L2CAgent*)
                0x00000000000018d0                ACMD::ACMD(lib::L2CAgent*)
                0x0000000000001910                ACMD::frame(float)
                0x00000000000019a0                ACMD::_frame(float)
                0x0000000000001a90                ACMD::wait(float)
                0x0000000000001b20                ACMD::is_excute()
                0x0000000000001bc0                ACMD::wrap(unsigned long (*)(unsigned long), std::initializer_list<lib::L2CValue>)
                0x0000000000001c60                ACMD::ATTACK(unsigned long, unsigned long, unsigned long, float, unsigned long, unsigned long, unsigned long, unsigned long, float, float, float, float, float, float, unsigned long, unsigned long, unsigned long, unsigned long, float, unsigned long, unsigned long, unsigned long, unsigned long, unsigned long, unsigned long, unsigned long, unsigned long, unsigned long, unsigned long, unsigned long, unsigned long, unsigned long, unsigned long)
                0x0000000000001ee0                ACMD::ATTACK(unsigned long, unsigned long, unsigned long, float, unsigned long, unsigned long, unsigned long, unsigned long, float, float, float, float, float, float, float, float, float, unsigned long, unsigned long, unsigned long, unsigned long, float, unsigned long, unsigned long, unsigned long, unsigned long, unsigned long, unsigned long, unsigned long, unsigned long, unsigned long, unsigned long, unsigned long, unsigned long, unsigned long, unsigned long)
 *fill*         0x0000000000002148        0x8 
 .text          0x0000000000002150       0x94 saltysd_helper.o
                0x0000000000002150                SaltySD_function_replace(unsigned long, unsigned long)
                0x00000000000021c0                SaltySD_function_replace_sym(char*, unsigned long)
 *fill*         0x00000000000021e4        0xc 
 .text          0x00000000000021f0      0x350 lua_bind_hash.o
                0x00000000000021f0                lua_bind_hash(void const*, unsigned long)
                0x0000000000002510                lua_bind_hash_str(char const*)
 .text          0x0000000000002540      0x128 l2c_imports.o
                0x0000000000002540                lib::lua_const(char const*)
                0x0000000000002580                lib::L2CValue::L2CValue()
                0x0000000000002580                lib::L2CValue::L2CValue()
                0x0000000000002590                lib::L2CValue::L2CValue(bool)
                0x0000000000002590                lib::L2CValue::L2CValue(bool)
                0x00000000000025b0                lib::L2CValue::L2CValue(int)
                0x00000000000025b0                lib::L2CValue::L2CValue(int)
                0x00000000000025d0                lib::L2CValue::L2CValue(unsigned long)
                0x00000000000025d0                lib::L2CValue::L2CValue(unsigned long)
                0x00000000000025e0                lib::L2CValue::L2CValue(float)
                0x00000000000025e0                lib::L2CValue::L2CValue(float)
                0x00000000000025f0                lib::L2CValue::L2CValue(double)
                0x00000000000025f0                lib::L2CValue::L2CValue(double)
                0x0000000000002610                lib::L2CValue::L2CValue(char const*)
                0x0000000000002610                lib::L2CValue::L2CValue(char const*)
                0x0000000000002620                lib::L2CAgent::get_lua_stack(int, lib::L2CValue*)
                0x0000000000002630                lib::L2CAgent::_clear_lua_stack()
 *fill*         0x0000000000002668        0x8 
 .text          0x0000000000002670      0x500 raygun_printer.o
                0x0000000000002670                show_segment(unsigned long, float, float, float, float, float)
                0x0000000000002740                alphabet_index(char)
                0x00000000000027b0                print_char(unsigned long, char, int, float, float)
                0x0000000000002910                print_string(unsigned long, char const*, ...)
 .text.__libnx_exception_entry
                0x0000000000002b70      0x1c0 S:/UltimateEnvironment/code-mod-example/param-replace/code-mod-framework/lib/libnx_min/nx/lib\libnx_min.a(exception.o)
                0x0000000000002b70                __libnx_exception_entry
 .text.__libnx_exception_returnentry
                0x0000000000002d30       0x18 S:/UltimateEnvironment/code-mod-example/param-replace/code-mod-framework/lib/libnx_min/nx/lib\libnx_min.a(exception.o)
                0x0000000000002d30                __libnx_exception_returnentry
 *fill*         0x0000000000002d48        0x8 
 .text.argvSetup
                0x0000000000002d50      0x318 S:/UltimateEnvironment/code-mod-example/param-replace/code-mod-framework/lib/libnx_min/nx/lib\libnx_min.a(argv.o)
                0x0000000000002d50                argvSetup
 *fill*         0x0000000000003068        0x8 
 .text.envSetup
                0x0000000000003070      0x208 S:/UltimateEnvironment/code-mod-example/param-replace/code-mod-framework/lib/libnx_min/nx/lib\libnx_min.a(env.o)
                0x0000000000003070                envSetup
 *fill*         0x0000000000003278        0x8 
 .text.envGetMainThreadHandle
                0x0000000000003280       0x20 S:/UltimateEnvironment/code-mod-example/param-replace/code-mod-framework/lib/libnx_min/nx/lib\libnx_min.a(env.o)
                0x0000000000003280                envGetMainThreadHandle
 .text.envIsNso
                0x00000000000032a0        0xc S:/UltimateEnvironment/code-mod-example/param-replace/code-mod-framework/lib/libnx_min/nx/lib\libnx_min.a(env.o)
                0x00000000000032a0                envIsNso
 *fill*         0x00000000000032ac        0x4 
 .text.envHasHeapOverride
                0x00000000000032b0       0x14 S:/UltimateEnvironment/code-mod-example/param-replace/code-mod-framework/lib/libnx_min/nx/lib\libnx_min.a(env.o)
                0x00000000000032b0                envHasHeapOverride
 *fill*         0x00000000000032c4        0xc 
 .text.envGetHeapOverrideAddr
                0x00000000000032d0        0xc S:/UltimateEnvironment/code-mod-example/param-replace/code-mod-framework/lib/libnx_min/nx/lib\libnx_min.a(env.o)
                0x00000000000032d0                envGetHeapOverrideAddr
 *fill*         0x00000000000032dc        0x4 
 .text.envGetHeapOverrideSize
                0x00000000000032e0        0xc S:/UltimateEnvironment/code-mod-example/param-replace/code-mod-framework/lib/libnx_min/nx/lib\libnx_min.a(env.o)
                0x00000000000032e0                envGetHeapOverrideSize
 *fill*         0x00000000000032ec        0x4 
 .text.envHasArgv
                0x00000000000032f0       0x14 S:/UltimateEnvironment/code-mod-example/param-replace/code-mod-framework/lib/libnx_min/nx/lib\libnx_min.a(env.o)
                0x00000000000032f0                envHasArgv
 *fill*         0x0000000000003304        0xc 
 .text.envGetArgv
                0x0000000000003310        0xc S:/UltimateEnvironment/code-mod-example/param-replace/code-mod-framework/lib/libnx_min/nx/lib\libnx_min.a(env.o)
                0x0000000000003310                envGetArgv
 *fill*         0x000000000000331c        0x4 
 .text.envIsSyscallHinted
                0x0000000000003320       0x20 S:/UltimateEnvironment/code-mod-example/param-replace/code-mod-framework/lib/libnx_min/nx/lib\libnx_min.a(env.o)
                0x0000000000003320                envIsSyscallHinted
 .text.envGetOwnProcessHandle
                0x0000000000003340        0xc S:/UltimateEnvironment/code-mod-example/param-replace/code-mod-framework/lib/libnx_min/nx/lib\libnx_min.a(env.o)
                0x0000000000003340                envGetOwnProcessHandle
 *fill*         0x000000000000334c        0x4 
 .text.envGetExitFuncPtr
                0x0000000000003350        0xc S:/UltimateEnvironment/code-mod-example/param-replace/code-mod-framework/lib/libnx_min/nx/lib\libnx_min.a(env.o)
                0x0000000000003350                envGetExitFuncPtr
 *fill*         0x000000000000335c        0x4 
 .text.envSetExitFuncPtr
                0x0000000000003360        0xc S:/UltimateEnvironment/code-mod-example/param-replace/code-mod-framework/lib/libnx_min/nx/lib\libnx_min.a(env.o)
                0x0000000000003360                envSetExitFuncPtr
 *fill*         0x000000000000336c        0x4 
 .text.envSetNextLoad
                0x0000000000003370       0x7c S:/UltimateEnvironment/code-mod-example/param-replace/code-mod-framework/lib/libnx_min/nx/lib\libnx_min.a(env.o)
                0x0000000000003370                envSetNextLoad
 *fill*         0x00000000000033ec        0x4 
 .text.envHasNextLoad
                0x00000000000033f0       0x14 S:/UltimateEnvironment/code-mod-example/param-replace/code-mod-framework/lib/libnx_min/nx/lib\libnx_min.a(env.o)
                0x00000000000033f0                envHasNextLoad
 *fill*         0x0000000000003404        0xc 
 .text.envGetLastLoadResult
                0x0000000000003410        0xc S:/UltimateEnvironment/code-mod-example/param-replace/code-mod-framework/lib/libnx_min/nx/lib\libnx_min.a(env.o)
                0x0000000000003410                envGetLastLoadResult
 *fill*         0x000000000000341c        0x4 
 .text.envHasRandomSeed
                0x0000000000003420        0xc S:/UltimateEnvironment/code-mod-example/param-replace/code-mod-framework/lib/libnx_min/nx/lib\libnx_min.a(env.o)
                0x0000000000003420                envHasRandomSeed
 *fill*         0x000000000000342c        0x4 
 .text.envGetRandomSeed
                0x0000000000003430       0x18 S:/UltimateEnvironment/code-mod-example/param-replace/code-mod-framework/lib/libnx_min/nx/lib\libnx_min.a(env.o)
                0x0000000000003430                envGetRandomSeed
 *fill*         0x0000000000003448        0x8 
 .text.__libnx_initheap
                0x0000000000003450       0xd8 S:/UltimateEnvironment/code-mod-example/param-replace/code-mod-framework/lib/libnx_min/nx/lib\libnx_min.a(init.o)
                0x0000000000003450                __libnx_initheap
 *fill*         0x0000000000003528        0x8 
 .text.__appInit
                0x0000000000003530       0xdc S:/UltimateEnvironment/code-mod-example/param-replace/code-mod-framework/lib/libnx_min/nx/lib\libnx_min.a(init.o)
                0x0000000000003530                __appInit
 *fill*         0x000000000000360c        0x4 
 .text.__appExit
                0x0000000000003610       0x44 S:/UltimateEnvironment/code-mod-example/param-replace/code-mod-framework/lib/libnx_min/nx/lib\libnx_min.a(init.o)
                0x0000000000003610                __appExit
 *fill*         0x0000000000003654        0xc 
 .text.hosversionGet
                0x0000000000003660       0x10 S:/UltimateEnvironment/code-mod-example/param-replace/code-mod-framework/lib/libnx_min/nx/lib\libnx_min.a(hosversion.o)
                0x0000000000003660                hosversionGet
 .text.hosversionSet
                0x0000000000003670       0x10 S:/UltimateEnvironment/code-mod-example/param-replace/code-mod-framework/lib/libnx_min/nx/lib\libnx_min.a(hosversion.o)
                0x0000000000003670                hosversionSet
 .text.__nx_dynamic
                0x0000000000003680       0xa0 S:/UltimateEnvironment/code-mod-example/param-replace/code-mod-framework/lib/libnx_min/nx/lib\libnx_min.a(dynamic.o)
                0x0000000000003680                __nx_dynamic
 .text.fsdev_link
                0x0000000000003720       0x10 S:/UltimateEnvironment/code-mod-example/param-replace/code-mod-framework/lib/libnx_min/nx/lib\libnx_min.a(fs_dev.o)
 .text.fsdev_dirreset
                0x0000000000003730       0x10 S:/UltimateEnvironment/code-mod-example/param-replace/code-mod-framework/lib/libnx_min/nx/lib\libnx_min.a(fs_dev.o)
 .text.fsdev_chmod
                0x0000000000003740       0x10 S:/UltimateEnvironment/code-mod-example/param-replace/code-mod-framework/lib/libnx_min/nx/lib\libnx_min.a(fs_dev.o)
 .text.error_cmp
                0x0000000000003750       0x1c S:/UltimateEnvironment/code-mod-example/param-replace/code-mod-framework/lib/libnx_min/nx/lib\libnx_min.a(fs_dev.o)
 *fill*         0x000000000000376c        0x4 
 .text.fsdev_translate_error
                0x0000000000003770       0x5c S:/UltimateEnvironment/code-mod-example/param-replace/code-mod-framework/lib/libnx_min/nx/lib\libnx_min.a(fs_dev.o)
 *fill*         0x00000000000037cc        0x4 
 .text.fsdev_fsync
                0x00000000000037d0       0x40 S:/UltimateEnvironment/code-mod-example/param-replace/code-mod-framework/lib/libnx_min/nx/lib\libnx_min.a(fs_dev.o)
 .text.fsdev_ftruncate
                0x0000000000003810       0x60 S:/UltimateEnvironment/code-mod-example/param-replace/code-mod-framework/lib/libnx_min/nx/lib\libnx_min.a(fs_dev.o)
 .text.fsdev_dirclose
                0x0000000000003870       0x20 S:/UltimateEnvironment/code-mod-example/param-replace/code-mod-framework/lib/libnx_min/nx/lib\libnx_min.a(fs_dev.o)
 .text.fsdev_dirnext
                0x0000000000003890      0x16c S:/UltimateEnvironment/code-mod-example/param-replace/code-mod-framework/lib/libnx_min/nx/lib\libnx_min.a(fs_dev.o)
 *fill*         0x00000000000039fc        0x4 
 .text.fsdev_close
                0x0000000000003a00       0x1c S:/UltimateEnvironment/code-mod-example/param-replace/code-mod-framework/lib/libnx_min/nx/lib\libnx_min.a(fs_dev.o)
 *fill*         0x0000000000003a1c        0x4 
 .text.fsdev_fstat
                0x0000000000003a20       0xa4 S:/UltimateEnvironment/code-mod-example/param-replace/code-mod-framework/lib/libnx_min/nx/lib\libnx_min.a(fs_dev.o)
 *fill*         0x0000000000003ac4        0xc 
 .text.fsdev_seek
                0x0000000000003ad0       0xb0 S:/UltimateEnvironment/code-mod-example/param-replace/code-mod-framework/lib/libnx_min/nx/lib\libnx_min.a(fs_dev.o)
 .text.fsdev_read
                0x0000000000003b80      0x1a0 S:/UltimateEnvironment/code-mod-example/param-replace/code-mod-framework/lib/libnx_min/nx/lib\libnx_min.a(fs_dev.o)
 .text.fsdev_write
                0x0000000000003d20      0x1a8 S:/UltimateEnvironment/code-mod-example/param-replace/code-mod-framework/lib/libnx_min/nx/lib\libnx_min.a(fs_dev.o)
 *fill*         0x0000000000003ec8        0x8 
 .text.fsdevFindDevice
                0x0000000000003ed0      0x120 S:/UltimateEnvironment/code-mod-example/param-replace/code-mod-framework/lib/libnx_min/nx/lib\libnx_min.a(fs_dev.o)
 .text._fsdevMountDevice
                0x0000000000003ff0      0x140 S:/UltimateEnvironment/code-mod-example/param-replace/code-mod-framework/lib/libnx_min/nx/lib\libnx_min.a(fs_dev.o)
 .text.fsdev_getfspath
                0x0000000000004130      0x1fc S:/UltimateEnvironment/code-mod-example/param-replace/code-mod-framework/lib/libnx_min/nx/lib\libnx_min.a(fs_dev.o)
 *fill*         0x000000000000432c        0x4 
 .text.fsdev_rmdir
                0x0000000000004330       0x70 S:/UltimateEnvironment/code-mod-example/param-replace/code-mod-framework/lib/libnx_min/nx/lib\libnx_min.a(fs_dev.o)
 .text.fsdev_statvfs
                0x00000000000043a0       0xd4 S:/UltimateEnvironment/code-mod-example/param-replace/code-mod-framework/lib/libnx_min/nx/lib\libnx_min.a(fs_dev.o)
 *fill*         0x0000000000004474        0xc 
 .text.fsdev_diropen
                0x0000000000004480       0xec S:/UltimateEnvironment/code-mod-example/param-replace/code-mod-framework/lib/libnx_min/nx/lib\libnx_min.a(fs_dev.o)
 *fill*         0x000000000000456c        0x4 
 .text.fsdev_mkdir
                0x0000000000004570       0x70 S:/UltimateEnvironment/code-mod-example/param-replace/code-mod-framework/lib/libnx_min/nx/lib\libnx_min.a(fs_dev.o)
 .text.fsdev_rename
                0x00000000000045e0      0x114 S:/UltimateEnvironment/code-mod-example/param-replace/code-mod-framework/lib/libnx_min/nx/lib\libnx_min.a(fs_dev.o)
 *fill*         0x00000000000046f4        0xc 
 .text.fsdev_chdir
                0x0000000000004700       0xe8 S:/UltimateEnvironment/code-mod-example/param-replace/code-mod-framework/lib/libnx_min/nx/lib\libnx_min.a(fs_dev.o)
 *fill*         0x00000000000047e8        0x8 
 .text.fsdev_unlink
                0x00000000000047f0       0x70 S:/UltimateEnvironment/code-mod-example/param-replace/code-mod-framework/lib/libnx_min/nx/lib\libnx_min.a(fs_dev.o)
 .text.fsdev_stat
                0x0000000000004860      0x1bc S:/UltimateEnvironment/code-mod-example/param-replace/code-mod-framework/lib/libnx_min/nx/lib\libnx_min.a(fs_dev.o)
 *fill*         0x0000000000004a1c        0x4 
 .text.fsdev_open
                0x0000000000004a20      0x19c S:/UltimateEnvironment/code-mod-example/param-replace/code-mod-framework/lib/libnx_min/nx/lib\libnx_min.a(fs_dev.o)
 *fill*         0x0000000000004bbc        0x4 
 .text._fsdevUnmountDeviceStruct.part.4
                0x0000000000004bc0       0xb8 S:/UltimateEnvironment/code-mod-example/param-replace/code-mod-framework/lib/libnx_min/nx/lib\libnx_min.a(fs_dev.o)
 *fill*         0x0000000000004c78        0x8 
 .text.fsdev_fchmod
                0x0000000000004c80       0x10 S:/UltimateEnvironment/code-mod-example/param-replace/code-mod-framework/lib/libnx_min/nx/lib\libnx_min.a(fs_dev.o)
 .text.fsdevMountDevice
                0x0000000000004c90       0x14 S:/UltimateEnvironment/code-mod-example/param-replace/code-mod-framework/lib/libnx_min/nx/lib\libnx_min.a(fs_dev.o)
                0x0000000000004c90                fsdevMountDevice
 *fill*         0x0000000000004ca4        0xc 
 .text.fsdevUnmountDevice
                0x0000000000004cb0       0x3c S:/UltimateEnvironment/code-mod-example/param-replace/code-mod-framework/lib/libnx_min/nx/lib\libnx_min.a(fs_dev.o)
                0x0000000000004cb0                fsdevUnmountDevice
 *fill*         0x0000000000004cec        0x4 
 .text.fsdevCommitDevice
                0x0000000000004cf0       0x28 S:/UltimateEnvironment/code-mod-example/param-replace/code-mod-framework/lib/libnx_min/nx/lib\libnx_min.a(fs_dev.o)
                0x0000000000004cf0                fsdevCommitDevice
 *fill*         0x0000000000004d18        0x8 
 .text.fsdevSetArchiveBit
                0x0000000000004d20       0x68 S:/UltimateEnvironment/code-mod-example/param-replace/code-mod-framework/lib/libnx_min/nx/lib\libnx_min.a(fs_dev.o)
                0x0000000000004d20                fsdevSetArchiveBit
 *fill*         0x0000000000004d88        0x8 
 .text.fsdevCreateFile
                0x0000000000004d90       0x88 S:/UltimateEnvironment/code-mod-example/param-replace/code-mod-framework/lib/libnx_min/nx/lib\libnx_min.a(fs_dev.o)
                0x0000000000004d90                fsdevCreateFile
 *fill*         0x0000000000004e18        0x8 
 .text.fsdevDeleteDirectoryRecursively
                0x0000000000004e20       0x68 S:/UltimateEnvironment/code-mod-example/param-replace/code-mod-framework/lib/libnx_min/nx/lib\libnx_min.a(fs_dev.o)
                0x0000000000004e20                fsdevDeleteDirectoryRecursively
 *fill*         0x0000000000004e88        0x8 
 .text.fsdevMountSdmc
                0x0000000000004e90      0x170 S:/UltimateEnvironment/code-mod-example/param-replace/code-mod-framework/lib/libnx_min/nx/lib\libnx_min.a(fs_dev.o)
                0x0000000000004e90                fsdevMountSdmc
 .text.fsdevUnmountAll
                0x0000000000005000       0x64 S:/UltimateEnvironment/code-mod-example/param-replace/code-mod-framework/lib/libnx_min/nx/lib\libnx_min.a(fs_dev.o)
                0x0000000000005000                fsdevUnmountAll
 *fill*         0x0000000000005064        0xc 
 .text.fsdevGetDeviceFileSystem
                0x0000000000005070       0x20 S:/UltimateEnvironment/code-mod-example/param-replace/code-mod-framework/lib/libnx_min/nx/lib\libnx_min.a(fs_dev.o)
                0x0000000000005070                fsdevGetDeviceFileSystem
 .text.fsdevGetDefaultFileSystem
                0x0000000000005090       0x40 S:/UltimateEnvironment/code-mod-example/param-replace/code-mod-framework/lib/libnx_min/nx/lib\libnx_min.a(fs_dev.o)
                0x0000000000005090                fsdevGetDefaultFileSystem
 .text.fsdevTranslatePath
                0x00000000000050d0       0x58 S:/UltimateEnvironment/code-mod-example/param-replace/code-mod-framework/lib/libnx_min/nx/lib\libnx_min.a(fs_dev.o)
                0x00000000000050d0                fsdevTranslatePath
 *fill*         0x0000000000005128        0x8 
 .text.fsdev_getmtime
                0x0000000000005130       0x20 S:/UltimateEnvironment/code-mod-example/param-replace/code-mod-framework/lib/libnx_min/nx/lib\libnx_min.a(fs_dev.o)
                0x0000000000005130                fsdev_getmtime
 .text.fsdevGetLastResult
                0x0000000000005150       0x20 S:/UltimateEnvironment/code-mod-example/param-replace/code-mod-framework/lib/libnx_min/nx/lib\libnx_min.a(fs_dev.o)
                0x0000000000005150                fsdevGetLastResult
 .text.decode_utf8
                0x0000000000005170      0x12c S:/UltimateEnvironment/code-mod-example/param-replace/code-mod-framework/lib/libnx_min/nx/lib\libnx_min.a(decode_utf8.o)
                0x0000000000005170                decode_utf8
 .text.svcSetHeapSize
                0x000000000000529c       0x14 S:/UltimateEnvironment/code-mod-example/param-replace/code-mod-framework/lib/libnx_min/nx/lib\libnx_min.a(svc.o)
                0x000000000000529c                svcSetHeapSize
 .text.svcSetMemoryPermission
                0x00000000000052b0        0x8 S:/UltimateEnvironment/code-mod-example/param-replace/code-mod-framework/lib/libnx_min/nx/lib\libnx_min.a(svc.o)
                0x00000000000052b0                svcSetMemoryPermission
 .text.svcSetMemoryAttribute
                0x00000000000052b8        0x8 S:/UltimateEnvironment/code-mod-example/param-replace/code-mod-framework/lib/libnx_min/nx/lib\libnx_min.a(svc.o)
                0x00000000000052b8                svcSetMemoryAttribute
 .text.svcMapMemory
                0x00000000000052c0        0x8 S:/UltimateEnvironment/code-mod-example/param-replace/code-mod-framework/lib/libnx_min/nx/lib\libnx_min.a(svc.o)
                0x00000000000052c0                svcMapMemory
 .text.svcUnmapMemory
                0x00000000000052c8        0x8 S:/UltimateEnvironment/code-mod-example/param-replace/code-mod-framework/lib/libnx_min/nx/lib\libnx_min.a(svc.o)
                0x00000000000052c8                svcUnmapMemory
 .text.svcQueryMemory
                0x00000000000052d0       0x14 S:/UltimateEnvironment/code-mod-example/param-replace/code-mod-framework/lib/libnx_min/nx/lib\libnx_min.a(svc.o)
                0x00000000000052d0                svcQueryMemory
 .text.svcExitProcess
                0x00000000000052e4        0x8 S:/UltimateEnvironment/code-mod-example/param-replace/code-mod-framework/lib/libnx_min/nx/lib\libnx_min.a(svc.o)
                0x00000000000052e4                svcExitProcess
 .text.svcCreateThread
                0x00000000000052ec       0x14 S:/UltimateEnvironment/code-mod-example/param-replace/code-mod-framework/lib/libnx_min/nx/lib\libnx_min.a(svc.o)
                0x00000000000052ec                svcCreateThread
 .text.svcStartThread
                0x0000000000005300        0x8 S:/UltimateEnvironment/code-mod-example/param-replace/code-mod-framework/lib/libnx_min/nx/lib\libnx_min.a(svc.o)
                0x0000000000005300                svcStartThread
 .text.svcExitThread
                0x0000000000005308        0x8 S:/UltimateEnvironment/code-mod-example/param-replace/code-mod-framework/lib/libnx_min/nx/lib\libnx_min.a(svc.o)
                0x0000000000005308                svcExitThread
 .text.svcSleepThread
                0x0000000000005310        0x8 S:/UltimateEnvironment/code-mod-example/param-replace/code-mod-framework/lib/libnx_min/nx/lib\libnx_min.a(svc.o)
                0x0000000000005310                svcSleepThread
 .text.svcGetThreadPriority
                0x0000000000005318       0x14 S:/UltimateEnvironment/code-mod-example/param-replace/code-mod-framework/lib/libnx_min/nx/lib\libnx_min.a(svc.o)
                0x0000000000005318                svcGetThreadPriority
 .text.svcSetThreadPriority
                0x000000000000532c        0x8 S:/UltimateEnvironment/code-mod-example/param-replace/code-mod-framework/lib/libnx_min/nx/lib\libnx_min.a(svc.o)
                0x000000000000532c                svcSetThreadPriority
 .text.svcGetThreadCoreMask
                0x0000000000005334       0x18 S:/UltimateEnvironment/code-mod-example/param-replace/code-mod-framework/lib/libnx_min/nx/lib\libnx_min.a(svc.o)
                0x0000000000005334                svcGetThreadCoreMask
 .text.svcSetThreadCoreMask
                0x000000000000534c        0x8 S:/UltimateEnvironment/code-mod-example/param-replace/code-mod-framework/lib/libnx_min/nx/lib\libnx_min.a(svc.o)
                0x000000000000534c                svcSetThreadCoreMask
 .text.svcGetCurrentProcessorNumber
                0x0000000000005354        0x8 S:/UltimateEnvironment/code-mod-example/param-replace/code-mod-framework/lib/libnx_min/nx/lib\libnx_min.a(svc.o)
                0x0000000000005354                svcGetCurrentProcessorNumber
 .text.svcSignalEvent
                0x000000000000535c        0x8 S:/UltimateEnvironment/code-mod-example/param-replace/code-mod-framework/lib/libnx_min/nx/lib\libnx_min.a(svc.o)
                0x000000000000535c                svcSignalEvent
 .text.svcClearEvent
                0x0000000000005364        0x8 S:/UltimateEnvironment/code-mod-example/param-replace/code-mod-framework/lib/libnx_min/nx/lib\libnx_min.a(svc.o)
                0x0000000000005364                svcClearEvent
 .text.svcMapSharedMemory
                0x000000000000536c        0x8 S:/UltimateEnvironment/code-mod-example/param-replace/code-mod-framework/lib/libnx_min/nx/lib\libnx_min.a(svc.o)
                0x000000000000536c                svcMapSharedMemory
 .text.svcUnmapSharedMemory
                0x0000000000005374        0x8 S:/UltimateEnvironment/code-mod-example/param-replace/code-mod-framework/lib/libnx_min/nx/lib\libnx_min.a(svc.o)
                0x0000000000005374                svcUnmapSharedMemory
 .text.svcCreateTransferMemory
                0x000000000000537c       0x14 S:/UltimateEnvironment/code-mod-example/param-replace/code-mod-framework/lib/libnx_min/nx/lib\libnx_min.a(svc.o)
                0x000000000000537c                svcCreateTransferMemory
 .text.svcCloseHandle
                0x0000000000005390        0x8 S:/UltimateEnvironment/code-mod-example/param-replace/code-mod-framework/lib/libnx_min/nx/lib\libnx_min.a(svc.o)
                0x0000000000005390                svcCloseHandle
 .text.svcResetSignal
                0x0000000000005398        0x8 S:/UltimateEnvironment/code-mod-example/param-replace/code-mod-framework/lib/libnx_min/nx/lib\libnx_min.a(svc.o)
                0x0000000000005398                svcResetSignal
 .text.svcWaitSynchronization
                0x00000000000053a0       0x14 S:/UltimateEnvironment/code-mod-example/param-replace/code-mod-framework/lib/libnx_min/nx/lib\libnx_min.a(svc.o)
                0x00000000000053a0                svcWaitSynchronization
 .text.svcCancelSynchronization
                0x00000000000053b4        0x8 S:/UltimateEnvironment/code-mod-example/param-replace/code-mod-framework/lib/libnx_min/nx/lib\libnx_min.a(svc.o)
                0x00000000000053b4                svcCancelSynchronization
 .text.svcArbitrateLock
                0x00000000000053bc        0x8 S:/UltimateEnvironment/code-mod-example/param-replace/code-mod-framework/lib/libnx_min/nx/lib\libnx_min.a(svc.o)
                0x00000000000053bc                svcArbitrateLock
 .text.svcArbitrateUnlock
                0x00000000000053c4        0x8 S:/UltimateEnvironment/code-mod-example/param-replace/code-mod-framework/lib/libnx_min/nx/lib\libnx_min.a(svc.o)
                0x00000000000053c4                svcArbitrateUnlock
 .text.svcWaitProcessWideKeyAtomic
                0x00000000000053cc        0x8 S:/UltimateEnvironment/code-mod-example/param-replace/code-mod-framework/lib/libnx_min/nx/lib\libnx_min.a(svc.o)
                0x00000000000053cc                svcWaitProcessWideKeyAtomic
 .text.svcSignalProcessWideKey
                0x00000000000053d4        0x8 S:/UltimateEnvironment/code-mod-example/param-replace/code-mod-framework/lib/libnx_min/nx/lib\libnx_min.a(svc.o)
                0x00000000000053d4                svcSignalProcessWideKey
 .text.svcGetSystemTick
                0x00000000000053dc        0x8 S:/UltimateEnvironment/code-mod-example/param-replace/code-mod-framework/lib/libnx_min/nx/lib\libnx_min.a(svc.o)
                0x00000000000053dc                svcGetSystemTick
 .text.svcConnectToNamedPort
                0x00000000000053e4       0x14 S:/UltimateEnvironment/code-mod-example/param-replace/code-mod-framework/lib/libnx_min/nx/lib\libnx_min.a(svc.o)
                0x00000000000053e4                svcConnectToNamedPort
 .text.svcSendSyncRequest
                0x00000000000053f8        0x8 S:/UltimateEnvironment/code-mod-example/param-replace/code-mod-framework/lib/libnx_min/nx/lib\libnx_min.a(svc.o)
                0x00000000000053f8                svcSendSyncRequest
 .text.svcSendSyncRequestWithUserBuffer
                0x0000000000005400        0x8 S:/UltimateEnvironment/code-mod-example/param-replace/code-mod-framework/lib/libnx_min/nx/lib\libnx_min.a(svc.o)
                0x0000000000005400                svcSendSyncRequestWithUserBuffer
 .text.svcSendAsyncRequestWithUserBuffer
                0x0000000000005408       0x14 S:/UltimateEnvironment/code-mod-example/param-replace/code-mod-framework/lib/libnx_min/nx/lib\libnx_min.a(svc.o)
                0x0000000000005408                svcSendAsyncRequestWithUserBuffer
 .text.svcGetProcessId
                0x000000000000541c       0x14 S:/UltimateEnvironment/code-mod-example/param-replace/code-mod-framework/lib/libnx_min/nx/lib\libnx_min.a(svc.o)
                0x000000000000541c                svcGetProcessId
 .text.svcGetThreadId
                0x0000000000005430       0x14 S:/UltimateEnvironment/code-mod-example/param-replace/code-mod-framework/lib/libnx_min/nx/lib\libnx_min.a(svc.o)
                0x0000000000005430                svcGetThreadId
 .text.svcBreak
                0x0000000000005444        0x8 S:/UltimateEnvironment/code-mod-example/param-replace/code-mod-framework/lib/libnx_min/nx/lib\libnx_min.a(svc.o)
                0x0000000000005444                svcBreak
 .text.svcOutputDebugString
                0x000000000000544c        0x8 S:/UltimateEnvironment/code-mod-example/param-replace/code-mod-framework/lib/libnx_min/nx/lib\libnx_min.a(svc.o)
                0x000000000000544c                svcOutputDebugString
 .text.svcReturnFromException
                0x0000000000005454        0x8 S:/UltimateEnvironment/code-mod-example/param-replace/code-mod-framework/lib/libnx_min/nx/lib\libnx_min.a(svc.o)
                0x0000000000005454                svcReturnFromException
 .text.svcGetInfo
                0x000000000000545c       0x14 S:/UltimateEnvironment/code-mod-example/param-replace/code-mod-framework/lib/libnx_min/nx/lib\libnx_min.a(svc.o)
                0x000000000000545c                svcGetInfo
 .text.svcMapPhysicalMemory
                0x0000000000005470        0x8 S:/UltimateEnvironment/code-mod-example/param-replace/code-mod-framework/lib/libnx_min/nx/lib\libnx_min.a(svc.o)
                0x0000000000005470                svcMapPhysicalMemory
 .text.svcUnmapPhysicalMemory
                0x0000000000005478        0x8 S:/UltimateEnvironment/code-mod-example/param-replace/code-mod-framework/lib/libnx_min/nx/lib\libnx_min.a(svc.o)
                0x0000000000005478                svcUnmapPhysicalMemory
 .text.svcGetResourceLimitLimitValue
                0x0000000000005480       0x14 S:/UltimateEnvironment/code-mod-example/param-replace/code-mod-framework/lib/libnx_min/nx/lib\libnx_min.a(svc.o)
                0x0000000000005480                svcGetResourceLimitLimitValue
 .text.svcGetResourceLimitCurrentValue
                0x0000000000005494       0x14 S:/UltimateEnvironment/code-mod-example/param-replace/code-mod-framework/lib/libnx_min/nx/lib\libnx_min.a(svc.o)
                0x0000000000005494                svcGetResourceLimitCurrentValue
 .text.svcSetThreadActivity
                0x00000000000054a8        0x8 S:/UltimateEnvironment/code-mod-example/param-replace/code-mod-framework/lib/libnx_min/nx/lib\libnx_min.a(svc.o)
                0x00000000000054a8                svcSetThreadActivity
 .text.svcGetThreadContext3
                0x00000000000054b0        0x8 S:/UltimateEnvironment/code-mod-example/param-replace/code-mod-framework/lib/libnx_min/nx/lib\libnx_min.a(svc.o)
                0x00000000000054b0                svcGetThreadContext3
 .text.svcCreateSession
                0x00000000000054b8       0x18 S:/UltimateEnvironment/code-mod-example/param-replace/code-mod-framework/lib/libnx_min/nx/lib\libnx_min.a(svc.o)
                0x00000000000054b8                svcCreateSession
 .text.svcAcceptSession
                0x00000000000054d0       0x14 S:/UltimateEnvironment/code-mod-example/param-replace/code-mod-framework/lib/libnx_min/nx/lib\libnx_min.a(svc.o)
                0x00000000000054d0                svcAcceptSession
 .text.svcReplyAndReceive
                0x00000000000054e4       0x14 S:/UltimateEnvironment/code-mod-example/param-replace/code-mod-framework/lib/libnx_min/nx/lib\libnx_min.a(svc.o)
                0x00000000000054e4                svcReplyAndReceive
 .text.svcReplyAndReceiveWithUserBuffer
                0x00000000000054f8       0x14 S:/UltimateEnvironment/code-mod-example/param-replace/code-mod-framework/lib/libnx_min/nx/lib\libnx_min.a(svc.o)
                0x00000000000054f8                svcReplyAndReceiveWithUserBuffer
 .text.svcCreateEvent
                0x000000000000550c       0x18 S:/UltimateEnvironment/code-mod-example/param-replace/code-mod-framework/lib/libnx_min/nx/lib\libnx_min.a(svc.o)
                0x000000000000550c                svcCreateEvent
 .text.svcMapPhysicalMemoryUnsafe
                0x0000000000005524        0x8 S:/UltimateEnvironment/code-mod-example/param-replace/code-mod-framework/lib/libnx_min/nx/lib\libnx_min.a(svc.o)
                0x0000000000005524                svcMapPhysicalMemoryUnsafe
 .text.svcUnmapPhysicalMemoryUnsafe
                0x000000000000552c        0x8 S:/UltimateEnvironment/code-mod-example/param-replace/code-mod-framework/lib/libnx_min/nx/lib\libnx_min.a(svc.o)
                0x000000000000552c                svcUnmapPhysicalMemoryUnsafe
 .text.svcSetUnsafeLimit
                0x0000000000005534        0x8 S:/UltimateEnvironment/code-mod-example/param-replace/code-mod-framework/lib/libnx_min/nx/lib\libnx_min.a(svc.o)
                0x0000000000005534                svcSetUnsafeLimit
 .text.svcCreateCodeMemory
                0x000000000000553c       0x14 S:/UltimateEnvironment/code-mod-example/param-replace/code-mod-framework/lib/libnx_min/nx/lib\libnx_min.a(svc.o)
                0x000000000000553c                svcCreateCodeMemory
 .text.svcControlCodeMemory
                0x0000000000005550        0x8 S:/UltimateEnvironment/code-mod-example/param-replace/code-mod-framework/lib/libnx_min/nx/lib\libnx_min.a(svc.o)
                0x0000000000005550                svcControlCodeMemory
 .text.svcReadWriteRegister
                0x0000000000005558       0x14 S:/UltimateEnvironment/code-mod-example/param-replace/code-mod-framework/lib/libnx_min/nx/lib\libnx_min.a(svc.o)
                0x0000000000005558                svcReadWriteRegister
 .text.svcCreateSharedMemory
                0x000000000000556c       0x14 S:/UltimateEnvironment/code-mod-example/param-replace/code-mod-framework/lib/libnx_min/nx/lib\libnx_min.a(svc.o)
                0x000000000000556c                svcCreateSharedMemory
 .text.svcMapTransferMemory
                0x0000000000005580        0x8 S:/UltimateEnvironment/code-mod-example/param-replace/code-mod-framework/lib/libnx_min/nx/lib\libnx_min.a(svc.o)
                0x0000000000005580                svcMapTransferMemory
 .text.svcUnmapTransferMemory
                0x0000000000005588        0x8 S:/UltimateEnvironment/code-mod-example/param-replace/code-mod-framework/lib/libnx_min/nx/lib\libnx_min.a(svc.o)
                0x0000000000005588                svcUnmapTransferMemory
 .text.svcCreateInterruptEvent
                0x0000000000005590       0x14 S:/UltimateEnvironment/code-mod-example/param-replace/code-mod-framework/lib/libnx_min/nx/lib\libnx_min.a(svc.o)
                0x0000000000005590                svcCreateInterruptEvent
 .text.svcQueryPhysicalAddress
                0x00000000000055a4       0x18 S:/UltimateEnvironment/code-mod-example/param-replace/code-mod-framework/lib/libnx_min/nx/lib\libnx_min.a(svc.o)
                0x00000000000055a4                svcQueryPhysicalAddress
 .text.svcQueryIoMapping
                0x00000000000055bc       0x14 S:/UltimateEnvironment/code-mod-example/param-replace/code-mod-framework/lib/libnx_min/nx/lib\libnx_min.a(svc.o)
                0x00000000000055bc                svcQueryIoMapping
 .text.svcCreateDeviceAddressSpace
                0x00000000000055d0       0x14 S:/UltimateEnvironment/code-mod-example/param-replace/code-mod-framework/lib/libnx_min/nx/lib\libnx_min.a(svc.o)
                0x00000000000055d0                svcCreateDeviceAddressSpace
 .text.svcAttachDeviceAddressSpace
                0x00000000000055e4        0x8 S:/UltimateEnvironment/code-mod-example/param-replace/code-mod-framework/lib/libnx_min/nx/lib\libnx_min.a(svc.o)
                0x00000000000055e4                svcAttachDeviceAddressSpace
 .text.svcDetachDeviceAddressSpace
                0x00000000000055ec        0x8 S:/UltimateEnvironment/code-mod-example/param-replace/code-mod-framework/lib/libnx_min/nx/lib\libnx_min.a(svc.o)
                0x00000000000055ec                svcDetachDeviceAddressSpace
 .text.svcMapDeviceAddressSpaceByForce
                0x00000000000055f4        0x8 S:/UltimateEnvironment/code-mod-example/param-replace/code-mod-framework/lib/libnx_min/nx/lib\libnx_min.a(svc.o)
                0x00000000000055f4                svcMapDeviceAddressSpaceByForce
 .text.svcMapDeviceAddressSpaceAligned
                0x00000000000055fc        0x8 S:/UltimateEnvironment/code-mod-example/param-replace/code-mod-framework/lib/libnx_min/nx/lib\libnx_min.a(svc.o)
                0x00000000000055fc                svcMapDeviceAddressSpaceAligned
 .text.svcUnmapDeviceAddressSpace
                0x0000000000005604        0x8 S:/UltimateEnvironment/code-mod-example/param-replace/code-mod-framework/lib/libnx_min/nx/lib\libnx_min.a(svc.o)
                0x0000000000005604                svcUnmapDeviceAddressSpace
 .text.svcDebugActiveProcess
                0x000000000000560c       0x14 S:/UltimateEnvironment/code-mod-example/param-replace/code-mod-framework/lib/libnx_min/nx/lib\libnx_min.a(svc.o)
                0x000000000000560c                svcDebugActiveProcess
 .text.svcBreakDebugProcess
                0x0000000000005620        0x8 S:/UltimateEnvironment/code-mod-example/param-replace/code-mod-framework/lib/libnx_min/nx/lib\libnx_min.a(svc.o)
                0x0000000000005620                svcBreakDebugProcess
 .text.svcTerminateDebugProcess
                0x0000000000005628        0x8 S:/UltimateEnvironment/code-mod-example/param-replace/code-mod-framework/lib/libnx_min/nx/lib\libnx_min.a(svc.o)
                0x0000000000005628                svcTerminateDebugProcess
 .text.svcGetDebugEvent
                0x0000000000005630        0x8 S:/UltimateEnvironment/code-mod-example/param-replace/code-mod-framework/lib/libnx_min/nx/lib\libnx_min.a(svc.o)
                0x0000000000005630                svcGetDebugEvent
 .text.svcLegacyContinueDebugEvent
                0x0000000000005638        0x8 S:/UltimateEnvironment/code-mod-example/param-replace/code-mod-framework/lib/libnx_min/nx/lib\libnx_min.a(svc.o)
                0x0000000000005638                svcLegacyContinueDebugEvent
 .text.svcContinueDebugEvent
                0x0000000000005640        0x8 S:/UltimateEnvironment/code-mod-example/param-replace/code-mod-framework/lib/libnx_min/nx/lib\libnx_min.a(svc.o)
                0x0000000000005640                svcContinueDebugEvent
 .text.svcGetProcessList
                0x0000000000005648       0x14 S:/UltimateEnvironment/code-mod-example/param-replace/code-mod-framework/lib/libnx_min/nx/lib\libnx_min.a(svc.o)
                0x0000000000005648                svcGetProcessList
 .text.svcGetThreadList
                0x000000000000565c       0x14 S:/UltimateEnvironment/code-mod-example/param-replace/code-mod-framework/lib/libnx_min/nx/lib\libnx_min.a(svc.o)
                0x000000000000565c                svcGetThreadList
 .text.svcGetDebugThreadContext
                0x0000000000005670        0x8 S:/UltimateEnvironment/code-mod-example/param-replace/code-mod-framework/lib/libnx_min/nx/lib\libnx_min.a(svc.o)
                0x0000000000005670                svcGetDebugThreadContext
 .text.svcSetDebugThreadContext
                0x0000000000005678        0x8 S:/UltimateEnvironment/code-mod-example/param-replace/code-mod-framework/lib/libnx_min/nx/lib\libnx_min.a(svc.o)
                0x0000000000005678                svcSetDebugThreadContext
 .text.svcQueryDebugProcessMemory
                0x0000000000005680       0x14 S:/UltimateEnvironment/code-mod-example/param-replace/code-mod-framework/lib/libnx_min/nx/lib\libnx_min.a(svc.o)
                0x0000000000005680                svcQueryDebugProcessMemory
 .text.svcReadDebugProcessMemory
                0x0000000000005694        0x8 S:/UltimateEnvironment/code-mod-example/param-replace/code-mod-framework/lib/libnx_min/nx/lib\libnx_min.a(svc.o)
                0x0000000000005694                svcReadDebugProcessMemory
 .text.svcWriteDebugProcessMemory
                0x000000000000569c        0x8 S:/UltimateEnvironment/code-mod-example/param-replace/code-mod-framework/lib/libnx_min/nx/lib\libnx_min.a(svc.o)
                0x000000000000569c                svcWriteDebugProcessMemory
 .text.svcGetDebugThreadParam
                0x00000000000056a4       0x18 S:/UltimateEnvironment/code-mod-example/param-replace/code-mod-framework/lib/libnx_min/nx/lib\libnx_min.a(svc.o)
                0x00000000000056a4                svcGetDebugThreadParam
 .text.svcGetSystemInfo
                0x00000000000056bc       0x14 S:/UltimateEnvironment/code-mod-example/param-replace/code-mod-framework/lib/libnx_min/nx/lib\libnx_min.a(svc.o)
                0x00000000000056bc                svcGetSystemInfo
 .text.svcCreatePort
                0x00000000000056d0       0x18 S:/UltimateEnvironment/code-mod-example/param-replace/code-mod-framework/lib/libnx_min/nx/lib\libnx_min.a(svc.o)
                0x00000000000056d0                svcCreatePort
 .text.svcManageNamedPort
                0x00000000000056e8       0x14 S:/UltimateEnvironment/code-mod-example/param-replace/code-mod-framework/lib/libnx_min/nx/lib\libnx_min.a(svc.o)
                0x00000000000056e8                svcManageNamedPort
 .text.svcConnectToPort
                0x00000000000056fc       0x14 S:/UltimateEnvironment/code-mod-example/param-replace/code-mod-framework/lib/libnx_min/nx/lib\libnx_min.a(svc.o)
                0x00000000000056fc                svcConnectToPort
 .text.svcSetProcessMemoryPermission
                0x0000000000005710        0x8 S:/UltimateEnvironment/code-mod-example/param-replace/code-mod-framework/lib/libnx_min/nx/lib\libnx_min.a(svc.o)
                0x0000000000005710                svcSetProcessMemoryPermission
 .text.svcMapProcessMemory
                0x0000000000005718        0x8 S:/UltimateEnvironment/code-mod-example/param-replace/code-mod-framework/lib/libnx_min/nx/lib\libnx_min.a(svc.o)
                0x0000000000005718                svcMapProcessMemory
 .text.svcUnmapProcessMemory
                0x0000000000005720        0x8 S:/UltimateEnvironment/code-mod-example/param-replace/code-mod-framework/lib/libnx_min/nx/lib\libnx_min.a(svc.o)
                0x0000000000005720                svcUnmapProcessMemory
 .text.svcQueryProcessMemory
                0x0000000000005728       0x14 S:/UltimateEnvironment/code-mod-example/param-replace/code-mod-framework/lib/libnx_min/nx/lib\libnx_min.a(svc.o)
                0x0000000000005728                svcQueryProcessMemory
 .text.svcMapProcessCodeMemory
                0x000000000000573c        0x8 S:/UltimateEnvironment/code-mod-example/param-replace/code-mod-framework/lib/libnx_min/nx/lib\libnx_min.a(svc.o)
                0x000000000000573c                svcMapProcessCodeMemory
 .text.svcUnmapProcessCodeMemory
                0x0000000000005744        0x8 S:/UltimateEnvironment/code-mod-example/param-replace/code-mod-framework/lib/libnx_min/nx/lib\libnx_min.a(svc.o)
                0x0000000000005744                svcUnmapProcessCodeMemory
 .text.svcCreateProcess
                0x000000000000574c       0x14 S:/UltimateEnvironment/code-mod-example/param-replace/code-mod-framework/lib/libnx_min/nx/lib\libnx_min.a(svc.o)
                0x000000000000574c                svcCreateProcess
 .text.svcStartProcess
                0x0000000000005760        0x8 S:/UltimateEnvironment/code-mod-example/param-replace/code-mod-framework/lib/libnx_min/nx/lib\libnx_min.a(svc.o)
                0x0000000000005760                svcStartProcess
 .text.svcTerminateProcess
                0x0000000000005768        0x8 S:/UltimateEnvironment/code-mod-example/param-replace/code-mod-framework/lib/libnx_min/nx/lib\libnx_min.a(svc.o)
                0x0000000000005768                svcTerminateProcess
 .text.svcGetProcessInfo
                0x0000000000005770       0x14 S:/UltimateEnvironment/code-mod-example/param-replace/code-mod-framework/lib/libnx_min/nx/lib\libnx_min.a(svc.o)
                0x0000000000005770                svcGetProcessInfo
 .text.svcCreateResourceLimit
                0x0000000000005784       0x14 S:/UltimateEnvironment/code-mod-example/param-replace/code-mod-framework/lib/libnx_min/nx/lib\libnx_min.a(svc.o)
                0x0000000000005784                svcCreateResourceLimit
 .text.svcSetResourceLimitLimitValue
                0x0000000000005798        0x8 S:/UltimateEnvironment/code-mod-example/param-replace/code-mod-framework/lib/libnx_min/nx/lib\libnx_min.a(svc.o)
                0x0000000000005798                svcSetResourceLimitLimitValue
 .text.svcCallSecureMonitor
                0x00000000000057a0       0x34 S:/UltimateEnvironment/code-mod-example/param-replace/code-mod-framework/lib/libnx_min/nx/lib\libnx_min.a(svc.o)
                0x00000000000057a0                svcCallSecureMonitor
 .text.__aarch64_read_tp
                0x00000000000057d4        0xc S:/UltimateEnvironment/code-mod-example/param-replace/code-mod-framework/lib/libnx_min/nx/lib\libnx_min.a(readtp.o)
                0x00000000000057d4                __aarch64_read_tp
 .text._GetRegionFromInfo.isra.1
                0x00000000000057e0       0x7c S:/UltimateEnvironment/code-mod-example/param-replace/code-mod-framework/lib/libnx_min/nx/lib\libnx_min.a(virtmem.o)
 *fill*         0x000000000000585c        0x4 
 .text.virtmemSetup
                0x0000000000005860      0x114 S:/UltimateEnvironment/code-mod-example/param-replace/code-mod-framework/lib/libnx_min/nx/lib\libnx_min.a(virtmem.o)
                0x0000000000005860                virtmemSetup
 *fill*         0x0000000000005974        0xc 
 .text.virtmemReserve
                0x0000000000005980      0x13c S:/UltimateEnvironment/code-mod-example/param-replace/code-mod-framework/lib/libnx_min/nx/lib\libnx_min.a(virtmem.o)
                0x0000000000005980                virtmemReserve
 *fill*         0x0000000000005abc        0x4 
 .text.virtmemFree
                0x0000000000005ac0        0x4 S:/UltimateEnvironment/code-mod-example/param-replace/code-mod-framework/lib/libnx_min/nx/lib\libnx_min.a(virtmem.o)
                0x0000000000005ac0                virtmemFree
 *fill*         0x0000000000005ac4        0xc 
 .text.virtmemReserveStack
                0x0000000000005ad0       0xc8 S:/UltimateEnvironment/code-mod-example/param-replace/code-mod-framework/lib/libnx_min/nx/lib\libnx_min.a(virtmem.o)
                0x0000000000005ad0                virtmemReserveStack
 *fill*         0x0000000000005b98        0x8 
 .text.virtmemFreeStack
                0x0000000000005ba0        0x4 S:/UltimateEnvironment/code-mod-example/param-replace/code-mod-framework/lib/libnx_min/nx/lib\libnx_min.a(virtmem.o)
                0x0000000000005ba0                virtmemFreeStack
 *fill*         0x0000000000005ba4        0xc 
 .text.mutexLock
                0x0000000000005bb0       0x8c S:/UltimateEnvironment/code-mod-example/param-replace/code-mod-framework/lib/libnx_min/nx/lib\libnx_min.a(mutex.o)
                0x0000000000005bb0                mutexLock
 *fill*         0x0000000000005c3c        0x4 
 .text.mutexTryLock
                0x0000000000005c40       0x34 S:/UltimateEnvironment/code-mod-example/param-replace/code-mod-framework/lib/libnx_min/nx/lib\libnx_min.a(mutex.o)
                0x0000000000005c40                mutexTryLock
 *fill*         0x0000000000005c74        0xc 
 .text.mutexUnlock
                0x0000000000005c80       0x30 S:/UltimateEnvironment/code-mod-example/param-replace/code-mod-framework/lib/libnx_min/nx/lib\libnx_min.a(mutex.o)
                0x0000000000005c80                mutexUnlock
 .text.rmutexLock
                0x0000000000005cb0       0x4c S:/UltimateEnvironment/code-mod-example/param-replace/code-mod-framework/lib/libnx_min/nx/lib\libnx_min.a(mutex.o)
                0x0000000000005cb0                rmutexLock
 *fill*         0x0000000000005cfc        0x4 
 .text.rmutexTryLock
                0x0000000000005d00       0x5c S:/UltimateEnvironment/code-mod-example/param-replace/code-mod-framework/lib/libnx_min/nx/lib\libnx_min.a(mutex.o)
                0x0000000000005d00                rmutexTryLock
 *fill*         0x0000000000005d5c        0x4 
 .text.rmutexUnlock
                0x0000000000005d60       0x1c S:/UltimateEnvironment/code-mod-example/param-replace/code-mod-framework/lib/libnx_min/nx/lib\libnx_min.a(mutex.o)
                0x0000000000005d60                rmutexUnlock
 *fill*         0x0000000000005d7c        0x4 
 .text.ipcPrepareHeader
                0x0000000000005d80      0x220 S:/UltimateEnvironment/code-mod-example/param-replace/code-mod-framework/lib/libnx_min/nx/lib\libnx_min.a(fs.o)
 .text.ipcParse
                0x0000000000005fa0      0x22c S:/UltimateEnvironment/code-mod-example/param-replace/code-mod-framework/lib/libnx_min/nx/lib\libnx_min.a(fs.o)
 *fill*         0x00000000000061cc        0x4 
 .text.serviceIpcParse
                0x00000000000061d0       0xb0 S:/UltimateEnvironment/code-mod-example/param-replace/code-mod-framework/lib/libnx_min/nx/lib\libnx_min.a(fs.o)
 .text.ipcCloseObjectById
                0x0000000000006280       0x34 S:/UltimateEnvironment/code-mod-example/param-replace/code-mod-framework/lib/libnx_min/nx/lib\libnx_min.a(fs.o)
 *fill*         0x00000000000062b4        0xc 
 .text._fsDeviceOperatorCheckInserted
                0x00000000000062c0      0x19c S:/UltimateEnvironment/code-mod-example/param-replace/code-mod-framework/lib/libnx_min/nx/lib\libnx_min.a(fs.o)
 *fill*         0x000000000000645c        0x4 
 .text.fsFsQueryEntry.part.12
                0x0000000000006460      0x274 S:/UltimateEnvironment/code-mod-example/param-replace/code-mod-framework/lib/libnx_min/nx/lib\libnx_min.a(fs.o)
 *fill*         0x00000000000066d4        0xc 
 .text.fsInitialize
                0x00000000000066e0      0x200 S:/UltimateEnvironment/code-mod-example/param-replace/code-mod-framework/lib/libnx_min/nx/lib\libnx_min.a(fs.o)
                0x00000000000066e0                fsInitialize
 .text.fsExit   0x00000000000068e0       0x9c S:/UltimateEnvironment/code-mod-example/param-replace/code-mod-framework/lib/libnx_min/nx/lib\libnx_min.a(fs.o)
                0x00000000000068e0                fsExit
 *fill*         0x000000000000697c        0x4 
 .text.fsGetServiceSession
                0x0000000000006980        0xc S:/UltimateEnvironment/code-mod-example/param-replace/code-mod-framework/lib/libnx_min/nx/lib\libnx_min.a(fs.o)
                0x0000000000006980                fsGetServiceSession
 *fill*         0x000000000000698c        0x4 
 .text.fsOpenBisStorage
                0x0000000000006990      0x1ec S:/UltimateEnvironment/code-mod-example/param-replace/code-mod-framework/lib/libnx_min/nx/lib\libnx_min.a(fs.o)
                0x0000000000006990                fsOpenBisStorage
 *fill*         0x0000000000006b7c        0x4 
 .text.fsOpenBisFileSystem
                0x0000000000006b80      0x170 S:/UltimateEnvironment/code-mod-example/param-replace/code-mod-framework/lib/libnx_min/nx/lib\libnx_min.a(fs.o)
                0x0000000000006b80                fsOpenBisFileSystem
 .text.fsMountSdcard
                0x0000000000006cf0      0x1cc S:/UltimateEnvironment/code-mod-example/param-replace/code-mod-framework/lib/libnx_min/nx/lib\libnx_min.a(fs.o)
                0x0000000000006cf0                fsMountSdcard
 *fill*         0x0000000000006ebc        0x4 
 .text.fsMountSaveData
                0x0000000000006ec0      0x208 S:/UltimateEnvironment/code-mod-example/param-replace/code-mod-framework/lib/libnx_min/nx/lib\libnx_min.a(fs.o)
                0x0000000000006ec0                fsMountSaveData
 *fill*         0x00000000000070c8        0x8 
 .text.fsMountSystemSaveData
                0x00000000000070d0      0x208 S:/UltimateEnvironment/code-mod-example/param-replace/code-mod-framework/lib/libnx_min/nx/lib\libnx_min.a(fs.o)
                0x00000000000070d0                fsMountSystemSaveData
 *fill*         0x00000000000072d8        0x8 
 .text.fsOpenSaveDataIterator
                0x00000000000072e0      0x1e0 S:/UltimateEnvironment/code-mod-example/param-replace/code-mod-framework/lib/libnx_min/nx/lib\libnx_min.a(fs.o)
                0x00000000000072e0                fsOpenSaveDataIterator
 .text.fsOpenContentStorageFileSystem
                0x00000000000074c0      0x1d4 S:/UltimateEnvironment/code-mod-example/param-replace/code-mod-framework/lib/libnx_min/nx/lib\libnx_min.a(fs.o)
                0x00000000000074c0                fsOpenContentStorageFileSystem
 *fill*         0x0000000000007694        0xc 
 .text.fsOpenDataStorageByCurrentProcess
                0x00000000000076a0      0x1cc S:/UltimateEnvironment/code-mod-example/param-replace/code-mod-framework/lib/libnx_min/nx/lib\libnx_min.a(fs.o)
                0x00000000000076a0                fsOpenDataStorageByCurrentProcess
 *fill*         0x000000000000786c        0x4 
 .text.fsOpenDataStorageByDataId
                0x0000000000007870      0x200 S:/UltimateEnvironment/code-mod-example/param-replace/code-mod-framework/lib/libnx_min/nx/lib\libnx_min.a(fs.o)
                0x0000000000007870                fsOpenDataStorageByDataId
 .text.fsOpenDeviceOperator
                0x0000000000007a70      0x1cc S:/UltimateEnvironment/code-mod-example/param-replace/code-mod-framework/lib/libnx_min/nx/lib\libnx_min.a(fs.o)
                0x0000000000007a70                fsOpenDeviceOperator
 *fill*         0x0000000000007c3c        0x4 
 .text.fsOpenSdCardDetectionEventNotifier
                0x0000000000007c40      0x1cc S:/UltimateEnvironment/code-mod-example/param-replace/code-mod-framework/lib/libnx_min/nx/lib\libnx_min.a(fs.o)
                0x0000000000007c40                fsOpenSdCardDetectionEventNotifier
 *fill*         0x0000000000007e0c        0x4 
 .text.fsGetRightsIdByPath
                0x0000000000007e10      0x174 S:/UltimateEnvironment/code-mod-example/param-replace/code-mod-framework/lib/libnx_min/nx/lib\libnx_min.a(fs.o)
                0x0000000000007e10                fsGetRightsIdByPath
 *fill*         0x0000000000007f84        0xc 
 .text.fsGetRightsIdAndKeyGenerationByPath
                0x0000000000007f90      0x184 S:/UltimateEnvironment/code-mod-example/param-replace/code-mod-framework/lib/libnx_min/nx/lib\libnx_min.a(fs.o)
                0x0000000000007f90                fsGetRightsIdAndKeyGenerationByPath
 *fill*         0x0000000000008114        0xc 
 .text.fsIsExFatSupported
                0x0000000000008120      0x138 S:/UltimateEnvironment/code-mod-example/param-replace/code-mod-framework/lib/libnx_min/nx/lib\libnx_min.a(fs.o)
                0x0000000000008120                fsIsExFatSupported
 *fill*         0x0000000000008258        0x8 
 .text.fsMount_SaveData
                0x0000000000008260       0x3c S:/UltimateEnvironment/code-mod-example/param-replace/code-mod-framework/lib/libnx_min/nx/lib\libnx_min.a(fs.o)
                0x0000000000008260                fsMount_SaveData
 *fill*         0x000000000000829c        0x4 
 .text.fsMount_SystemSaveData
                0x00000000000082a0       0x30 S:/UltimateEnvironment/code-mod-example/param-replace/code-mod-framework/lib/libnx_min/nx/lib\libnx_min.a(fs.o)
                0x00000000000082a0                fsMount_SystemSaveData
 .text.fsOpenFileSystemWithId
                0x00000000000082d0      0x248 S:/UltimateEnvironment/code-mod-example/param-replace/code-mod-framework/lib/libnx_min/nx/lib\libnx_min.a(fs.o)
                0x00000000000082d0                fsOpenFileSystemWithId
 *fill*         0x0000000000008518        0x8 
 .text.fsOpenFileSystem
                0x0000000000008520       0x10 S:/UltimateEnvironment/code-mod-example/param-replace/code-mod-framework/lib/libnx_min/nx/lib\libnx_min.a(fs.o)
                0x0000000000008520                fsOpenFileSystem
 .text.fsOpenFileSystemWithPatch
                0x0000000000008530      0x184 S:/UltimateEnvironment/code-mod-example/param-replace/code-mod-framework/lib/libnx_min/nx/lib\libnx_min.a(fs.o)
                0x0000000000008530                fsOpenFileSystemWithPatch
 *fill*         0x00000000000086b4        0xc 
 .text.fsFsCreateFile
                0x00000000000086c0      0x1a4 S:/UltimateEnvironment/code-mod-example/param-replace/code-mod-framework/lib/libnx_min/nx/lib\libnx_min.a(fs.o)
                0x00000000000086c0                fsFsCreateFile
 *fill*         0x0000000000008864        0xc 
 .text.fsFsDeleteFile
                0x0000000000008870      0x19c S:/UltimateEnvironment/code-mod-example/param-replace/code-mod-framework/lib/libnx_min/nx/lib\libnx_min.a(fs.o)
                0x0000000000008870                fsFsDeleteFile
 *fill*         0x0000000000008a0c        0x4 
 .text.fsFsCreateDirectory
                0x0000000000008a10      0x19c S:/UltimateEnvironment/code-mod-example/param-replace/code-mod-framework/lib/libnx_min/nx/lib\libnx_min.a(fs.o)
                0x0000000000008a10                fsFsCreateDirectory
 *fill*         0x0000000000008bac        0x4 
 .text.fsFsDeleteDirectory
                0x0000000000008bb0      0x19c S:/UltimateEnvironment/code-mod-example/param-replace/code-mod-framework/lib/libnx_min/nx/lib\libnx_min.a(fs.o)
                0x0000000000008bb0                fsFsDeleteDirectory
 *fill*         0x0000000000008d4c        0x4 
 .text.fsFsDeleteDirectoryRecursively
                0x0000000000008d50      0x19c S:/UltimateEnvironment/code-mod-example/param-replace/code-mod-framework/lib/libnx_min/nx/lib\libnx_min.a(fs.o)
                0x0000000000008d50                fsFsDeleteDirectoryRecursively
 *fill*         0x0000000000008eec        0x4 
 .text.fsFsRenameFile
                0x0000000000008ef0      0x214 S:/UltimateEnvironment/code-mod-example/param-replace/code-mod-framework/lib/libnx_min/nx/lib\libnx_min.a(fs.o)
                0x0000000000008ef0                fsFsRenameFile
 *fill*         0x0000000000009104        0xc 
 .text.fsFsRenameDirectory
                0x0000000000009110      0x214 S:/UltimateEnvironment/code-mod-example/param-replace/code-mod-framework/lib/libnx_min/nx/lib\libnx_min.a(fs.o)
                0x0000000000009110                fsFsRenameDirectory
 *fill*         0x0000000000009324        0xc 
 .text.fsFsGetEntryType
                0x0000000000009330      0x1b0 S:/UltimateEnvironment/code-mod-example/param-replace/code-mod-framework/lib/libnx_min/nx/lib\libnx_min.a(fs.o)
                0x0000000000009330                fsFsGetEntryType
 .text.fsFsOpenFile
                0x00000000000094e0      0x1e4 S:/UltimateEnvironment/code-mod-example/param-replace/code-mod-framework/lib/libnx_min/nx/lib\libnx_min.a(fs.o)
                0x00000000000094e0                fsFsOpenFile
 *fill*         0x00000000000096c4        0xc 
 .text.fsFsOpenDirectory
                0x00000000000096d0      0x1f8 S:/UltimateEnvironment/code-mod-example/param-replace/code-mod-framework/lib/libnx_min/nx/lib\libnx_min.a(fs.o)
                0x00000000000096d0                fsFsOpenDirectory
 *fill*         0x00000000000098c8        0x8 
 .text.fsFsCommit
                0x00000000000098d0      0x17c S:/UltimateEnvironment/code-mod-example/param-replace/code-mod-framework/lib/libnx_min/nx/lib\libnx_min.a(fs.o)
                0x00000000000098d0                fsFsCommit
 *fill*         0x0000000000009a4c        0x4 
 .text.fsFsGetFreeSpace
                0x0000000000009a50      0x1b0 S:/UltimateEnvironment/code-mod-example/param-replace/code-mod-framework/lib/libnx_min/nx/lib\libnx_min.a(fs.o)
                0x0000000000009a50                fsFsGetFreeSpace
 .text.fsFsGetTotalSpace
                0x0000000000009c00      0x1b0 S:/UltimateEnvironment/code-mod-example/param-replace/code-mod-framework/lib/libnx_min/nx/lib\libnx_min.a(fs.o)
                0x0000000000009c00                fsFsGetTotalSpace
 .text.fsFsCleanDirectoryRecursively
                0x0000000000009db0      0x140 S:/UltimateEnvironment/code-mod-example/param-replace/code-mod-framework/lib/libnx_min/nx/lib\libnx_min.a(fs.o)
                0x0000000000009db0                fsFsCleanDirectoryRecursively
 .text.fsFsGetFileTimeStampRaw
                0x0000000000009ef0      0x194 S:/UltimateEnvironment/code-mod-example/param-replace/code-mod-framework/lib/libnx_min/nx/lib\libnx_min.a(fs.o)
                0x0000000000009ef0                fsFsGetFileTimeStampRaw
 *fill*         0x000000000000a084        0xc 
 .text.fsFsQueryEntry
                0x000000000000a090       0x60 S:/UltimateEnvironment/code-mod-example/param-replace/code-mod-framework/lib/libnx_min/nx/lib\libnx_min.a(fs.o)
                0x000000000000a090                fsFsQueryEntry
 .text.fsFsSetArchiveBit
                0x000000000000a0f0       0x1c S:/UltimateEnvironment/code-mod-example/param-replace/code-mod-framework/lib/libnx_min/nx/lib\libnx_min.a(fs.o)
                0x000000000000a0f0                fsFsSetArchiveBit
 *fill*         0x000000000000a10c        0x4 
 .text.fsFsClose
                0x000000000000a110       0x6c S:/UltimateEnvironment/code-mod-example/param-replace/code-mod-framework/lib/libnx_min/nx/lib\libnx_min.a(fs.o)
                0x000000000000a110                fsFsClose
 *fill*         0x000000000000a17c        0x4 
 .text.fsFileRead
                0x000000000000a180      0x1f8 S:/UltimateEnvironment/code-mod-example/param-replace/code-mod-framework/lib/libnx_min/nx/lib\libnx_min.a(fs.o)
                0x000000000000a180                fsFileRead
 *fill*         0x000000000000a378        0x8 
 .text.fsFileWrite
                0x000000000000a380      0x1cc S:/UltimateEnvironment/code-mod-example/param-replace/code-mod-framework/lib/libnx_min/nx/lib\libnx_min.a(fs.o)
                0x000000000000a380                fsFileWrite
 *fill*         0x000000000000a54c        0x4 
 .text.fsFileFlush
                0x000000000000a550      0x17c S:/UltimateEnvironment/code-mod-example/param-replace/code-mod-framework/lib/libnx_min/nx/lib\libnx_min.a(fs.o)
                0x000000000000a550                fsFileFlush
 *fill*         0x000000000000a6cc        0x4 
 .text.fsFileSetSize
                0x000000000000a6d0      0x18c S:/UltimateEnvironment/code-mod-example/param-replace/code-mod-framework/lib/libnx_min/nx/lib\libnx_min.a(fs.o)
                0x000000000000a6d0                fsFileSetSize
 *fill*         0x000000000000a85c        0x4 
 .text.fsFileGetSize
                0x000000000000a860      0x194 S:/UltimateEnvironment/code-mod-example/param-replace/code-mod-framework/lib/libnx_min/nx/lib\libnx_min.a(fs.o)
                0x000000000000a860                fsFileGetSize
 *fill*         0x000000000000a9f4        0xc 
 .text.fsFileOperateRange
                0x000000000000aa00      0x180 S:/UltimateEnvironment/code-mod-example/param-replace/code-mod-framework/lib/libnx_min/nx/lib\libnx_min.a(fs.o)
                0x000000000000aa00                fsFileOperateRange
 .text.fsFileClose
                0x000000000000ab80       0x6c S:/UltimateEnvironment/code-mod-example/param-replace/code-mod-framework/lib/libnx_min/nx/lib\libnx_min.a(fs.o)
                0x000000000000ab80                fsFileClose
 *fill*         0x000000000000abec        0x4 
 .text.fsDirClose
                0x000000000000abf0       0x6c S:/UltimateEnvironment/code-mod-example/param-replace/code-mod-framework/lib/libnx_min/nx/lib\libnx_min.a(fs.o)
                0x000000000000abf0                fsDirClose
 *fill*         0x000000000000ac5c        0x4 
 .text.fsDirRead
                0x000000000000ac60      0x1ec S:/UltimateEnvironment/code-mod-example/param-replace/code-mod-framework/lib/libnx_min/nx/lib\libnx_min.a(fs.o)
                0x000000000000ac60                fsDirRead
 *fill*         0x000000000000ae4c        0x4 
 .text.fsDirGetEntryCount
                0x000000000000ae50      0x198 S:/UltimateEnvironment/code-mod-example/param-replace/code-mod-framework/lib/libnx_min/nx/lib\libnx_min.a(fs.o)
                0x000000000000ae50                fsDirGetEntryCount
 *fill*         0x000000000000afe8        0x8 
 .text.fsStorageRead
                0x000000000000aff0      0x1d0 S:/UltimateEnvironment/code-mod-example/param-replace/code-mod-framework/lib/libnx_min/nx/lib\libnx_min.a(fs.o)
                0x000000000000aff0                fsStorageRead
 .text.fsStorageWrite
                0x000000000000b1c0      0x1d0 S:/UltimateEnvironment/code-mod-example/param-replace/code-mod-framework/lib/libnx_min/nx/lib\libnx_min.a(fs.o)
                0x000000000000b1c0                fsStorageWrite
 .text.fsStorageFlush
                0x000000000000b390      0x17c S:/UltimateEnvironment/code-mod-example/param-replace/code-mod-framework/lib/libnx_min/nx/lib\libnx_min.a(fs.o)
                0x000000000000b390                fsStorageFlush
 *fill*         0x000000000000b50c        0x4 
 .text.fsStorageSetSize
                0x000000000000b510      0x18c S:/UltimateEnvironment/code-mod-example/param-replace/code-mod-framework/lib/libnx_min/nx/lib\libnx_min.a(fs.o)
                0x000000000000b510                fsStorageSetSize
 *fill*         0x000000000000b69c        0x4 
 .text.fsStorageGetSize
                0x000000000000b6a0      0x194 S:/UltimateEnvironment/code-mod-example/param-replace/code-mod-framework/lib/libnx_min/nx/lib\libnx_min.a(fs.o)
                0x000000000000b6a0                fsStorageGetSize
 *fill*         0x000000000000b834        0xc 
 .text.fsStorageOperateRange
                0x000000000000b840      0x180 S:/UltimateEnvironment/code-mod-example/param-replace/code-mod-framework/lib/libnx_min/nx/lib\libnx_min.a(fs.o)
                0x000000000000b840                fsStorageOperateRange
 .text.fsStorageClose
                0x000000000000b9c0       0x6c S:/UltimateEnvironment/code-mod-example/param-replace/code-mod-framework/lib/libnx_min/nx/lib\libnx_min.a(fs.o)
                0x000000000000b9c0                fsStorageClose
 *fill*         0x000000000000ba2c        0x4 
 .text.fsSaveDataIteratorRead
                0x000000000000ba30      0x1d0 S:/UltimateEnvironment/code-mod-example/param-replace/code-mod-framework/lib/libnx_min/nx/lib\libnx_min.a(fs.o)
                0x000000000000ba30                fsSaveDataIteratorRead
 .text.fsSaveDataIteratorClose
                0x000000000000bc00       0x6c S:/UltimateEnvironment/code-mod-example/param-replace/code-mod-framework/lib/libnx_min/nx/lib\libnx_min.a(fs.o)
                0x000000000000bc00                fsSaveDataIteratorClose
 *fill*         0x000000000000bc6c        0x4 
 .text.fsEventNotifierGetEventHandle
                0x000000000000bc70      0x188 S:/UltimateEnvironment/code-mod-example/param-replace/code-mod-framework/lib/libnx_min/nx/lib\libnx_min.a(fs.o)
                0x000000000000bc70                fsEventNotifierGetEventHandle
 *fill*         0x000000000000bdf8        0x8 
 .text.fsEventNotifierClose
                0x000000000000be00       0x6c S:/UltimateEnvironment/code-mod-example/param-replace/code-mod-framework/lib/libnx_min/nx/lib\libnx_min.a(fs.o)
                0x000000000000be00                fsEventNotifierClose
 *fill*         0x000000000000be6c        0x4 
 .text.fsDeviceOperatorIsSdCardInserted
                0x000000000000be70        0xc S:/UltimateEnvironment/code-mod-example/param-replace/code-mod-framework/lib/libnx_min/nx/lib\libnx_min.a(fs.o)
                0x000000000000be70                fsDeviceOperatorIsSdCardInserted
 *fill*         0x000000000000be7c        0x4 
 .text.fsDeviceOperatorIsGameCardInserted
                0x000000000000be80        0xc S:/UltimateEnvironment/code-mod-example/param-replace/code-mod-framework/lib/libnx_min/nx/lib\libnx_min.a(fs.o)
                0x000000000000be80                fsDeviceOperatorIsGameCardInserted
 *fill*         0x000000000000be8c        0x4 
 .text.fsDeviceOperatorGetGameCardHandle
                0x000000000000be90      0x190 S:/UltimateEnvironment/code-mod-example/param-replace/code-mod-framework/lib/libnx_min/nx/lib\libnx_min.a(fs.o)
                0x000000000000be90                fsDeviceOperatorGetGameCardHandle
 .text.fsDeviceOperatorGetGameCardAttribute
                0x000000000000c020      0x18c S:/UltimateEnvironment/code-mod-example/param-replace/code-mod-framework/lib/libnx_min/nx/lib\libnx_min.a(fs.o)
                0x000000000000c020                fsDeviceOperatorGetGameCardAttribute
 *fill*         0x000000000000c1ac        0x4 
 .text.fsDeviceOperatorClose
                0x000000000000c1b0       0x6c S:/UltimateEnvironment/code-mod-example/param-replace/code-mod-framework/lib/libnx_min/nx/lib\libnx_min.a(fs.o)
                0x000000000000c1b0                fsDeviceOperatorClose
 *fill*         0x000000000000c21c        0x4 
 .text.ipcCloseObjectById
                0x000000000000c220       0x34 S:/UltimateEnvironment/code-mod-example/param-replace/code-mod-framework/lib/libnx_min/nx/lib\libnx_min.a(set.o)
 *fill*         0x000000000000c254        0xc 
 .text._setMakeLanguageCode
                0x000000000000c260       0xf4 S:/UltimateEnvironment/code-mod-example/param-replace/code-mod-framework/lib/libnx_min/nx/lib\libnx_min.a(set.o)
 *fill*         0x000000000000c354        0xc 
 .text._setsysGetFirmwareVersionImpl
                0x000000000000c360      0x1d4 S:/UltimateEnvironment/code-mod-example/param-replace/code-mod-framework/lib/libnx_min/nx/lib\libnx_min.a(set.o)
 *fill*         0x000000000000c534        0xc 
 .text.setInitialize
                0x000000000000c540       0x44 S:/UltimateEnvironment/code-mod-example/param-replace/code-mod-framework/lib/libnx_min/nx/lib\libnx_min.a(set.o)
                0x000000000000c540                setInitialize
 *fill*         0x000000000000c584        0xc 
 .text.setExit  0x000000000000c590       0x9c S:/UltimateEnvironment/code-mod-example/param-replace/code-mod-framework/lib/libnx_min/nx/lib\libnx_min.a(set.o)
                0x000000000000c590                setExit
 *fill*         0x000000000000c62c        0x4 
 .text.setsysInitialize
                0x000000000000c630       0x3c S:/UltimateEnvironment/code-mod-example/param-replace/code-mod-framework/lib/libnx_min/nx/lib\libnx_min.a(set.o)
                0x000000000000c630                setsysInitialize
 *fill*         0x000000000000c66c        0x4 
 .text.setsysExit
                0x000000000000c670       0x9c S:/UltimateEnvironment/code-mod-example/param-replace/code-mod-framework/lib/libnx_min/nx/lib\libnx_min.a(set.o)
                0x000000000000c670                setsysExit
 *fill*         0x000000000000c70c        0x4 
 .text.setGetLanguageCode
                0x000000000000c710       0xec S:/UltimateEnvironment/code-mod-example/param-replace/code-mod-framework/lib/libnx_min/nx/lib\libnx_min.a(set.o)
                0x000000000000c710                setGetLanguageCode
 *fill*         0x000000000000c7fc        0x4 
 .text.setGetSystemLanguage
                0x000000000000c800        0x4 S:/UltimateEnvironment/code-mod-example/param-replace/code-mod-framework/lib/libnx_min/nx/lib\libnx_min.a(set.o)
                0x000000000000c800                setGetSystemLanguage
 *fill*         0x000000000000c804        0xc 
 .text.setGetAvailableLanguageCodeCount
                0x000000000000c810      0x10c S:/UltimateEnvironment/code-mod-example/param-replace/code-mod-framework/lib/libnx_min/nx/lib\libnx_min.a(set.o)
                0x000000000000c810                setGetAvailableLanguageCodeCount
 *fill*         0x000000000000c91c        0x4 
 .text.setGetAvailableLanguageCodes
                0x000000000000c920      0x1b4 S:/UltimateEnvironment/code-mod-example/param-replace/code-mod-framework/lib/libnx_min/nx/lib\libnx_min.a(set.o)
                0x000000000000c920                setGetAvailableLanguageCodes
 *fill*         0x000000000000cad4        0xc 
 .text.setInitializeLanguageCodesCache
                0x000000000000cae0       0x70 S:/UltimateEnvironment/code-mod-example/param-replace/code-mod-framework/lib/libnx_min/nx/lib\libnx_min.a(set.o)
 .text.setMakeLanguage
                0x000000000000cb50       0x8c S:/UltimateEnvironment/code-mod-example/param-replace/code-mod-framework/lib/libnx_min/nx/lib\libnx_min.a(set.o)
                0x000000000000cb50                setMakeLanguage
 *fill*         0x000000000000cbdc        0x4 
 .text.setMakeLanguageCode
                0x000000000000cbe0       0x80 S:/UltimateEnvironment/code-mod-example/param-replace/code-mod-framework/lib/libnx_min/nx/lib\libnx_min.a(set.o)
                0x000000000000cbe0                setMakeLanguageCode
 .text.setGetRegionCode
                0x000000000000cc60       0xf0 S:/UltimateEnvironment/code-mod-example/param-replace/code-mod-framework/lib/libnx_min/nx/lib\libnx_min.a(set.o)
                0x000000000000cc60                setGetRegionCode
 .text.setsysGetColorSetId
                0x000000000000cd50       0xe4 S:/UltimateEnvironment/code-mod-example/param-replace/code-mod-framework/lib/libnx_min/nx/lib\libnx_min.a(set.o)
                0x000000000000cd50                setsysGetColorSetId
 *fill*         0x000000000000ce34        0xc 
 .text.setsysSetColorSetId
                0x000000000000ce40       0xd0 S:/UltimateEnvironment/code-mod-example/param-replace/code-mod-framework/lib/libnx_min/nx/lib\libnx_min.a(set.o)
                0x000000000000ce40                setsysSetColorSetId
 .text.setsysGetSettingsItemValue
                0x000000000000cf10      0x19c S:/UltimateEnvironment/code-mod-example/param-replace/code-mod-framework/lib/libnx_min/nx/lib\libnx_min.a(set.o)
                0x000000000000cf10                setsysGetSettingsItemValue
 *fill*         0x000000000000d0ac        0x4 
 .text.setsysGetSettingsItemValueSize
                0x000000000000d0b0      0x198 S:/UltimateEnvironment/code-mod-example/param-replace/code-mod-framework/lib/libnx_min/nx/lib\libnx_min.a(set.o)
                0x000000000000d0b0                setsysGetSettingsItemValueSize
 *fill*         0x000000000000d248        0x8 
 .text.setsysGetSerialNumber
                0x000000000000d250      0x108 S:/UltimateEnvironment/code-mod-example/param-replace/code-mod-framework/lib/libnx_min/nx/lib\libnx_min.a(set.o)
                0x000000000000d250                setsysGetSerialNumber
 *fill*         0x000000000000d358        0x8 
 .text.setsysGetFlag
                0x000000000000d360       0xec S:/UltimateEnvironment/code-mod-example/param-replace/code-mod-framework/lib/libnx_min/nx/lib\libnx_min.a(set.o)
                0x000000000000d360                setsysGetFlag
 *fill*         0x000000000000d44c        0x4 
 .text.setsysSetFlag
                0x000000000000d450       0xd0 S:/UltimateEnvironment/code-mod-example/param-replace/code-mod-framework/lib/libnx_min/nx/lib\libnx_min.a(set.o)
                0x000000000000d450                setsysSetFlag
 .text.setsysGetFirmwareVersion
                0x000000000000d520       0x44 S:/UltimateEnvironment/code-mod-example/param-replace/code-mod-framework/lib/libnx_min/nx/lib\libnx_min.a(set.o)
                0x000000000000d520                setsysGetFirmwareVersion
 *fill*         0x000000000000d564        0xc 
 .text.setsysBindFatalDirtyFlagEvent
                0x000000000000d570      0x13c S:/UltimateEnvironment/code-mod-example/param-replace/code-mod-framework/lib/libnx_min/nx/lib\libnx_min.a(set.o)
                0x000000000000d570                setsysBindFatalDirtyFlagEvent
 *fill*         0x000000000000d6ac        0x4 
 .text.setsysGetFatalDirtyFlags
                0x000000000000d6b0       0xf8 S:/UltimateEnvironment/code-mod-example/param-replace/code-mod-framework/lib/libnx_min/nx/lib\libnx_min.a(set.o)
                0x000000000000d6b0                setsysGetFatalDirtyFlags
 *fill*         0x000000000000d7a8        0x8 
 .text.setsysGetDeviceNickname
                0x000000000000d7b0       0xf8 S:/UltimateEnvironment/code-mod-example/param-replace/code-mod-framework/lib/libnx_min/nx/lib\libnx_min.a(set.o)
                0x000000000000d7b0                setsysGetDeviceNickname
 *fill*         0x000000000000d8a8        0x8 
 .text.setsysSetDeviceNickname
                0x000000000000d8b0      0x134 S:/UltimateEnvironment/code-mod-example/param-replace/code-mod-framework/lib/libnx_min/nx/lib\libnx_min.a(set.o)
                0x000000000000d8b0                setsysSetDeviceNickname
 *fill*         0x000000000000d9e4        0xc 
 .text._fatalImpl
                0x000000000000d9f0      0x140 S:/UltimateEnvironment/code-mod-example/param-replace/code-mod-framework/lib/libnx_min/nx/lib\libnx_min.a(fatal.o)
 .text.fatalWithType
                0x000000000000db30       0x14 S:/UltimateEnvironment/code-mod-example/param-replace/code-mod-framework/lib/libnx_min/nx/lib\libnx_min.a(fatal.o)
                0x000000000000db30                fatalWithType
 *fill*         0x000000000000db44        0xc 
 .text.fatalSimple
                0x000000000000db50       0x14 S:/UltimateEnvironment/code-mod-example/param-replace/code-mod-framework/lib/libnx_min/nx/lib\libnx_min.a(fatal.o)
                0x000000000000db50                fatalSimple
 *fill*         0x000000000000db64        0xc 
 .text.fatalWithContext
                0x000000000000db70       0x14 S:/UltimateEnvironment/code-mod-example/param-replace/code-mod-framework/lib/libnx_min/nx/lib\libnx_min.a(fatal.o)
                0x000000000000db70                fatalWithContext
 *fill*         0x000000000000db84        0xc 
 .text.ipcCloseObjectById
                0x000000000000db90       0x34 S:/UltimateEnvironment/code-mod-example/param-replace/code-mod-framework/lib/libnx_min/nx/lib\libnx_min.a(sm.o)
 *fill*         0x000000000000dbc4        0xc 
 .text.smAddOverrideHandle
                0x000000000000dbd0       0x44 S:/UltimateEnvironment/code-mod-example/param-replace/code-mod-framework/lib/libnx_min/nx/lib\libnx_min.a(sm.o)
                0x000000000000dbd0                smAddOverrideHandle
 *fill*         0x000000000000dc14        0xc 
 .text.smGetServiceOverride
                0x000000000000dc20       0x60 S:/UltimateEnvironment/code-mod-example/param-replace/code-mod-framework/lib/libnx_min/nx/lib\libnx_min.a(sm.o)
                0x000000000000dc20                smGetServiceOverride
 .text.smHasInitialized
                0x000000000000dc80       0x14 S:/UltimateEnvironment/code-mod-example/param-replace/code-mod-framework/lib/libnx_min/nx/lib\libnx_min.a(sm.o)
                0x000000000000dc80                smHasInitialized
 *fill*         0x000000000000dc94        0xc 
 .text.smExit   0x000000000000dca0       0x9c S:/UltimateEnvironment/code-mod-example/param-replace/code-mod-framework/lib/libnx_min/nx/lib\libnx_min.a(sm.o)
                0x000000000000dca0                smExit
 *fill*         0x000000000000dd3c        0x4 
 .text.smGetServiceSession
                0x000000000000dd40        0xc S:/UltimateEnvironment/code-mod-example/param-replace/code-mod-framework/lib/libnx_min/nx/lib\libnx_min.a(sm.o)
                0x000000000000dd40                smGetServiceSession
 *fill*         0x000000000000dd4c        0x4 
 .text.smEncodeName
                0x000000000000dd50       0x38 S:/UltimateEnvironment/code-mod-example/param-replace/code-mod-framework/lib/libnx_min/nx/lib\libnx_min.a(sm.o)
                0x000000000000dd50                smEncodeName
 *fill*         0x000000000000dd88        0x8 
 .text.smGetServiceOriginal
                0x000000000000dd90      0x22c S:/UltimateEnvironment/code-mod-example/param-replace/code-mod-framework/lib/libnx_min/nx/lib\libnx_min.a(sm.o)
                0x000000000000dd90                smGetServiceOriginal
 *fill*         0x000000000000dfbc        0x4 
 .text.smInitialize
                0x000000000000dfc0      0x27c S:/UltimateEnvironment/code-mod-example/param-replace/code-mod-framework/lib/libnx_min/nx/lib\libnx_min.a(sm.o)
                0x000000000000dfc0                smInitialize
 *fill*         0x000000000000e23c        0x4 
 .text.smGetService
                0x000000000000e240       0x74 S:/UltimateEnvironment/code-mod-example/param-replace/code-mod-framework/lib/libnx_min/nx/lib\libnx_min.a(sm.o)
                0x000000000000e240                smGetService
 *fill*         0x000000000000e2b4        0xc 
 .text.smRegisterService
                0x000000000000e2c0      0x25c S:/UltimateEnvironment/code-mod-example/param-replace/code-mod-framework/lib/libnx_min/nx/lib\libnx_min.a(sm.o)
                0x000000000000e2c0                smRegisterService
 *fill*         0x000000000000e51c        0x4 
 .text.smUnregisterService
                0x000000000000e520      0x1ac S:/UltimateEnvironment/code-mod-example/param-replace/code-mod-framework/lib/libnx_min/nx/lib\libnx_min.a(sm.o)
                0x000000000000e520                smUnregisterService
 *fill*         0x000000000000e6cc        0x4 
 .text._hidGetDeviceHandles.part.7
                0x000000000000e6d0       0xec S:/UltimateEnvironment/code-mod-example/param-replace/code-mod-framework/lib/libnx_min/nx/lib\libnx_min.a(hid.o)
 *fill*         0x000000000000e7bc        0x4 
 .text.ipcCloseObjectById
                0x000000000000e7c0       0x34 S:/UltimateEnvironment/code-mod-example/param-replace/code-mod-framework/lib/libnx_min/nx/lib\libnx_min.a(hid.o)
 *fill*         0x000000000000e7f4        0xc 
 .text._hidActivateVibrationDevice
                0x000000000000e800       0xc8 S:/UltimateEnvironment/code-mod-example/param-replace/code-mod-framework/lib/libnx_min/nx/lib\libnx_min.a(hid.o)
 *fill*         0x000000000000e8c8        0x8 
 .text._hidGetSharedMemoryHandle.constprop.17
                0x000000000000e8d0      0x124 S:/UltimateEnvironment/code-mod-example/param-replace/code-mod-framework/lib/libnx_min/nx/lib\libnx_min.a(hid.o)
 *fill*         0x000000000000e9f4        0xc 
 .text._hidCreateActiveVibrationDeviceList
                0x000000000000ea00      0x134 S:/UltimateEnvironment/code-mod-example/param-replace/code-mod-framework/lib/libnx_min/nx/lib\libnx_min.a(hid.o)
 *fill*         0x000000000000eb34        0xc 
 .text._hidCmdWithNoInput
                0x000000000000eb40      0x100 S:/UltimateEnvironment/code-mod-example/param-replace/code-mod-framework/lib/libnx_min/nx/lib\libnx_min.a(hid.o)
 .text._hidCreateAppletResource.constprop.16
                0x000000000000ec40      0x134 S:/UltimateEnvironment/code-mod-example/param-replace/code-mod-framework/lib/libnx_min/nx/lib\libnx_min.a(hid.o)
 *fill*         0x000000000000ed74        0xc 
 .text._hidCmdWithInputU32
                0x000000000000ed80      0x10c S:/UltimateEnvironment/code-mod-example/param-replace/code-mod-framework/lib/libnx_min/nx/lib\libnx_min.a(hid.o)
 *fill*         0x000000000000ee8c        0x4 
 .text._hidCmdWithInputU64.constprop.18
                0x000000000000ee90      0x108 S:/UltimateEnvironment/code-mod-example/param-replace/code-mod-framework/lib/libnx_min/nx/lib\libnx_min.a(hid.o)
 *fill*         0x000000000000ef98        0x8 
 .text._hidInitializeSevenSixAxisSensor.isra.11.constprop.19
                0x000000000000efa0      0x1f8 S:/UltimateEnvironment/code-mod-example/param-replace/code-mod-framework/lib/libnx_min/nx/lib\libnx_min.a(hid.o)
 *fill*         0x000000000000f198        0x8 
 .text.hidReset
                0x000000000000f1a0      0x1f8 S:/UltimateEnvironment/code-mod-example/param-replace/code-mod-framework/lib/libnx_min/nx/lib\libnx_min.a(hid.o)
                0x000000000000f1a0                hidReset
 *fill*         0x000000000000f398        0x8 
 .text.hidGetSessionService
                0x000000000000f3a0        0xc S:/UltimateEnvironment/code-mod-example/param-replace/code-mod-framework/lib/libnx_min/nx/lib\libnx_min.a(hid.o)
                0x000000000000f3a0                hidGetSessionService
 *fill*         0x000000000000f3ac        0x4 
 .text.hidGetSharedmemAddr
                0x000000000000f3b0        0xc S:/UltimateEnvironment/code-mod-example/param-replace/code-mod-framework/lib/libnx_min/nx/lib\libnx_min.a(hid.o)
                0x000000000000f3b0                hidGetSharedmemAddr
 *fill*         0x000000000000f3bc        0x4 
 .text.hidSetControllerLayout
                0x000000000000f3c0       0x54 S:/UltimateEnvironment/code-mod-example/param-replace/code-mod-framework/lib/libnx_min/nx/lib\libnx_min.a(hid.o)
                0x000000000000f3c0                hidSetControllerLayout
 *fill*         0x000000000000f414        0xc 
 .text.hidGetControllerLayout
                0x000000000000f420       0x50 S:/UltimateEnvironment/code-mod-example/param-replace/code-mod-framework/lib/libnx_min/nx/lib\libnx_min.a(hid.o)
                0x000000000000f420                hidGetControllerLayout
 .text.hidGetControllerType
                0x000000000000f470       0x78 S:/UltimateEnvironment/code-mod-example/param-replace/code-mod-framework/lib/libnx_min/nx/lib\libnx_min.a(hid.o)
                0x000000000000f470                hidGetControllerType
 *fill*         0x000000000000f4e8        0x8 
 .text.hidGetControllerColors
                0x000000000000f4f0       0xd4 S:/UltimateEnvironment/code-mod-example/param-replace/code-mod-framework/lib/libnx_min/nx/lib\libnx_min.a(hid.o)
                0x000000000000f4f0                hidGetControllerColors
 *fill*         0x000000000000f5c4        0xc 
 .text.hidIsControllerConnected
                0x000000000000f5d0       0x7c S:/UltimateEnvironment/code-mod-example/param-replace/code-mod-framework/lib/libnx_min/nx/lib\libnx_min.a(hid.o)
                0x000000000000f5d0                hidIsControllerConnected
 *fill*         0x000000000000f64c        0x4 
 .text.hidGetControllerDeviceType
                0x000000000000f650       0x70 S:/UltimateEnvironment/code-mod-example/param-replace/code-mod-framework/lib/libnx_min/nx/lib\libnx_min.a(hid.o)
                0x000000000000f650                hidGetControllerDeviceType
 .text.hidGetControllerFlags
                0x000000000000f6c0       0x90 S:/UltimateEnvironment/code-mod-example/param-replace/code-mod-framework/lib/libnx_min/nx/lib\libnx_min.a(hid.o)
                0x000000000000f6c0                hidGetControllerFlags
 .text.hidGetControllerPowerInfo
                0x000000000000f750      0x114 S:/UltimateEnvironment/code-mod-example/param-replace/code-mod-framework/lib/libnx_min/nx/lib\libnx_min.a(hid.o)
                0x000000000000f750                hidGetControllerPowerInfo
 *fill*         0x000000000000f864        0xc 
 .text.hidKeysHeld
                0x000000000000f870       0x6c S:/UltimateEnvironment/code-mod-example/param-replace/code-mod-framework/lib/libnx_min/nx/lib\libnx_min.a(hid.o)
                0x000000000000f870                hidKeysHeld
 *fill*         0x000000000000f8dc        0x4 
 .text.hidKeysDown
                0x000000000000f8e0       0x6c S:/UltimateEnvironment/code-mod-example/param-replace/code-mod-framework/lib/libnx_min/nx/lib\libnx_min.a(hid.o)
                0x000000000000f8e0                hidKeysDown
 *fill*         0x000000000000f94c        0x4 
 .text.hidKeysUp
                0x000000000000f950       0x6c S:/UltimateEnvironment/code-mod-example/param-replace/code-mod-framework/lib/libnx_min/nx/lib\libnx_min.a(hid.o)
                0x000000000000f950                hidKeysUp
 *fill*         0x000000000000f9bc        0x4 
 .text.hidMouseButtonsHeld
                0x000000000000f9c0       0x3c S:/UltimateEnvironment/code-mod-example/param-replace/code-mod-framework/lib/libnx_min/nx/lib\libnx_min.a(hid.o)
                0x000000000000f9c0                hidMouseButtonsHeld
 *fill*         0x000000000000f9fc        0x4 
 .text.hidMouseButtonsDown
                0x000000000000fa00       0x3c S:/UltimateEnvironment/code-mod-example/param-replace/code-mod-framework/lib/libnx_min/nx/lib\libnx_min.a(hid.o)
                0x000000000000fa00                hidMouseButtonsDown
 *fill*         0x000000000000fa3c        0x4 
 .text.hidMouseButtonsUp
                0x000000000000fa40       0x3c S:/UltimateEnvironment/code-mod-example/param-replace/code-mod-framework/lib/libnx_min/nx/lib\libnx_min.a(hid.o)
                0x000000000000fa40                hidMouseButtonsUp
 *fill*         0x000000000000fa7c        0x4 
 .text.hidMouseRead
                0x000000000000fa80       0x48 S:/UltimateEnvironment/code-mod-example/param-replace/code-mod-framework/lib/libnx_min/nx/lib\libnx_min.a(hid.o)
                0x000000000000fa80                hidMouseRead
 *fill*         0x000000000000fac8        0x8 
 .text.hidMouseMultiRead
                0x000000000000fad0      0x150 S:/UltimateEnvironment/code-mod-example/param-replace/code-mod-framework/lib/libnx_min/nx/lib\libnx_min.a(hid.o)
                0x000000000000fad0                hidMouseMultiRead
 .text.hidKeyboardModifierHeld
                0x000000000000fc20       0x48 S:/UltimateEnvironment/code-mod-example/param-replace/code-mod-framework/lib/libnx_min/nx/lib\libnx_min.a(hid.o)
                0x000000000000fc20                hidKeyboardModifierHeld
 *fill*         0x000000000000fc68        0x8 
 .text.hidKeyboardModifierDown
                0x000000000000fc70       0x48 S:/UltimateEnvironment/code-mod-example/param-replace/code-mod-framework/lib/libnx_min/nx/lib\libnx_min.a(hid.o)
                0x000000000000fc70                hidKeyboardModifierDown
 *fill*         0x000000000000fcb8        0x8 
 .text.hidKeyboardModifierUp
                0x000000000000fcc0       0x48 S:/UltimateEnvironment/code-mod-example/param-replace/code-mod-framework/lib/libnx_min/nx/lib\libnx_min.a(hid.o)
                0x000000000000fcc0                hidKeyboardModifierUp
 *fill*         0x000000000000fd08        0x8 
 .text.hidKeyboardHeld
                0x000000000000fd10       0x60 S:/UltimateEnvironment/code-mod-example/param-replace/code-mod-framework/lib/libnx_min/nx/lib\libnx_min.a(hid.o)
                0x000000000000fd10                hidKeyboardHeld
 .text.hidKeyboardDown
                0x000000000000fd70       0x60 S:/UltimateEnvironment/code-mod-example/param-replace/code-mod-framework/lib/libnx_min/nx/lib\libnx_min.a(hid.o)
                0x000000000000fd70                hidKeyboardDown
 .text.hidKeyboardUp
                0x000000000000fdd0       0x60 S:/UltimateEnvironment/code-mod-example/param-replace/code-mod-framework/lib/libnx_min/nx/lib\libnx_min.a(hid.o)
                0x000000000000fdd0                hidKeyboardUp
 .text.hidTouchCount
                0x000000000000fe30        0xc S:/UltimateEnvironment/code-mod-example/param-replace/code-mod-framework/lib/libnx_min/nx/lib\libnx_min.a(hid.o)
                0x000000000000fe30                hidTouchCount
 *fill*         0x000000000000fe3c        0x4 
 .text.hidScanInput
                0x000000000000fe40      0x598 S:/UltimateEnvironment/code-mod-example/param-replace/code-mod-framework/lib/libnx_min/nx/lib\libnx_min.a(hid.o)
                0x000000000000fe40                hidScanInput
 *fill*         0x00000000000103d8        0x8 
 .text.hidTouchRead
                0x00000000000103e0       0x54 S:/UltimateEnvironment/code-mod-example/param-replace/code-mod-framework/lib/libnx_min/nx/lib\libnx_min.a(hid.o)
                0x00000000000103e0                hidTouchRead
 *fill*         0x0000000000010434        0xc 
 .text.hidJoystickRead
                0x0000000000010440       0xac S:/UltimateEnvironment/code-mod-example/param-replace/code-mod-framework/lib/libnx_min/nx/lib\libnx_min.a(hid.o)
                0x0000000000010440                hidJoystickRead
 *fill*         0x00000000000104ec        0x4 
 .text.hidSixAxisSensorValuesRead
                0x00000000000104f0      0x214 S:/UltimateEnvironment/code-mod-example/param-replace/code-mod-framework/lib/libnx_min/nx/lib\libnx_min.a(hid.o)
                0x00000000000104f0                hidSixAxisSensorValuesRead
 *fill*         0x0000000000010704        0xc 
 .text.hidGetHandheldMode
                0x0000000000010710       0x14 S:/UltimateEnvironment/code-mod-example/param-replace/code-mod-framework/lib/libnx_min/nx/lib\libnx_min.a(hid.o)
                0x0000000000010710                hidGetHandheldMode
 *fill*         0x0000000000010724        0xc 
 .text.hidSetSupportedNpadIdType
                0x0000000000010730      0x198 S:/UltimateEnvironment/code-mod-example/param-replace/code-mod-framework/lib/libnx_min/nx/lib\libnx_min.a(hid.o)
                0x0000000000010730                hidSetSupportedNpadIdType
 *fill*         0x00000000000108c8        0x8 
 .text.hidSetSupportedNpadStyleSet
                0x00000000000108d0        0xc S:/UltimateEnvironment/code-mod-example/param-replace/code-mod-framework/lib/libnx_min/nx/lib\libnx_min.a(hid.o)
                0x00000000000108d0                hidSetSupportedNpadStyleSet
 *fill*         0x00000000000108dc        0x4 
 .text.hidAcquireNpadStyleSetUpdateEventHandle
                0x00000000000108e0      0x194 S:/UltimateEnvironment/code-mod-example/param-replace/code-mod-framework/lib/libnx_min/nx/lib\libnx_min.a(hid.o)
                0x00000000000108e0                hidAcquireNpadStyleSetUpdateEventHandle
 *fill*         0x0000000000010a74        0xc 
 .text.hidSetNpadJoyHoldType
                0x0000000000010a80        0x8 S:/UltimateEnvironment/code-mod-example/param-replace/code-mod-framework/lib/libnx_min/nx/lib\libnx_min.a(hid.o)
                0x0000000000010a80                hidSetNpadJoyHoldType
 *fill*         0x0000000000010a88        0x8 
 .text.hidSetNpadJoyAssignmentModeSingleByDefault
                0x0000000000010a90        0xc S:/UltimateEnvironment/code-mod-example/param-replace/code-mod-framework/lib/libnx_min/nx/lib\libnx_min.a(hid.o)
                0x0000000000010a90                hidSetNpadJoyAssignmentModeSingleByDefault
 *fill*         0x0000000000010a9c        0x4 
 .text.hidSetNpadJoyAssignmentModeDual
                0x0000000000010aa0        0xc S:/UltimateEnvironment/code-mod-example/param-replace/code-mod-framework/lib/libnx_min/nx/lib\libnx_min.a(hid.o)
                0x0000000000010aa0                hidSetNpadJoyAssignmentModeDual
 *fill*         0x0000000000010aac        0x4 
 .text.hidMergeSingleJoyAsDualJoy
                0x0000000000010ab0      0x110 S:/UltimateEnvironment/code-mod-example/param-replace/code-mod-framework/lib/libnx_min/nx/lib\libnx_min.a(hid.o)
                0x0000000000010ab0                hidMergeSingleJoyAsDualJoy
 .text.hidGetVibrationDeviceInfo
                0x0000000000010bc0       0xf8 S:/UltimateEnvironment/code-mod-example/param-replace/code-mod-framework/lib/libnx_min/nx/lib\libnx_min.a(hid.o)
                0x0000000000010bc0                hidGetVibrationDeviceInfo
 *fill*         0x0000000000010cb8        0x8 
 .text.hidSendVibrationValue
                0x0000000000010cc0      0x120 S:/UltimateEnvironment/code-mod-example/param-replace/code-mod-framework/lib/libnx_min/nx/lib\libnx_min.a(hid.o)
                0x0000000000010cc0                hidSendVibrationValue
 .text.hidGetActualVibrationValue
                0x0000000000010de0      0x128 S:/UltimateEnvironment/code-mod-example/param-replace/code-mod-framework/lib/libnx_min/nx/lib\libnx_min.a(hid.o)
                0x0000000000010de0                hidGetActualVibrationValue
 *fill*         0x0000000000010f08        0x8 
 .text.hidPermitVibration
                0x0000000000010f10       0xd0 S:/UltimateEnvironment/code-mod-example/param-replace/code-mod-framework/lib/libnx_min/nx/lib\libnx_min.a(hid.o)
                0x0000000000010f10                hidPermitVibration
 .text.hidIsVibrationPermitted
                0x0000000000010fe0       0xf4 S:/UltimateEnvironment/code-mod-example/param-replace/code-mod-framework/lib/libnx_min/nx/lib\libnx_min.a(hid.o)
                0x0000000000010fe0                hidIsVibrationPermitted
 *fill*         0x00000000000110d4        0xc 
 .text.hidSendVibrationValues
                0x00000000000110e0      0x144 S:/UltimateEnvironment/code-mod-example/param-replace/code-mod-framework/lib/libnx_min/nx/lib\libnx_min.a(hid.o)
                0x00000000000110e0                hidSendVibrationValues
 *fill*         0x0000000000011224        0xc 
 .text.hidInitializeVibrationDevices
                0x0000000000011230      0x114 S:/UltimateEnvironment/code-mod-example/param-replace/code-mod-framework/lib/libnx_min/nx/lib\libnx_min.a(hid.o)
                0x0000000000011230                hidInitializeVibrationDevices
 *fill*         0x0000000000011344        0xc 
 .text.hidGetSixAxisSensorHandles
                0x0000000000011350       0x2c S:/UltimateEnvironment/code-mod-example/param-replace/code-mod-framework/lib/libnx_min/nx/lib\libnx_min.a(hid.o)
                0x0000000000011350                hidGetSixAxisSensorHandles
 *fill*         0x000000000001137c        0x4 
 .text.hidStartSixAxisSensor
                0x0000000000011380       0x84 S:/UltimateEnvironment/code-mod-example/param-replace/code-mod-framework/lib/libnx_min/nx/lib\libnx_min.a(hid.o)
                0x0000000000011380                hidStartSixAxisSensor
 *fill*         0x0000000000011404        0xc 
 .text.hidStopSixAxisSensor
                0x0000000000011410       0x80 S:/UltimateEnvironment/code-mod-example/param-replace/code-mod-framework/lib/libnx_min/nx/lib\libnx_min.a(hid.o)
                0x0000000000011410                hidStopSixAxisSensor
 .text.hidStartSevenSixAxisSensor
                0x0000000000011490       0x30 S:/UltimateEnvironment/code-mod-example/param-replace/code-mod-framework/lib/libnx_min/nx/lib\libnx_min.a(hid.o)
                0x0000000000011490                hidStartSevenSixAxisSensor
 .text.hidStopSevenSixAxisSensor
                0x00000000000114c0       0x30 S:/UltimateEnvironment/code-mod-example/param-replace/code-mod-framework/lib/libnx_min/nx/lib\libnx_min.a(hid.o)
                0x00000000000114c0                hidStopSevenSixAxisSensor
 .text.hidFinalizeSevenSixAxisSensor
                0x00000000000114f0       0x80 S:/UltimateEnvironment/code-mod-example/param-replace/code-mod-framework/lib/libnx_min/nx/lib\libnx_min.a(hid.o)
                0x00000000000114f0                hidFinalizeSevenSixAxisSensor
 .text.hidExit  0x0000000000011570      0x134 S:/UltimateEnvironment/code-mod-example/param-replace/code-mod-framework/lib/libnx_min/nx/lib\libnx_min.a(hid.o)
                0x0000000000011570                hidExit
 *fill*         0x00000000000116a4        0xc 
 .text.hidInitialize
                0x00000000000116b0      0x168 S:/UltimateEnvironment/code-mod-example/param-replace/code-mod-framework/lib/libnx_min/nx/lib\libnx_min.a(hid.o)
                0x00000000000116b0                hidInitialize
 *fill*         0x0000000000011818        0x8 
 .text.hidInitializeSevenSixAxisSensor
                0x0000000000011820      0x130 S:/UltimateEnvironment/code-mod-example/param-replace/code-mod-framework/lib/libnx_min/nx/lib\libnx_min.a(hid.o)
                0x0000000000011820                hidInitializeSevenSixAxisSensor
 .text.hidSetSevenSixAxisSensorFusionStrength
                0x0000000000011950      0x1f8 S:/UltimateEnvironment/code-mod-example/param-replace/code-mod-framework/lib/libnx_min/nx/lib\libnx_min.a(hid.o)
                0x0000000000011950                hidSetSevenSixAxisSensorFusionStrength
 *fill*         0x0000000000011b48        0x8 
 .text.hidGetSevenSixAxisSensorFusionStrength
                0x0000000000011b50      0x1fc S:/UltimateEnvironment/code-mod-example/param-replace/code-mod-framework/lib/libnx_min/nx/lib\libnx_min.a(hid.o)
                0x0000000000011b50                hidGetSevenSixAxisSensorFusionStrength
 *fill*         0x0000000000011d4c        0x4 
 .text.hidResetSevenSixAxisSensorTimestamp
                0x0000000000011d50       0x30 S:/UltimateEnvironment/code-mod-example/param-replace/code-mod-framework/lib/libnx_min/nx/lib\libnx_min.a(hid.o)
                0x0000000000011d50                hidResetSevenSixAxisSensorTimestamp
 .text.ipcCloseObjectById
                0x0000000000011d80       0x34 S:/UltimateEnvironment/code-mod-example/param-replace/code-mod-framework/lib/libnx_min/nx/lib\libnx_min.a(time.o)
 *fill*         0x0000000000011db4        0xc 
 .text._timeGetSession
                0x0000000000011dc0      0x12c S:/UltimateEnvironment/code-mod-example/param-replace/code-mod-framework/lib/libnx_min/nx/lib\libnx_min.a(time.o)
 *fill*         0x0000000000011eec        0x4 
 .text.timeExit
                0x0000000000011ef0      0x1ec S:/UltimateEnvironment/code-mod-example/param-replace/code-mod-framework/lib/libnx_min/nx/lib\libnx_min.a(time.o)
                0x0000000000011ef0                timeExit
 *fill*         0x00000000000120dc        0x4 
 .text.timeInitialize
                0x00000000000120e0       0xd8 S:/UltimateEnvironment/code-mod-example/param-replace/code-mod-framework/lib/libnx_min/nx/lib\libnx_min.a(time.o)
                0x00000000000120e0                timeInitialize
 *fill*         0x00000000000121b8        0x8 
 .text.timeGetSessionService
                0x00000000000121c0        0xc S:/UltimateEnvironment/code-mod-example/param-replace/code-mod-framework/lib/libnx_min/nx/lib\libnx_min.a(time.o)
                0x00000000000121c0                timeGetSessionService
 *fill*         0x00000000000121cc        0x4 
 .text.timeGetCurrentTime
                0x00000000000121d0      0x124 S:/UltimateEnvironment/code-mod-example/param-replace/code-mod-framework/lib/libnx_min/nx/lib\libnx_min.a(time.o)
                0x00000000000121d0                timeGetCurrentTime
 *fill*         0x00000000000122f4        0xc 
 .text.timeSetCurrentTime
                0x0000000000012300      0x104 S:/UltimateEnvironment/code-mod-example/param-replace/code-mod-framework/lib/libnx_min/nx/lib\libnx_min.a(time.o)
                0x0000000000012300                timeSetCurrentTime
 *fill*         0x0000000000012404        0xc 
 .text.timeToCalendarTimeWithMyRule
                0x0000000000012410      0x118 S:/UltimateEnvironment/code-mod-example/param-replace/code-mod-framework/lib/libnx_min/nx/lib\libnx_min.a(time.o)
                0x0000000000012410                timeToCalendarTimeWithMyRule
 *fill*         0x0000000000012528        0x8 
 .text.ipcPrepareHeader
                0x0000000000012530      0x220 S:/UltimateEnvironment/code-mod-example/param-replace/code-mod-framework/lib/libnx_min/nx/lib\libnx_min.a(applet.o)
 .text.ipcParse
                0x0000000000012750      0x22c S:/UltimateEnvironment/code-mod-example/param-replace/code-mod-framework/lib/libnx_min/nx/lib\libnx_min.a(applet.o)
 *fill*         0x000000000001297c        0x4 
 .text.serviceIpcParse
                0x0000000000012980       0xb0 S:/UltimateEnvironment/code-mod-example/param-replace/code-mod-framework/lib/libnx_min/nx/lib\libnx_min.a(applet.o)
 .text.ipcConvertSessionToDomain
                0x0000000000012a30       0x78 S:/UltimateEnvironment/code-mod-example/param-replace/code-mod-framework/lib/libnx_min/nx/lib\libnx_min.a(applet.o)
 *fill*         0x0000000000012aa8        0x8 
 .text.ipcQueryPointerBufferSize
                0x0000000000012ab0       0x7c S:/UltimateEnvironment/code-mod-example/param-replace/code-mod-framework/lib/libnx_min/nx/lib\libnx_min.a(applet.o)
 *fill*         0x0000000000012b2c        0x4 
 .text.ipcCloneSession.constprop.52
                0x0000000000012b30       0x84 S:/UltimateEnvironment/code-mod-example/param-replace/code-mod-framework/lib/libnx_min/nx/lib\libnx_min.a(applet.o)
 *fill*         0x0000000000012bb4        0xc 
 .text.ipcCloseObjectById
                0x0000000000012bc0       0x34 S:/UltimateEnvironment/code-mod-example/param-replace/code-mod-framework/lib/libnx_min/nx/lib\libnx_min.a(applet.o)
 *fill*         0x0000000000012bf4        0xc 
 .text.serviceClose
                0x0000000000012c00       0x6c S:/UltimateEnvironment/code-mod-example/param-replace/code-mod-framework/lib/libnx_min/nx/lib\libnx_min.a(applet.o)
 *fill*         0x0000000000012c6c        0x4 
 .text._appletCmdInHandle64
                0x0000000000012c70      0x204 S:/UltimateEnvironment/code-mod-example/param-replace/code-mod-framework/lib/libnx_min/nx/lib\libnx_min.a(applet.o)
 *fill*         0x0000000000012e74        0xc 
 .text._appletReceiveMessage
                0x0000000000012e80      0x19c S:/UltimateEnvironment/code-mod-example/param-replace/code-mod-framework/lib/libnx_min/nx/lib\libnx_min.a(applet.o)
 *fill*         0x000000000001301c        0x4 
 .text._appletCmdNoIO
                0x0000000000013020      0x164 S:/UltimateEnvironment/code-mod-example/param-replace/code-mod-framework/lib/libnx_min/nx/lib\libnx_min.a(applet.o)
 *fill*         0x0000000000013184        0xc 
 .text._appletGetOperationMode.constprop.43
                0x0000000000013190      0x18c S:/UltimateEnvironment/code-mod-example/param-replace/code-mod-framework/lib/libnx_min/nx/lib\libnx_min.a(applet.o)
 *fill*         0x000000000001331c        0x4 
 .text._appletGetCurrentFocusState.constprop.45
                0x0000000000013320      0x18c S:/UltimateEnvironment/code-mod-example/param-replace/code-mod-framework/lib/libnx_min/nx/lib\libnx_min.a(applet.o)
 *fill*         0x00000000000134ac        0x4 
 .text._appletGetPerformanceMode.constprop.44
                0x00000000000134b0      0x18c S:/UltimateEnvironment/code-mod-example/param-replace/code-mod-framework/lib/libnx_min/nx/lib\libnx_min.a(applet.o)
 *fill*         0x000000000001363c        0x4 
 .text._appletCmdNoInOutBool
                0x0000000000013640      0x184 S:/UltimateEnvironment/code-mod-example/param-replace/code-mod-framework/lib/libnx_min/nx/lib\libnx_min.a(applet.o)
 *fill*         0x00000000000137c4        0xc 
 .text._appletGetSession
                0x00000000000137d0      0x1d8 S:/UltimateEnvironment/code-mod-example/param-replace/code-mod-framework/lib/libnx_min/nx/lib\libnx_min.a(applet.o)
 *fill*         0x00000000000139a8        0x8 
 .text._appletCmdNoInOut64
                0x00000000000139b0      0x17c S:/UltimateEnvironment/code-mod-example/param-replace/code-mod-framework/lib/libnx_min/nx/lib\libnx_min.a(applet.o)
 *fill*         0x0000000000013b2c        0x4 
 .text._appletSetOperationModeChangedNotification.constprop.46
                0x0000000000013b30      0x164 S:/UltimateEnvironment/code-mod-example/param-replace/code-mod-framework/lib/libnx_min/nx/lib\libnx_min.a(applet.o)
 *fill*         0x0000000000013c94        0xc 
 .text._appletCmdInU8
                0x0000000000013ca0      0x17c S:/UltimateEnvironment/code-mod-example/param-replace/code-mod-framework/lib/libnx_min/nx/lib\libnx_min.a(applet.o)
 *fill*         0x0000000000013e1c        0x4 
 .text._appletSetOutOfFocusSuspendingEnabled
                0x0000000000013e20      0x16c S:/UltimateEnvironment/code-mod-example/param-replace/code-mod-framework/lib/libnx_min/nx/lib\libnx_min.a(applet.o)
 *fill*         0x0000000000013f8c        0x4 
 .text._appletSetPerformanceModeChangedNotification.constprop.47
                0x0000000000013f90      0x164 S:/UltimateEnvironment/code-mod-example/param-replace/code-mod-framework/lib/libnx_min/nx/lib\libnx_min.a(applet.o)
 *fill*         0x00000000000140f4        0xc 
 .text._appletCmdInU64.constprop.37
                0x0000000000014100      0x16c S:/UltimateEnvironment/code-mod-example/param-replace/code-mod-framework/lib/libnx_min/nx/lib\libnx_min.a(applet.o)
 *fill*         0x000000000001426c        0x4 
 .text._appletCmdInU32.constprop.48
                0x0000000000014270      0x16c S:/UltimateEnvironment/code-mod-example/param-replace/code-mod-framework/lib/libnx_min/nx/lib\libnx_min.a(applet.o)
 *fill*         0x00000000000143dc        0x4 
 .text._appletSetFocusHandlingMode
                0x00000000000143e0      0x17c S:/UltimateEnvironment/code-mod-example/param-replace/code-mod-framework/lib/libnx_min/nx/lib\libnx_min.a(applet.o)
 *fill*         0x000000000001455c        0x4 
 .text._appletGetHandle.constprop.42
                0x0000000000014560      0x178 S:/UltimateEnvironment/code-mod-example/param-replace/code-mod-framework/lib/libnx_min/nx/lib\libnx_min.a(applet.o)
 *fill*         0x00000000000146d8        0x8 
 .text._appletGetEvent.constprop.41
                0x00000000000146e0       0x54 S:/UltimateEnvironment/code-mod-example/param-replace/code-mod-framework/lib/libnx_min/nx/lib\libnx_min.a(applet.o)
 *fill*         0x0000000000014734        0xc 
 .text._appletWaitLibraryAppletLaunchableEvent
                0x0000000000014740       0x50 S:/UltimateEnvironment/code-mod-example/param-replace/code-mod-framework/lib/libnx_min/nx/lib\libnx_min.a(applet.o)
 .text._appletCreateApplicationAndRequestToStartForQuest.isra.20
                0x0000000000014790      0x17c S:/UltimateEnvironment/code-mod-example/param-replace/code-mod-framework/lib/libnx_min/nx/lib\libnx_min.a(applet.o)
 *fill*         0x000000000001490c        0x4 
 .text._appletCreateApplicationAndPushAndRequestToStart
                0x0000000000014910      0x1e0 S:/UltimateEnvironment/code-mod-example/param-replace/code-mod-framework/lib/libnx_min/nx/lib\libnx_min.a(applet.o)
 .text._appletCmdNoInOut32.constprop.38
                0x0000000000014af0      0x194 S:/UltimateEnvironment/code-mod-example/param-replace/code-mod-framework/lib/libnx_min/nx/lib\libnx_min.a(applet.o)
 *fill*         0x0000000000014c84        0xc 
 .text._appletCmdInSession
                0x0000000000014c90      0x1d8 S:/UltimateEnvironment/code-mod-example/param-replace/code-mod-framework/lib/libnx_min/nx/lib\libnx_min.a(applet.o)
 *fill*         0x0000000000014e68        0x8 
 .text._appletStorageGetHandle
                0x0000000000014e70      0x19c S:/UltimateEnvironment/code-mod-example/param-replace/code-mod-framework/lib/libnx_min/nx/lib\libnx_min.a(applet.o)
 *fill*         0x000000000001500c        0x4 
 .text._appletCreateApplicationAndPushAndRequestToStartForQuest.isra.21
                0x0000000000015010      0x1e8 S:/UltimateEnvironment/code-mod-example/param-replace/code-mod-framework/lib/libnx_min/nx/lib\libnx_min.a(applet.o)
 *fill*         0x00000000000151f8        0x8 
 .text._appletCreateTransferMemoryStorage.isra.25
                0x0000000000015200      0x1e4 S:/UltimateEnvironment/code-mod-example/param-replace/code-mod-framework/lib/libnx_min/nx/lib\libnx_min.a(applet.o)
 *fill*         0x00000000000153e4        0xc 
 .text._appletGetSessionIn64.constprop.39
                0x00000000000153f0      0x1c4 S:/UltimateEnvironment/code-mod-example/param-replace/code-mod-framework/lib/libnx_min/nx/lib\libnx_min.a(applet.o)
 *fill*         0x00000000000155b4        0xc 
 .text._appletStorageAccessorRW
                0x00000000000155c0      0x314 S:/UltimateEnvironment/code-mod-example/param-replace/code-mod-framework/lib/libnx_min/nx/lib\libnx_min.a(applet.o)
 *fill*         0x00000000000158d4        0xc 
 .text._appletStorageRW
                0x00000000000158e0      0x108 S:/UltimateEnvironment/code-mod-example/param-replace/code-mod-framework/lib/libnx_min/nx/lib\libnx_min.a(applet.o)
 *fill*         0x00000000000159e8        0x8 
 .text._appletCreateLibraryApplet
                0x00000000000159f0      0x1c4 S:/UltimateEnvironment/code-mod-example/param-replace/code-mod-framework/lib/libnx_min/nx/lib\libnx_min.a(applet.o)
 *fill*         0x0000000000015bb4        0xc 
 .text._appletGetSessionProxy.constprop.40
                0x0000000000015bc0      0x1f0 S:/UltimateEnvironment/code-mod-example/param-replace/code-mod-framework/lib/libnx_min/nx/lib\libnx_min.a(applet.o)
 .text.appletGetAppletType
                0x0000000000015db0       0x10 S:/UltimateEnvironment/code-mod-example/param-replace/code-mod-framework/lib/libnx_min/nx/lib\libnx_min.a(applet.o)
                0x0000000000015db0                appletGetAppletType
 .text.appletHook
                0x0000000000015dc0       0x28 S:/UltimateEnvironment/code-mod-example/param-replace/code-mod-framework/lib/libnx_min/nx/lib\libnx_min.a(applet.o)
                0x0000000000015dc0                appletHook
 *fill*         0x0000000000015de8        0x8 
 .text.appletUnhook
                0x0000000000015df0       0x34 S:/UltimateEnvironment/code-mod-example/param-replace/code-mod-framework/lib/libnx_min/nx/lib\libnx_min.a(applet.o)
                0x0000000000015df0                appletUnhook
 *fill*         0x0000000000015e24        0xc 
 .text.appletSetThemeColorType
                0x0000000000015e30        0xc S:/UltimateEnvironment/code-mod-example/param-replace/code-mod-framework/lib/libnx_min/nx/lib\libnx_min.a(applet.o)
                0x0000000000015e30                appletSetThemeColorType
 *fill*         0x0000000000015e3c        0x4 
 .text.appletGetThemeColorType
                0x0000000000015e40        0xc S:/UltimateEnvironment/code-mod-example/param-replace/code-mod-framework/lib/libnx_min/nx/lib\libnx_min.a(applet.o)
                0x0000000000015e40                appletGetThemeColorType
 *fill*         0x0000000000015e4c        0x4 
 .text.appletSetFocusHandlingMode
                0x0000000000015e50       0xf0 S:/UltimateEnvironment/code-mod-example/param-replace/code-mod-framework/lib/libnx_min/nx/lib\libnx_min.a(applet.o)
                0x0000000000015e50                appletSetFocusHandlingMode
 .text.appletGetAppletResourceUserId
                0x0000000000015f40       0x28 S:/UltimateEnvironment/code-mod-example/param-replace/code-mod-framework/lib/libnx_min/nx/lib\libnx_min.a(applet.o)
                0x0000000000015f40                appletGetAppletResourceUserId
 *fill*         0x0000000000015f68        0x8 
 .text._appletGetIndirectLayerConsumerHandle
                0x0000000000015f70      0x12c S:/UltimateEnvironment/code-mod-example/param-replace/code-mod-framework/lib/libnx_min/nx/lib\libnx_min.a(applet.o)
 *fill*         0x000000000001609c        0x4 
 .text._appletHolderCreate
                0x00000000000160a0       0xc0 S:/UltimateEnvironment/code-mod-example/param-replace/code-mod-framework/lib/libnx_min/nx/lib\libnx_min.a(applet.o)
 .text.appletPopLaunchParameter
                0x0000000000016160      0x194 S:/UltimateEnvironment/code-mod-example/param-replace/code-mod-framework/lib/libnx_min/nx/lib\libnx_min.a(applet.o)
                0x0000000000016160                appletPopLaunchParameter
 *fill*         0x00000000000162f4        0xc 
 .text.appletGetDesiredLanguage
                0x0000000000016300       0x3c S:/UltimateEnvironment/code-mod-example/param-replace/code-mod-framework/lib/libnx_min/nx/lib\libnx_min.a(applet.o)
                0x0000000000016300                appletGetDesiredLanguage
 *fill*         0x000000000001633c        0x4 
 .text.appletSetTerminateResult
                0x0000000000016340      0x14c S:/UltimateEnvironment/code-mod-example/param-replace/code-mod-framework/lib/libnx_min/nx/lib\libnx_min.a(applet.o)
                0x0000000000016340                appletSetTerminateResult
 *fill*         0x000000000001648c        0x4 
 .text.appletSetMediaPlaybackState
                0x0000000000016490       0x4c S:/UltimateEnvironment/code-mod-example/param-replace/code-mod-framework/lib/libnx_min/nx/lib\libnx_min.a(applet.o)
                0x0000000000016490                appletSetMediaPlaybackState
 *fill*         0x00000000000164dc        0x4 
 .text.appletBeginBlockingHomeButton
                0x00000000000164e0      0x14c S:/UltimateEnvironment/code-mod-example/param-replace/code-mod-framework/lib/libnx_min/nx/lib\libnx_min.a(applet.o)
                0x00000000000164e0                appletBeginBlockingHomeButton
 *fill*         0x000000000001662c        0x4 
 .text.appletEndBlockingHomeButton
                0x0000000000016630       0x38 S:/UltimateEnvironment/code-mod-example/param-replace/code-mod-framework/lib/libnx_min/nx/lib\libnx_min.a(applet.o)
                0x0000000000016630                appletEndBlockingHomeButton
 *fill*         0x0000000000016668        0x8 
 .text.appletNotifyRunning
                0x0000000000016670      0x174 S:/UltimateEnvironment/code-mod-example/param-replace/code-mod-framework/lib/libnx_min/nx/lib\libnx_min.a(applet.o)
                0x0000000000016670                appletNotifyRunning
 *fill*         0x00000000000167e4        0xc 
 .text.appletIsGamePlayRecordingSupported
                0x00000000000167f0      0x168 S:/UltimateEnvironment/code-mod-example/param-replace/code-mod-framework/lib/libnx_min/nx/lib\libnx_min.a(applet.o)
                0x00000000000167f0                appletIsGamePlayRecordingSupported
 *fill*         0x0000000000016958        0x8 
 .text.appletSetGamePlayRecordingState
                0x0000000000016960      0x158 S:/UltimateEnvironment/code-mod-example/param-replace/code-mod-framework/lib/libnx_min/nx/lib\libnx_min.a(applet.o)
                0x0000000000016960                appletSetGamePlayRecordingState
 *fill*         0x0000000000016ab8        0x8 
 .text.appletInitializeGamePlayRecording
                0x0000000000016ac0      0x138 S:/UltimateEnvironment/code-mod-example/param-replace/code-mod-framework/lib/libnx_min/nx/lib\libnx_min.a(applet.o)
                0x0000000000016ac0                appletInitializeGamePlayRecording
 *fill*         0x0000000000016bf8        0x8 
 .text.appletQueryApplicationPlayStatistics
                0x0000000000016c00      0x1c0 S:/UltimateEnvironment/code-mod-example/param-replace/code-mod-framework/lib/libnx_min/nx/lib\libnx_min.a(applet.o)
                0x0000000000016c00                appletQueryApplicationPlayStatistics
 .text.appletBeginToWatchShortHomeButtonMessage
                0x0000000000016dc0       0x2c S:/UltimateEnvironment/code-mod-example/param-replace/code-mod-framework/lib/libnx_min/nx/lib\libnx_min.a(applet.o)
                0x0000000000016dc0                appletBeginToWatchShortHomeButtonMessage
 *fill*         0x0000000000016dec        0x4 
 .text.appletEndToWatchShortHomeButtonMessage
                0x0000000000016df0       0x2c S:/UltimateEnvironment/code-mod-example/param-replace/code-mod-framework/lib/libnx_min/nx/lib\libnx_min.a(applet.o)
                0x0000000000016df0                appletEndToWatchShortHomeButtonMessage
 *fill*         0x0000000000016e1c        0x4 
 .text.appletHomeButtonReaderLockAccessorGetEvent
                0x0000000000016e20       0xc8 S:/UltimateEnvironment/code-mod-example/param-replace/code-mod-framework/lib/libnx_min/nx/lib\libnx_min.a(applet.o)
                0x0000000000016e20                appletHomeButtonReaderLockAccessorGetEvent
 *fill*         0x0000000000016ee8        0x8 
 .text.appletIsVrModeEnabled
                0x0000000000016ef0       0x4c S:/UltimateEnvironment/code-mod-example/param-replace/code-mod-framework/lib/libnx_min/nx/lib\libnx_min.a(applet.o)
                0x0000000000016ef0                appletIsVrModeEnabled
 *fill*         0x0000000000016f3c        0x4 
 .text.appletSetVrModeEnabled
                0x0000000000016f40       0x78 S:/UltimateEnvironment/code-mod-example/param-replace/code-mod-framework/lib/libnx_min/nx/lib\libnx_min.a(applet.o)
                0x0000000000016f40                appletSetVrModeEnabled
 *fill*         0x0000000000016fb8        0x8 
 .text.appletSetCpuBoostMode
                0x0000000000016fc0       0x50 S:/UltimateEnvironment/code-mod-example/param-replace/code-mod-framework/lib/libnx_min/nx/lib\libnx_min.a(applet.o)
                0x0000000000016fc0                appletSetCpuBoostMode
 .text.appletExit
                0x0000000000017010      0x5dc S:/UltimateEnvironment/code-mod-example/param-replace/code-mod-framework/lib/libnx_min/nx/lib\libnx_min.a(applet.o)
                0x0000000000017010                appletExit
 *fill*         0x00000000000175ec        0x4 
 .text.appletInitialize
                0x00000000000175f0      0x4f0 S:/UltimateEnvironment/code-mod-example/param-replace/code-mod-framework/lib/libnx_min/nx/lib\libnx_min.a(applet.o)
                0x00000000000175f0                appletInitialize
 .text._appletExitProcess
                0x0000000000017ae0       0x10 S:/UltimateEnvironment/code-mod-example/param-replace/code-mod-framework/lib/libnx_min/nx/lib\libnx_min.a(applet.o)
 .text.appletGetCurrentPerformanceConfiguration
                0x0000000000017af0       0x40 S:/UltimateEnvironment/code-mod-example/param-replace/code-mod-framework/lib/libnx_min/nx/lib\libnx_min.a(applet.o)
                0x0000000000017af0                appletGetCurrentPerformanceConfiguration
 .text.appletLockExit
                0x0000000000017b30       0x10 S:/UltimateEnvironment/code-mod-example/param-replace/code-mod-framework/lib/libnx_min/nx/lib\libnx_min.a(applet.o)
                0x0000000000017b30                appletLockExit
 .text.appletUnlockExit
                0x0000000000017b40       0x10 S:/UltimateEnvironment/code-mod-example/param-replace/code-mod-framework/lib/libnx_min/nx/lib\libnx_min.a(applet.o)
                0x0000000000017b40                appletUnlockExit
 .text.appletSetScreenShotPermission
                0x0000000000017b50      0x16c S:/UltimateEnvironment/code-mod-example/param-replace/code-mod-framework/lib/libnx_min/nx/lib\libnx_min.a(applet.o)
                0x0000000000017b50                appletSetScreenShotPermission
 *fill*         0x0000000000017cbc        0x4 
 .text.appletSetScreenShotImageOrientation
                0x0000000000017cc0      0x1c4 S:/UltimateEnvironment/code-mod-example/param-replace/code-mod-framework/lib/libnx_min/nx/lib\libnx_min.a(applet.o)
                0x0000000000017cc0                appletSetScreenShotImageOrientation
 *fill*         0x0000000000017e84        0xc 
 .text.appletCreateManagedDisplayLayer
                0x0000000000017e90       0x14 S:/UltimateEnvironment/code-mod-example/param-replace/code-mod-framework/lib/libnx_min/nx/lib\libnx_min.a(applet.o)
                0x0000000000017e90                appletCreateManagedDisplayLayer
 *fill*         0x0000000000017ea4        0xc 
 .text.appletGetCurrentIlluminance
                0x0000000000017eb0      0x168 S:/UltimateEnvironment/code-mod-example/param-replace/code-mod-framework/lib/libnx_min/nx/lib\libnx_min.a(applet.o)
                0x0000000000017eb0                appletGetCurrentIlluminance
 *fill*         0x0000000000018018        0x8 
 .text.appletIsIlluminanceAvailable
                0x0000000000018020       0x4c S:/UltimateEnvironment/code-mod-example/param-replace/code-mod-framework/lib/libnx_min/nx/lib\libnx_min.a(applet.o)
                0x0000000000018020                appletIsIlluminanceAvailable
 *fill*         0x000000000001806c        0x4 
 .text.appletGetCurrentIlluminanceEx
                0x0000000000018070      0x19c S:/UltimateEnvironment/code-mod-example/param-replace/code-mod-framework/lib/libnx_min/nx/lib\libnx_min.a(applet.o)
                0x0000000000018070                appletGetCurrentIlluminanceEx
 *fill*         0x000000000001820c        0x4 
 .text.appletCreateLibraryApplet
                0x0000000000018210        0x8 S:/UltimateEnvironment/code-mod-example/param-replace/code-mod-framework/lib/libnx_min/nx/lib\libnx_min.a(applet.o)
                0x0000000000018210                appletCreateLibraryApplet
 *fill*         0x0000000000018218        0x8 
 .text.appletCreateLibraryAppletSelf
                0x0000000000018220        0x8 S:/UltimateEnvironment/code-mod-example/param-replace/code-mod-framework/lib/libnx_min/nx/lib\libnx_min.a(applet.o)
                0x0000000000018220                appletCreateLibraryAppletSelf
 *fill*         0x0000000000018228        0x8 
 .text.appletHolderClose
                0x0000000000018230       0x94 S:/UltimateEnvironment/code-mod-example/param-replace/code-mod-framework/lib/libnx_min/nx/lib\libnx_min.a(applet.o)
                0x0000000000018230                appletHolderClose
 *fill*         0x00000000000182c4        0xc 
 .text.appletHolderActive
                0x00000000000182d0       0x10 S:/UltimateEnvironment/code-mod-example/param-replace/code-mod-framework/lib/libnx_min/nx/lib\libnx_min.a(applet.o)
                0x00000000000182d0                appletHolderActive
 .text.appletHolderGetIndirectLayerConsumerHandle
                0x00000000000182e0       0x74 S:/UltimateEnvironment/code-mod-example/param-replace/code-mod-framework/lib/libnx_min/nx/lib\libnx_min.a(applet.o)
                0x00000000000182e0                appletHolderGetIndirectLayerConsumerHandle
 *fill*         0x0000000000018354        0xc 
 .text.appletHolderStart
                0x0000000000018360       0x50 S:/UltimateEnvironment/code-mod-example/param-replace/code-mod-framework/lib/libnx_min/nx/lib\libnx_min.a(applet.o)
                0x0000000000018360                appletHolderStart
 .text.appletHolderJoin
                0x00000000000183b0       0x80 S:/UltimateEnvironment/code-mod-example/param-replace/code-mod-framework/lib/libnx_min/nx/lib\libnx_min.a(applet.o)
                0x00000000000183b0                appletHolderJoin
 .text.appletHolderCheckFinished
                0x0000000000018430       0x24 S:/UltimateEnvironment/code-mod-example/param-replace/code-mod-framework/lib/libnx_min/nx/lib\libnx_min.a(applet.o)
                0x0000000000018430                appletHolderCheckFinished
 *fill*         0x0000000000018454        0xc 
 .text.appletHolderRequestExit
                0x0000000000018460       0x50 S:/UltimateEnvironment/code-mod-example/param-replace/code-mod-framework/lib/libnx_min/nx/lib\libnx_min.a(applet.o)
                0x0000000000018460                appletHolderRequestExit
 .text.appletHolderGetExitReason
                0x00000000000184b0        0x8 S:/UltimateEnvironment/code-mod-example/param-replace/code-mod-framework/lib/libnx_min/nx/lib\libnx_min.a(applet.o)
                0x00000000000184b0                appletHolderGetExitReason
 *fill*         0x00000000000184b8        0x8 
 .text.appletHolderWaitInteractiveOut
                0x00000000000184c0       0x88 S:/UltimateEnvironment/code-mod-example/param-replace/code-mod-framework/lib/libnx_min/nx/lib\libnx_min.a(applet.o)
                0x00000000000184c0                appletHolderWaitInteractiveOut
 *fill*         0x0000000000018548        0x8 
 .text.appletHolderPopOutData
                0x0000000000018550       0x18 S:/UltimateEnvironment/code-mod-example/param-replace/code-mod-framework/lib/libnx_min/nx/lib\libnx_min.a(applet.o)
                0x0000000000018550                appletHolderPopOutData
 *fill*         0x0000000000018568        0x8 
 .text.appletHolderPopInteractiveOutData
                0x0000000000018570       0x18 S:/UltimateEnvironment/code-mod-example/param-replace/code-mod-framework/lib/libnx_min/nx/lib\libnx_min.a(applet.o)
                0x0000000000018570                appletHolderPopInteractiveOutData
 *fill*         0x0000000000018588        0x8 
 .text.appletCreateStorage
                0x0000000000018590       0x14 S:/UltimateEnvironment/code-mod-example/param-replace/code-mod-framework/lib/libnx_min/nx/lib\libnx_min.a(applet.o)
                0x0000000000018590                appletCreateStorage
 *fill*         0x00000000000185a4        0xc 
 .text.appletCreateTransferMemoryStorage
                0x00000000000185b0       0xa8 S:/UltimateEnvironment/code-mod-example/param-replace/code-mod-framework/lib/libnx_min/nx/lib\libnx_min.a(applet.o)
                0x00000000000185b0                appletCreateTransferMemoryStorage
 *fill*         0x0000000000018658        0x8 
 .text.appletCreateHandleStorage
                0x0000000000018660       0x64 S:/UltimateEnvironment/code-mod-example/param-replace/code-mod-framework/lib/libnx_min/nx/lib\libnx_min.a(applet.o)
                0x0000000000018660                appletCreateHandleStorage
 *fill*         0x00000000000186c4        0xc 
 .text.appletCreateHandleStorageTmem
                0x00000000000186d0       0xa0 S:/UltimateEnvironment/code-mod-example/param-replace/code-mod-framework/lib/libnx_min/nx/lib\libnx_min.a(applet.o)
                0x00000000000186d0                appletCreateHandleStorageTmem
 .text.appletStorageClose
                0x0000000000018770       0x6c S:/UltimateEnvironment/code-mod-example/param-replace/code-mod-framework/lib/libnx_min/nx/lib\libnx_min.a(applet.o)
                0x0000000000018770                appletStorageClose
 *fill*         0x00000000000187dc        0x4 
 .text.appletRequestLaunchApplication
                0x00000000000187e0      0x188 S:/UltimateEnvironment/code-mod-example/param-replace/code-mod-framework/lib/libnx_min/nx/lib\libnx_min.a(applet.o)
                0x00000000000187e0                appletRequestLaunchApplication
 *fill*         0x0000000000018968        0x8 
 .text.appletRequestLaunchApplicationForQuest
                0x0000000000018970      0x168 S:/UltimateEnvironment/code-mod-example/param-replace/code-mod-framework/lib/libnx_min/nx/lib\libnx_min.a(applet.o)
                0x0000000000018970                appletRequestLaunchApplicationForQuest
 *fill*         0x0000000000018ad8        0x8 
 .text.appletHolderPushInteractiveInData
                0x0000000000018ae0       0x40 S:/UltimateEnvironment/code-mod-example/param-replace/code-mod-framework/lib/libnx_min/nx/lib\libnx_min.a(applet.o)
                0x0000000000018ae0                appletHolderPushInteractiveInData
 .text.appletPushToGeneralChannel
                0x0000000000018b20       0x4c S:/UltimateEnvironment/code-mod-example/param-replace/code-mod-framework/lib/libnx_min/nx/lib\libnx_min.a(applet.o)
                0x0000000000018b20                appletPushToGeneralChannel
 *fill*         0x0000000000018b6c        0x4 
 .text.appletHolderPushInData
                0x0000000000018b70       0x40 S:/UltimateEnvironment/code-mod-example/param-replace/code-mod-framework/lib/libnx_min/nx/lib\libnx_min.a(applet.o)
                0x0000000000018b70                appletHolderPushInData
 .text.appletHolderPushExtraStorage
                0x0000000000018bb0       0x40 S:/UltimateEnvironment/code-mod-example/param-replace/code-mod-framework/lib/libnx_min/nx/lib\libnx_min.a(applet.o)
                0x0000000000018bb0                appletHolderPushExtraStorage
 .text.appletStorageCloseTmem
                0x0000000000018bf0        0x8 S:/UltimateEnvironment/code-mod-example/param-replace/code-mod-framework/lib/libnx_min/nx/lib\libnx_min.a(applet.o)
                0x0000000000018bf0                appletStorageCloseTmem
 *fill*         0x0000000000018bf8        0x8 
 .text.appletStorageGetSize
                0x0000000000018c00       0xc4 S:/UltimateEnvironment/code-mod-example/param-replace/code-mod-framework/lib/libnx_min/nx/lib\libnx_min.a(applet.o)
                0x0000000000018c00                appletStorageGetSize
 *fill*         0x0000000000018cc4        0xc 
 .text.appletStorageWrite
                0x0000000000018cd0        0x8 S:/UltimateEnvironment/code-mod-example/param-replace/code-mod-framework/lib/libnx_min/nx/lib\libnx_min.a(applet.o)
                0x0000000000018cd0                appletStorageWrite
 *fill*         0x0000000000018cd8        0x8 
 .text.appletStorageRead
                0x0000000000018ce0        0x8 S:/UltimateEnvironment/code-mod-example/param-replace/code-mod-framework/lib/libnx_min/nx/lib\libnx_min.a(applet.o)
                0x0000000000018ce0                appletStorageRead
 *fill*         0x0000000000018ce8        0x8 
 .text.appletStorageGetHandle
                0x0000000000018cf0       0xfc S:/UltimateEnvironment/code-mod-example/param-replace/code-mod-framework/lib/libnx_min/nx/lib\libnx_min.a(applet.o)
                0x0000000000018cf0                appletStorageGetHandle
 *fill*         0x0000000000018dec        0x4 
 .text.appletStorageMap
                0x0000000000018df0       0xcc S:/UltimateEnvironment/code-mod-example/param-replace/code-mod-framework/lib/libnx_min/nx/lib\libnx_min.a(applet.o)
                0x0000000000018df0                appletStorageMap
 *fill*         0x0000000000018ebc        0x4 
 .text.appletGetOperationMode
                0x0000000000018ec0        0xc S:/UltimateEnvironment/code-mod-example/param-replace/code-mod-framework/lib/libnx_min/nx/lib\libnx_min.a(applet.o)
                0x0000000000018ec0                appletGetOperationMode
 *fill*         0x0000000000018ecc        0x4 
 .text.appletGetPerformanceMode
                0x0000000000018ed0        0xc S:/UltimateEnvironment/code-mod-example/param-replace/code-mod-framework/lib/libnx_min/nx/lib\libnx_min.a(applet.o)
                0x0000000000018ed0                appletGetPerformanceMode
 *fill*         0x0000000000018edc        0x4 
 .text.appletGetFocusState
                0x0000000000018ee0        0xc S:/UltimateEnvironment/code-mod-example/param-replace/code-mod-framework/lib/libnx_min/nx/lib\libnx_min.a(applet.o)
                0x0000000000018ee0                appletGetFocusState
 *fill*         0x0000000000018eec        0x4 
 .text.appletGetMessage
                0x0000000000018ef0       0x5c S:/UltimateEnvironment/code-mod-example/param-replace/code-mod-framework/lib/libnx_min/nx/lib\libnx_min.a(applet.o)
                0x0000000000018ef0                appletGetMessage
 *fill*         0x0000000000018f4c        0x4 
 .text.appletProcessMessage
                0x0000000000018f50      0x118 S:/UltimateEnvironment/code-mod-example/param-replace/code-mod-framework/lib/libnx_min/nx/lib\libnx_min.a(applet.o)
                0x0000000000018f50                appletProcessMessage
 *fill*         0x0000000000019068        0x8 
 .text.appletMainLoop
                0x0000000000019070       0x34 S:/UltimateEnvironment/code-mod-example/param-replace/code-mod-framework/lib/libnx_min/nx/lib\libnx_min.a(applet.o)
                0x0000000000019070                appletMainLoop
 *fill*         0x00000000000190a4        0xc 
 .text.__syscall_exit
                0x00000000000190b0       0x1c S:/UltimateEnvironment/code-mod-example/param-replace/code-mod-framework/lib/libnx_min/nx/lib\libnx_min.a(newlib.o)
                0x00000000000190b0                __syscall_exit
 *fill*         0x00000000000190cc        0x4 
 .text.__syscall_getreent
                0x00000000000190d0       0x10 S:/UltimateEnvironment/code-mod-example/param-replace/code-mod-framework/lib/libnx_min/nx/lib\libnx_min.a(newlib.o)
                0x00000000000190d0                __syscall_getreent
 .text.__syscall_lock_acquire
                0x00000000000190e0        0x4 S:/UltimateEnvironment/code-mod-example/param-replace/code-mod-framework/lib/libnx_min/nx/lib\libnx_min.a(newlib.o)
                0x00000000000190e0                __syscall_lock_acquire
 *fill*         0x00000000000190e4        0xc 
 .text.__syscall_lock_try_acquire
                0x00000000000190f0       0x1c S:/UltimateEnvironment/code-mod-example/param-replace/code-mod-framework/lib/libnx_min/nx/lib\libnx_min.a(newlib.o)
                0x00000000000190f0                __syscall_lock_try_acquire
 *fill*         0x000000000001910c        0x4 
 .text.__syscall_lock_release
                0x0000000000019110        0x4 S:/UltimateEnvironment/code-mod-example/param-replace/code-mod-framework/lib/libnx_min/nx/lib\libnx_min.a(newlib.o)
                0x0000000000019110                __syscall_lock_release
 *fill*         0x0000000000019114        0xc 
 .text.__syscall_lock_acquire_recursive
                0x0000000000019120        0x4 S:/UltimateEnvironment/code-mod-example/param-replace/code-mod-framework/lib/libnx_min/nx/lib\libnx_min.a(newlib.o)
                0x0000000000019120                __syscall_lock_acquire_recursive
 *fill*         0x0000000000019124        0xc 
 .text.__syscall_lock_try_acquire_recursive
                0x0000000000019130       0x1c S:/UltimateEnvironment/code-mod-example/param-replace/code-mod-framework/lib/libnx_min/nx/lib\libnx_min.a(newlib.o)
                0x0000000000019130                __syscall_lock_try_acquire_recursive
 *fill*         0x000000000001914c        0x4 
 .text.__syscall_lock_release_recursive
                0x0000000000019150        0x4 S:/UltimateEnvironment/code-mod-example/param-replace/code-mod-framework/lib/libnx_min/nx/lib\libnx_min.a(newlib.o)
                0x0000000000019150                __syscall_lock_release_recursive
 *fill*         0x0000000000019154        0xc 
 .text.__syscall_cond_signal
                0x0000000000019160       0x40 S:/UltimateEnvironment/code-mod-example/param-replace/code-mod-framework/lib/libnx_min/nx/lib\libnx_min.a(newlib.o)
                0x0000000000019160                __syscall_cond_signal
 .text.__syscall_cond_broadcast
                0x00000000000191a0       0x40 S:/UltimateEnvironment/code-mod-example/param-replace/code-mod-framework/lib/libnx_min/nx/lib\libnx_min.a(newlib.o)
                0x00000000000191a0                __syscall_cond_broadcast
 .text.__syscall_cond_wait
                0x00000000000191e0       0x3c S:/UltimateEnvironment/code-mod-example/param-replace/code-mod-framework/lib/libnx_min/nx/lib\libnx_min.a(newlib.o)
                0x00000000000191e0                __syscall_cond_wait
 *fill*         0x000000000001921c        0x4 
 .text.__syscall_cond_wait_recursive
                0x0000000000019220       0x64 S:/UltimateEnvironment/code-mod-example/param-replace/code-mod-framework/lib/libnx_min/nx/lib\libnx_min.a(newlib.o)
                0x0000000000019220                __syscall_cond_wait_recursive
 *fill*         0x0000000000019284        0xc 
 .text.__syscall_thread_self
                0x0000000000019290       0x14 S:/UltimateEnvironment/code-mod-example/param-replace/code-mod-framework/lib/libnx_min/nx/lib\libnx_min.a(newlib.o)
                0x0000000000019290                __syscall_thread_self
 *fill*         0x00000000000192a4        0xc 
 .text.__syscall_thread_exit
                0x00000000000192b0       0x2c S:/UltimateEnvironment/code-mod-example/param-replace/code-mod-framework/lib/libnx_min/nx/lib\libnx_min.a(newlib.o)
                0x00000000000192b0                __syscall_thread_exit
 *fill*         0x00000000000192dc        0x4 
 .text.__thread_entry
                0x00000000000192e0       0x58 S:/UltimateEnvironment/code-mod-example/param-replace/code-mod-framework/lib/libnx_min/nx/lib\libnx_min.a(newlib.o)
 *fill*         0x0000000000019338        0x8 
 .text.__syscall_thread_create
                0x0000000000019340      0x15c S:/UltimateEnvironment/code-mod-example/param-replace/code-mod-framework/lib/libnx_min/nx/lib\libnx_min.a(newlib.o)
                0x0000000000019340                __syscall_thread_create
 *fill*         0x000000000001949c        0x4 
 .text.__syscall_thread_join
                0x00000000000194a0       0x58 S:/UltimateEnvironment/code-mod-example/param-replace/code-mod-framework/lib/libnx_min/nx/lib\libnx_min.a(newlib.o)
                0x00000000000194a0                __syscall_thread_join
 *fill*         0x00000000000194f8        0x8 
 .text.__syscall_tls_create
                0x0000000000019500       0x44 S:/UltimateEnvironment/code-mod-example/param-replace/code-mod-framework/lib/libnx_min/nx/lib\libnx_min.a(newlib.o)
                0x0000000000019500                __syscall_tls_create
 *fill*         0x0000000000019544        0xc 
 .text.__syscall_tls_set
                0x0000000000019550       0x18 S:/UltimateEnvironment/code-mod-example/param-replace/code-mod-framework/lib/libnx_min/nx/lib\libnx_min.a(newlib.o)
                0x0000000000019550                __syscall_tls_set
 *fill*         0x0000000000019568        0x8 
 .text.__syscall_tls_get
                0x0000000000019570        0x4 S:/UltimateEnvironment/code-mod-example/param-replace/code-mod-framework/lib/libnx_min/nx/lib\libnx_min.a(newlib.o)
                0x0000000000019570                __syscall_tls_get
 *fill*         0x0000000000019574        0xc 
 .text.__syscall_tls_delete
                0x0000000000019580       0x18 S:/UltimateEnvironment/code-mod-example/param-replace/code-mod-framework/lib/libnx_min/nx/lib\libnx_min.a(newlib.o)
                0x0000000000019580                __syscall_tls_delete
 *fill*         0x0000000000019598        0x8 
 .text.sched_yield
                0x00000000000195a0       0x1c S:/UltimateEnvironment/code-mod-example/param-replace/code-mod-framework/lib/libnx_min/nx/lib\libnx_min.a(newlib.o)
                0x00000000000195a0                sched_yield
 *fill*         0x00000000000195bc        0x4 
 .text.sched_getcpu
                0x00000000000195c0        0x4 S:/UltimateEnvironment/code-mod-example/param-replace/code-mod-framework/lib/libnx_min/nx/lib\libnx_min.a(newlib.o)
                0x00000000000195c0                sched_getcpu
 *fill*         0x00000000000195c4        0xc 
 .text.__libnx_init_time
                0x00000000000195d0      0x27c S:/UltimateEnvironment/code-mod-example/param-replace/code-mod-framework/lib/libnx_min/nx/lib\libnx_min.a(newlib.o)
                0x00000000000195d0                __libnx_init_time
 *fill*         0x000000000001984c        0x4 
 .text.__syscall_clock_getres
                0x0000000000019850       0x58 S:/UltimateEnvironment/code-mod-example/param-replace/code-mod-framework/lib/libnx_min/nx/lib\libnx_min.a(newlib.o)
                0x0000000000019850                __syscall_clock_getres
 *fill*         0x00000000000198a8        0x8 
 .text.__syscall_clock_gettime
                0x00000000000198b0       0xf8 S:/UltimateEnvironment/code-mod-example/param-replace/code-mod-framework/lib/libnx_min/nx/lib\libnx_min.a(newlib.o)
                0x00000000000198b0                __syscall_clock_gettime
 *fill*         0x00000000000199a8        0x8 
 .text.__syscall_gettod_r
                0x00000000000199b0       0x8c S:/UltimateEnvironment/code-mod-example/param-replace/code-mod-framework/lib/libnx_min/nx/lib\libnx_min.a(newlib.o)
                0x00000000000199b0                __syscall_gettod_r
 *fill*         0x0000000000019a3c        0x4 
 .text.__syscall_nanosleep
                0x0000000000019a40       0x5c S:/UltimateEnvironment/code-mod-example/param-replace/code-mod-framework/lib/libnx_min/nx/lib\libnx_min.a(newlib.o)
                0x0000000000019a40                __syscall_nanosleep
 *fill*         0x0000000000019a9c        0x4 
 .text.newlibSetup
                0x0000000000019aa0       0x74 S:/UltimateEnvironment/code-mod-example/param-replace/code-mod-framework/lib/libnx_min/nx/lib\libnx_min.a(newlib.o)
                0x0000000000019aa0                newlibSetup
 *fill*         0x0000000000019b14        0xc 
 .text.threadCreate
                0x0000000000019b20      0x1fc S:/UltimateEnvironment/code-mod-example/param-replace/code-mod-framework/lib/libnx_min/nx/lib\libnx_min.a(thread.o)
                0x0000000000019b20                threadCreate
 *fill*         0x0000000000019d1c        0x4 
 .text.threadExit
                0x0000000000019d20       0xb0 S:/UltimateEnvironment/code-mod-example/param-replace/code-mod-framework/lib/libnx_min/nx/lib\libnx_min.a(thread.o)
                0x0000000000019d20                threadExit
 .text._EntryWrap
                0x0000000000019dd0       0x90 S:/UltimateEnvironment/code-mod-example/param-replace/code-mod-framework/lib/libnx_min/nx/lib\libnx_min.a(thread.o)
 .text.threadStart
                0x0000000000019e60        0x8 S:/UltimateEnvironment/code-mod-example/param-replace/code-mod-framework/lib/libnx_min/nx/lib\libnx_min.a(thread.o)
                0x0000000000019e60                threadStart
 *fill*         0x0000000000019e68        0x8 
 .text.threadWaitForExit
                0x0000000000019e70       0x2c S:/UltimateEnvironment/code-mod-example/param-replace/code-mod-framework/lib/libnx_min/nx/lib\libnx_min.a(thread.o)
                0x0000000000019e70                threadWaitForExit
 *fill*         0x0000000000019e9c        0x4 
 .text.threadClose
                0x0000000000019ea0       0x54 S:/UltimateEnvironment/code-mod-example/param-replace/code-mod-framework/lib/libnx_min/nx/lib\libnx_min.a(thread.o)
                0x0000000000019ea0                threadClose
 *fill*         0x0000000000019ef4        0xc 
 .text.threadPause
                0x0000000000019f00        0xc S:/UltimateEnvironment/code-mod-example/param-replace/code-mod-framework/lib/libnx_min/nx/lib\libnx_min.a(thread.o)
                0x0000000000019f00                threadPause
 *fill*         0x0000000000019f0c        0x4 
 .text.threadResume
                0x0000000000019f10        0xc S:/UltimateEnvironment/code-mod-example/param-replace/code-mod-framework/lib/libnx_min/nx/lib\libnx_min.a(thread.o)
                0x0000000000019f10                threadResume
 *fill*         0x0000000000019f1c        0x4 
 .text.threadDumpContext
                0x0000000000019f20        0x8 S:/UltimateEnvironment/code-mod-example/param-replace/code-mod-framework/lib/libnx_min/nx/lib\libnx_min.a(thread.o)
                0x0000000000019f20                threadDumpContext
 *fill*         0x0000000000019f28        0x8 
 .text.threadGetCurHandle
                0x0000000000019f30        0xc S:/UltimateEnvironment/code-mod-example/param-replace/code-mod-framework/lib/libnx_min/nx/lib\libnx_min.a(thread.o)
                0x0000000000019f30                threadGetCurHandle
 *fill*         0x0000000000019f3c        0x4 
 .text.threadTlsGet
                0x0000000000019f40       0x10 S:/UltimateEnvironment/code-mod-example/param-replace/code-mod-framework/lib/libnx_min/nx/lib\libnx_min.a(thread.o)
                0x0000000000019f40                threadTlsGet
 .text.threadTlsSet
                0x0000000000019f50       0x10 S:/UltimateEnvironment/code-mod-example/param-replace/code-mod-framework/lib/libnx_min/nx/lib\libnx_min.a(thread.o)
                0x0000000000019f50                threadTlsSet
 .text.threadTlsAlloc
                0x0000000000019f60       0xd8 S:/UltimateEnvironment/code-mod-example/param-replace/code-mod-framework/lib/libnx_min/nx/lib\libnx_min.a(thread.o)
                0x0000000000019f60                threadTlsAlloc
 *fill*         0x000000000001a038        0x8 
 .text.threadTlsFree
                0x000000000001a040       0x48 S:/UltimateEnvironment/code-mod-example/param-replace/code-mod-framework/lib/libnx_min/nx/lib\libnx_min.a(thread.o)
                0x000000000001a040                threadTlsFree
 *fill*         0x000000000001a088        0x8 
 .text.condvarWaitTimeout
                0x000000000001a090       0x60 S:/UltimateEnvironment/code-mod-example/param-replace/code-mod-framework/lib/libnx_min/nx/lib\libnx_min.a(condvar.o)
                0x000000000001a090                condvarWaitTimeout
 .text.eventCreate
                0x000000000001a0f0       0x38 S:/UltimateEnvironment/code-mod-example/param-replace/code-mod-framework/lib/libnx_min/nx/lib\libnx_min.a(event.o)
                0x000000000001a0f0                eventCreate
 *fill*         0x000000000001a128        0x8 
 .text.eventLoadRemote
                0x000000000001a130        0xc S:/UltimateEnvironment/code-mod-example/param-replace/code-mod-framework/lib/libnx_min/nx/lib\libnx_min.a(event.o)
                0x000000000001a130                eventLoadRemote
 *fill*         0x000000000001a13c        0x4 
 .text.eventWait
                0x000000000001a140       0x38 S:/UltimateEnvironment/code-mod-example/param-replace/code-mod-framework/lib/libnx_min/nx/lib\libnx_min.a(event.o)
                0x000000000001a140                eventWait
 *fill*         0x000000000001a178        0x8 
 .text.eventFire
                0x000000000001a180       0x14 S:/UltimateEnvironment/code-mod-example/param-replace/code-mod-framework/lib/libnx_min/nx/lib\libnx_min.a(event.o)
                0x000000000001a180                eventFire
 *fill*         0x000000000001a194        0xc 
 .text.eventClear
                0x000000000001a1a0       0x24 S:/UltimateEnvironment/code-mod-example/param-replace/code-mod-framework/lib/libnx_min/nx/lib\libnx_min.a(event.o)
                0x000000000001a1a0                eventClear
 *fill*         0x000000000001a1c4        0xc 
 .text.eventClose
                0x000000000001a1d0       0x50 S:/UltimateEnvironment/code-mod-example/param-replace/code-mod-framework/lib/libnx_min/nx/lib\libnx_min.a(event.o)
                0x000000000001a1d0                eventClose
 .text.tmemCreate
                0x000000000001a220       0xa8 S:/UltimateEnvironment/code-mod-example/param-replace/code-mod-framework/lib/libnx_min/nx/lib\libnx_min.a(tmem.o)
                0x000000000001a220                tmemCreate
 *fill*         0x000000000001a2c8        0x8 
 .text.tmemCreateFromMemory
                0x000000000001a2d0       0x2c S:/UltimateEnvironment/code-mod-example/param-replace/code-mod-framework/lib/libnx_min/nx/lib\libnx_min.a(tmem.o)
                0x000000000001a2d0                tmemCreateFromMemory
 *fill*         0x000000000001a2fc        0x4 
 .text.tmemLoadRemote
                0x000000000001a300       0x14 S:/UltimateEnvironment/code-mod-example/param-replace/code-mod-framework/lib/libnx_min/nx/lib\libnx_min.a(tmem.o)
                0x000000000001a300                tmemLoadRemote
 *fill*         0x000000000001a314        0xc 
 .text.tmemMap  0x000000000001a320       0x84 S:/UltimateEnvironment/code-mod-example/param-replace/code-mod-framework/lib/libnx_min/nx/lib\libnx_min.a(tmem.o)
                0x000000000001a320                tmemMap
 *fill*         0x000000000001a3a4        0xc 
 .text.tmemUnmap
                0x000000000001a3b0       0x58 S:/UltimateEnvironment/code-mod-example/param-replace/code-mod-framework/lib/libnx_min/nx/lib\libnx_min.a(tmem.o)
                0x000000000001a3b0                tmemUnmap
 *fill*         0x000000000001a408        0x8 
 .text.tmemClose
                0x000000000001a410       0x68 S:/UltimateEnvironment/code-mod-example/param-replace/code-mod-framework/lib/libnx_min/nx/lib\libnx_min.a(tmem.o)
                0x000000000001a410                tmemClose
 *fill*         0x000000000001a478        0x8 
 .text.rwlockInit
                0x000000000001a480        0x8 S:/UltimateEnvironment/code-mod-example/param-replace/code-mod-framework/lib/libnx_min/nx/lib\libnx_min.a(rwlock.o)
                0x000000000001a480                rwlockInit
 *fill*         0x000000000001a488        0x8 
 .text.rwlockReadLock
                0x000000000001a490       0x58 S:/UltimateEnvironment/code-mod-example/param-replace/code-mod-framework/lib/libnx_min/nx/lib\libnx_min.a(rwlock.o)
                0x000000000001a490                rwlockReadLock
 *fill*         0x000000000001a4e8        0x8 
 .text.rwlockReadUnlock
                0x000000000001a4f0       0x5c S:/UltimateEnvironment/code-mod-example/param-replace/code-mod-framework/lib/libnx_min/nx/lib\libnx_min.a(rwlock.o)
                0x000000000001a4f0                rwlockReadUnlock
 *fill*         0x000000000001a54c        0x4 
 .text.rwlockWriteLock
                0x000000000001a550       0x84 S:/UltimateEnvironment/code-mod-example/param-replace/code-mod-framework/lib/libnx_min/nx/lib\libnx_min.a(rwlock.o)
                0x000000000001a550                rwlockWriteLock
 *fill*         0x000000000001a5d4        0xc 
 .text.rwlockWriteUnlock
                0x000000000001a5e0       0x3c S:/UltimateEnvironment/code-mod-example/param-replace/code-mod-framework/lib/libnx_min/nx/lib\libnx_min.a(rwlock.o)
                0x000000000001a5e0                rwlockWriteUnlock
 *fill*         0x000000000001a61c        0x4 
 .text._waitLoop
                0x000000000001a620      0x104 S:/UltimateEnvironment/code-mod-example/param-replace/code-mod-framework/lib/libnx_min/nx/lib\libnx_min.a(wait.o)
 *fill*         0x000000000001a724        0xc 
 .text._waitObjectsImpl
                0x000000000001a730      0x338 S:/UltimateEnvironment/code-mod-example/param-replace/code-mod-framework/lib/libnx_min/nx/lib\libnx_min.a(wait.o)
 *fill*         0x000000000001aa68        0x8 
 .text.waitObjects
                0x000000000001aa70        0xc S:/UltimateEnvironment/code-mod-example/param-replace/code-mod-framework/lib/libnx_min/nx/lib\libnx_min.a(wait.o)
                0x000000000001aa70                waitObjects
 *fill*         0x000000000001aa7c        0x4 
 .text.waitHandles
                0x000000000001aa80        0xc S:/UltimateEnvironment/code-mod-example/param-replace/code-mod-framework/lib/libnx_min/nx/lib\libnx_min.a(wait.o)
                0x000000000001aa80                waitHandles
 *fill*         0x000000000001aa8c        0x4 
 .text.shmemCreate
                0x000000000001aa90       0x14 S:/UltimateEnvironment/code-mod-example/param-replace/code-mod-framework/lib/libnx_min/nx/lib\libnx_min.a(shmem.o)
                0x000000000001aa90                shmemCreate
 *fill*         0x000000000001aaa4        0xc 
 .text.shmemLoadRemote
                0x000000000001aab0       0x14 S:/UltimateEnvironment/code-mod-example/param-replace/code-mod-framework/lib/libnx_min/nx/lib\libnx_min.a(shmem.o)
                0x000000000001aab0                shmemLoadRemote
 *fill*         0x000000000001aac4        0xc 
 .text.shmemMap
                0x000000000001aad0       0x84 S:/UltimateEnvironment/code-mod-example/param-replace/code-mod-framework/lib/libnx_min/nx/lib\libnx_min.a(shmem.o)
                0x000000000001aad0                shmemMap
 *fill*         0x000000000001ab54        0xc 
 .text.shmemUnmap
                0x000000000001ab60       0x58 S:/UltimateEnvironment/code-mod-example/param-replace/code-mod-framework/lib/libnx_min/nx/lib\libnx_min.a(shmem.o)
                0x000000000001ab60                shmemUnmap
 *fill*         0x000000000001abb8        0x8 
 .text.shmemClose
                0x000000000001abc0       0x44 S:/UltimateEnvironment/code-mod-example/param-replace/code-mod-framework/lib/libnx_min/nx/lib\libnx_min.a(shmem.o)
                0x000000000001abc0                shmemClose
 *fill*         0x000000000001ac04        0xc 
 .text.detectKernelVersion
                0x000000000001ac10      0x17c S:/UltimateEnvironment/code-mod-example/param-replace/code-mod-framework/lib/libnx_min/nx/lib\libnx_min.a(detect.o)
                0x000000000001ac10                detectKernelVersion
 *fill*         0x000000000001ad8c        0x4 
 .text.detectDebugger
                0x000000000001ad90       0x30 S:/UltimateEnvironment/code-mod-example/param-replace/code-mod-framework/lib/libnx_min/nx/lib\libnx_min.a(detect.o)
                0x000000000001ad90                detectDebugger
 .text.detectJitKernelPatch
                0x000000000001adc0       0xdc S:/UltimateEnvironment/code-mod-example/param-replace/code-mod-framework/lib/libnx_min/nx/lib\libnx_min.a(detect.o)
                0x000000000001adc0                detectJitKernelPatch
 *fill*         0x000000000001ae9c        0x4 
 .text.detectIgnoreJitKernelPatch
                0x000000000001aea0       0x44 S:/UltimateEnvironment/code-mod-example/param-replace/code-mod-framework/lib/libnx_min/nx/lib\libnx_min.a(detect.o)
                0x000000000001aea0                detectIgnoreJitKernelPatch
 *fill*         0x000000000001aee4        0xc 
 .text.ipcCloseObjectById
                0x000000000001aef0       0x34 S:/UltimateEnvironment/code-mod-example/param-replace/code-mod-framework/lib/libnx_min/nx/lib\libnx_min.a(apm.o)
 *fill*         0x000000000001af24        0xc 
 .text._apmGetSession.constprop.4
                0x000000000001af30      0x124 S:/UltimateEnvironment/code-mod-example/param-replace/code-mod-framework/lib/libnx_min/nx/lib\libnx_min.a(apm.o)
 *fill*         0x000000000001b054        0xc 
 .text.apmExit  0x000000000001b060       0xf0 S:/UltimateEnvironment/code-mod-example/param-replace/code-mod-framework/lib/libnx_min/nx/lib\libnx_min.a(apm.o)
                0x000000000001b060                apmExit
 .text.apmInitialize
                0x000000000001b150       0x70 S:/UltimateEnvironment/code-mod-example/param-replace/code-mod-framework/lib/libnx_min/nx/lib\libnx_min.a(apm.o)
                0x000000000001b150                apmInitialize
 .text.apmSetPerformanceConfiguration
                0x000000000001b1c0       0xcc S:/UltimateEnvironment/code-mod-example/param-replace/code-mod-framework/lib/libnx_min/nx/lib\libnx_min.a(apm.o)
                0x000000000001b1c0                apmSetPerformanceConfiguration
 *fill*         0x000000000001b28c        0x4 
 .text.apmGetPerformanceConfiguration
                0x000000000001b290       0xf4 S:/UltimateEnvironment/code-mod-example/param-replace/code-mod-framework/lib/libnx_min/nx/lib\libnx_min.a(apm.o)
                0x000000000001b290                apmGetPerformanceConfiguration
 *fill*         0x000000000001b384        0x4 
 .text.bsearch  0x000000000001b388       0xb8 c:/devkitpro/devkita64/bin/../lib/gcc/aarch64-none-elf/8.3.0/../../../../aarch64-none-elf/lib/pic\libg.a(lib_a-bsearch.o)
                0x000000000001b388                bsearch
 .text.__set_ctype
                0x000000000001b440       0x10 c:/devkitpro/devkita64/bin/../lib/gcc/aarch64-none-elf/8.3.0/../../../../aarch64-none-elf/lib/pic\libg.a(lib_a-ctype_.o)
                0x000000000001b440                __set_ctype
 .text.__errno  0x000000000001b450       0x14 c:/devkitpro/devkita64/bin/../lib/gcc/aarch64-none-elf/8.3.0/../../../../aarch64-none-elf/lib/pic\libg.a(lib_a-errno.o)
                0x000000000001b450                __errno
 *fill*         0x000000000001b464        0x4 
 .text.__libc_fini_array
                0x000000000001b468       0x44 c:/devkitpro/devkita64/bin/../lib/gcc/aarch64-none-elf/8.3.0/../../../../aarch64-none-elf/lib/pic\libg.a(lib_a-fini.o)
                0x000000000001b468                __libc_fini_array
 *fill*         0x000000000001b4ac        0x4 
 .text.__libc_init_array
                0x000000000001b4b0       0x8c c:/devkitpro/devkita64/bin/../lib/gcc/aarch64-none-elf/8.3.0/../../../../aarch64-none-elf/lib/pic\libg.a(lib_a-init.o)
                0x000000000001b4b0                __libc_init_array
 *fill*         0x000000000001b53c        0x4 
 .text.memalign
                0x000000000001b540       0x30 c:/devkitpro/devkita64/bin/../lib/gcc/aarch64-none-elf/8.3.0/../../../../aarch64-none-elf/lib/pic\libg.a(lib_a-malign.o)
                0x000000000001b540                memalign
 .text._memalign_r
                0x000000000001b570      0x198 c:/devkitpro/devkita64/bin/../lib/gcc/aarch64-none-elf/8.3.0/../../../../aarch64-none-elf/lib/pic\libg.a(lib_a-malignr.o)
                0x000000000001b570                _memalign_r
 .text.malloc   0x000000000001b708       0x1c c:/devkitpro/devkita64/bin/../lib/gcc/aarch64-none-elf/8.3.0/../../../../aarch64-none-elf/lib/pic\libg.a(lib_a-malloc.o)
                0x000000000001b708                malloc
 *fill*         0x000000000001b724        0x4 
 .text.free     0x000000000001b728       0x1c c:/devkitpro/devkita64/bin/../lib/gcc/aarch64-none-elf/8.3.0/../../../../aarch64-none-elf/lib/pic\libg.a(lib_a-malloc.o)
                0x000000000001b728                free
 *fill*         0x000000000001b744        0x4 
 .text._malloc_r
                0x000000000001b748      0x87c c:/devkitpro/devkita64/bin/../lib/gcc/aarch64-none-elf/8.3.0/../../../../aarch64-none-elf/lib/pic\libg.a(lib_a-mallocr.o)
                0x000000000001b748                _malloc_r
 *fill*         0x000000000001bfc4       0x3c 
 .text          0x000000000001c000      0x16c c:/devkitpro/devkita64/bin/../lib/gcc/aarch64-none-elf/8.3.0/../../../../aarch64-none-elf/lib/pic\libg.a(lib_a-memcpy.o)
                0x000000000001c000                memcpy
 *fill*         0x000000000001c16c       0x14 
 .text          0x000000000001c180      0x1dc c:/devkitpro/devkita64/bin/../lib/gcc/aarch64-none-elf/8.3.0/../../../../aarch64-none-elf/lib/pic\libg.a(lib_a-memset.o)
                0x000000000001c180                memset
 *fill*         0x000000000001c35c        0x4 
 .text.__malloc_lock
                0x000000000001c360        0xc c:/devkitpro/devkita64/bin/../lib/gcc/aarch64-none-elf/8.3.0/../../../../aarch64-none-elf/lib/pic\libg.a(lib_a-mlock.o)
                0x000000000001c360                __malloc_lock
 *fill*         0x000000000001c36c        0x4 
 .text.__malloc_unlock
                0x000000000001c370        0xc c:/devkitpro/devkita64/bin/../lib/gcc/aarch64-none-elf/8.3.0/../../../../aarch64-none-elf/lib/pic\libg.a(lib_a-mlock.o)
                0x000000000001c370                __malloc_unlock
 *fill*         0x000000000001c37c        0x4 
 .text.setenv   0x000000000001c380       0x3c c:/devkitpro/devkita64/bin/../lib/gcc/aarch64-none-elf/8.3.0/../../../../aarch64-none-elf/lib/pic\libg.a(lib_a-setenv.o)
                0x000000000001c380                setenv
 *fill*         0x000000000001c3bc        0x4 
 .text.unsetenv
                0x000000000001c3c0       0x1c c:/devkitpro/devkita64/bin/../lib/gcc/aarch64-none-elf/8.3.0/../../../../aarch64-none-elf/lib/pic\libg.a(lib_a-setenv.o)
                0x000000000001c3c0                unsetenv
 *fill*         0x000000000001c3dc        0x4 
 .text._setenv_r
                0x000000000001c3e0      0x264 c:/devkitpro/devkita64/bin/../lib/gcc/aarch64-none-elf/8.3.0/../../../../aarch64-none-elf/lib/pic\libg.a(lib_a-setenv_r.o)
                0x000000000001c3e0                _setenv_r
 *fill*         0x000000000001c644        0x4 
 .text._unsetenv_r
                0x000000000001c648       0xd4 c:/devkitpro/devkita64/bin/../lib/gcc/aarch64-none-elf/8.3.0/../../../../aarch64-none-elf/lib/pic\libg.a(lib_a-setenv_r.o)
                0x000000000001c648                _unsetenv_r
 .text          0x000000000001c71c       0xdc c:/devkitpro/devkita64/bin/../lib/gcc/aarch64-none-elf/8.3.0/../../../../aarch64-none-elf/lib/pic\libg.a(lib_a-strchr.o)
                0x000000000001c71c                strchr
 *fill*         0x000000000001c7f8        0x8 
 .text          0x000000000001c800      0x1b8 c:/devkitpro/devkita64/bin/../lib/gcc/aarch64-none-elf/8.3.0/../../../../aarch64-none-elf/lib/pic\libg.a(lib_a-strcpy.o)
                0x000000000001c800                strcpy
 *fill*         0x000000000001c9b8        0x8 
 .text          0x000000000001c9c0      0x140 c:/devkitpro/devkita64/bin/../lib/gcc/aarch64-none-elf/8.3.0/../../../../aarch64-none-elf/lib/pic\libg.a(lib_a-strlen.o)
                0x000000000001c9c0                strlen
 .text.strncat  0x000000000001cb00       0x84 c:/devkitpro/devkita64/bin/../lib/gcc/aarch64-none-elf/8.3.0/../../../../aarch64-none-elf/lib/pic\libg.a(lib_a-strncat.o)
                0x000000000001cb00                strncat
 *fill*         0x000000000001cb84       0x3c 
 .text          0x000000000001cbc0      0x1d4 c:/devkitpro/devkita64/bin/../lib/gcc/aarch64-none-elf/8.3.0/../../../../aarch64-none-elf/lib/pic\libg.a(lib_a-strncmp.o)
                0x000000000001cbdc                strncmp
 *fill*         0x000000000001cd94        0x4 
 .text.strncpy  0x000000000001cd98       0xa8 c:/devkitpro/devkita64/bin/../lib/gcc/aarch64-none-elf/8.3.0/../../../../aarch64-none-elf/lib/pic\libg.a(lib_a-strncpy.o)
                0x000000000001cd98                strncpy
 .text          0x000000000001ce40       0xe0 c:/devkitpro/devkita64/bin/../lib/gcc/aarch64-none-elf/8.3.0/../../../../aarch64-none-elf/lib/pic\libg.a(lib_a-strnlen.o)
                0x000000000001ce64                strnlen
 .text.toupper  0x000000000001cf20       0x24 c:/devkitpro/devkita64/bin/../lib/gcc/aarch64-none-elf/8.3.0/../../../../aarch64-none-elf/lib/pic\libg.a(lib_a-toupper.o)
                0x000000000001cf20                toupper
 *fill*         0x000000000001cf44        0x4 
 .text._vsnprintf_r
                0x000000000001cf48       0xe0 c:/devkitpro/devkita64/bin/../lib/gcc/aarch64-none-elf/8.3.0/../../../../aarch64-none-elf/lib/pic\libg.a(lib_a-vsnprintf.o)
                0x000000000001cf48                _vsnprintf_r
 .text.vsnprintf
                0x000000000001d028       0x50 c:/devkitpro/devkita64/bin/../lib/gcc/aarch64-none-elf/8.3.0/../../../../aarch64-none-elf/lib/pic\libg.a(lib_a-vsnprintf.o)
                0x000000000001d028                vsnprintf
 .text.__call_exitprocs
                0x000000000001d078      0x124 c:/devkitpro/devkita64/bin/../lib/gcc/aarch64-none-elf/8.3.0/../../../../aarch64-none-elf/lib/pic\libg.a(lib_a-__call_atexit.o)
                0x000000000001d078                __call_exitprocs
 *fill*         0x000000000001d19c        0x4 
 .text.__env_lock
                0x000000000001d1a0        0xc c:/devkitpro/devkita64/bin/../lib/gcc/aarch64-none-elf/8.3.0/../../../../aarch64-none-elf/lib/pic\libg.a(lib_a-envlock.o)
                0x000000000001d1a0                __env_lock
 *fill*         0x000000000001d1ac        0x4 
 .text.__env_unlock
                0x000000000001d1b0        0xc c:/devkitpro/devkita64/bin/../lib/gcc/aarch64-none-elf/8.3.0/../../../../aarch64-none-elf/lib/pic\libg.a(lib_a-envlock.o)
                0x000000000001d1b0                __env_unlock
 *fill*         0x000000000001d1bc        0x4 
 .text._malloc_trim_r
                0x000000000001d1c0      0x118 c:/devkitpro/devkita64/bin/../lib/gcc/aarch64-none-elf/8.3.0/../../../../aarch64-none-elf/lib/pic\libg.a(lib_a-freer.o)
                0x000000000001d1c0                _malloc_trim_r
 .text._free_r  0x000000000001d2d8      0x2f4 c:/devkitpro/devkita64/bin/../lib/gcc/aarch64-none-elf/8.3.0/../../../../aarch64-none-elf/lib/pic\libg.a(lib_a-freer.o)
                0x000000000001d2d8                _free_r
 *fill*         0x000000000001d5cc        0x4 
 .text._findenv_r
                0x000000000001d5d0      0x100 c:/devkitpro/devkita64/bin/../lib/gcc/aarch64-none-elf/8.3.0/../../../../aarch64-none-elf/lib/pic\libg.a(lib_a-getenv_r.o)
                0x000000000001d5d0                _findenv_r
 .text._getenv_r
                0x000000000001d6d0       0x18 c:/devkitpro/devkita64/bin/../lib/gcc/aarch64-none-elf/8.3.0/../../../../aarch64-none-elf/lib/pic\libg.a(lib_a-getenv_r.o)
                0x000000000001d6d0                _getenv_r
 .text._realloc_r
                0x000000000001d6e8      0x56c c:/devkitpro/devkita64/bin/../lib/gcc/aarch64-none-elf/8.3.0/../../../../aarch64-none-elf/lib/pic\libg.a(lib_a-reallocr.o)
                0x000000000001d6e8                _realloc_r
 .text.get_arg  0x000000000001dc54      0x76c c:/devkitpro/devkita64/bin/../lib/gcc/aarch64-none-elf/8.3.0/../../../../aarch64-none-elf/lib/pic\libg.a(lib_a-svfprintf.o)
 .text._svfprintf_r
                0x000000000001e3c0     0x3b38 c:/devkitpro/devkita64/bin/../lib/gcc/aarch64-none-elf/8.3.0/../../../../aarch64-none-elf/lib/pic\libg.a(lib_a-svfprintf.o)
                0x000000000001e3c0                _svfprintf_r
 .text._wcrtomb_r
                0x0000000000021ef8       0xd0 c:/devkitpro/devkita64/bin/../lib/gcc/aarch64-none-elf/8.3.0/../../../../aarch64-none-elf/lib/pic\libg.a(lib_a-wcrtomb.o)
                0x0000000000021ef8                _wcrtomb_r
 .text.wcrtomb  0x0000000000021fc8       0xdc c:/devkitpro/devkita64/bin/../lib/gcc/aarch64-none-elf/8.3.0/../../../../aarch64-none-elf/lib/pic\libg.a(lib_a-wcrtomb.o)
                0x0000000000021fc8                wcrtomb
 *fill*         0x00000000000220a4        0x4 
 .text._wcsrtombs_r
                0x00000000000220a8       0x10 c:/devkitpro/devkita64/bin/../lib/gcc/aarch64-none-elf/8.3.0/../../../../aarch64-none-elf/lib/pic\libg.a(lib_a-wcsrtombs.o)
                0x00000000000220a8                _wcsrtombs_r
 .text.wcsrtombs
                0x00000000000220b8       0x44 c:/devkitpro/devkita64/bin/../lib/gcc/aarch64-none-elf/8.3.0/../../../../aarch64-none-elf/lib/pic\libg.a(lib_a-wcsrtombs.o)
                0x00000000000220b8                wcsrtombs
 *fill*         0x00000000000220fc        0x4 
 .text.quorem   0x0000000000022100      0x1a8 c:/devkitpro/devkita64/bin/../lib/gcc/aarch64-none-elf/8.3.0/../../../../aarch64-none-elf/lib/pic\libg.a(lib_a-dtoa.o)
 .text._dtoa_r  0x00000000000222a8     0x10dc c:/devkitpro/devkita64/bin/../lib/gcc/aarch64-none-elf/8.3.0/../../../../aarch64-none-elf/lib/pic\libg.a(lib_a-dtoa.o)
                0x00000000000222a8                _dtoa_r
 *fill*         0x0000000000023384        0x4 
 .text.__localeconv_l
                0x0000000000023388        0x8 c:/devkitpro/devkita64/bin/../lib/gcc/aarch64-none-elf/8.3.0/../../../../aarch64-none-elf/lib/pic\libg.a(lib_a-localeconv.o)
                0x0000000000023388                __localeconv_l
 .text._localeconv_r
                0x0000000000023390       0x28 c:/devkitpro/devkita64/bin/../lib/gcc/aarch64-none-elf/8.3.0/../../../../aarch64-none-elf/lib/pic\libg.a(lib_a-localeconv.o)
                0x0000000000023390                _localeconv_r
 .text.localeconv
                0x00000000000233b8       0x28 c:/devkitpro/devkita64/bin/../lib/gcc/aarch64-none-elf/8.3.0/../../../../aarch64-none-elf/lib/pic\libg.a(lib_a-localeconv.o)
                0x00000000000233b8                localeconv
 .text.currentlocale
                0x00000000000233e0       0xb8 c:/devkitpro/devkita64/bin/../lib/gcc/aarch64-none-elf/8.3.0/../../../../aarch64-none-elf/lib/pic\libg.a(lib_a-locale.o)
 .text.__loadlocale
                0x0000000000023498      0x7a8 c:/devkitpro/devkita64/bin/../lib/gcc/aarch64-none-elf/8.3.0/../../../../aarch64-none-elf/lib/pic\libg.a(lib_a-locale.o)
                0x0000000000023498                __loadlocale
 .text.__get_locale_env
                0x0000000000023c40       0x88 c:/devkitpro/devkita64/bin/../lib/gcc/aarch64-none-elf/8.3.0/../../../../aarch64-none-elf/lib/pic\libg.a(lib_a-locale.o)
                0x0000000000023c40                __get_locale_env
 .text._setlocale_r
                0x0000000000023cc8      0x3a4 c:/devkitpro/devkita64/bin/../lib/gcc/aarch64-none-elf/8.3.0/../../../../aarch64-none-elf/lib/pic\libg.a(lib_a-locale.o)
                0x0000000000023cc8                _setlocale_r
 *fill*         0x000000000002406c        0x4 
 .text.__locale_mb_cur_max
                0x0000000000024070       0x2c c:/devkitpro/devkita64/bin/../lib/gcc/aarch64-none-elf/8.3.0/../../../../aarch64-none-elf/lib/pic\libg.a(lib_a-locale.o)
                0x0000000000024070                __locale_mb_cur_max
 *fill*         0x000000000002409c        0x4 
 .text.setlocale
                0x00000000000240a0       0x30 c:/devkitpro/devkita64/bin/../lib/gcc/aarch64-none-elf/8.3.0/../../../../aarch64-none-elf/lib/pic\libg.a(lib_a-locale.o)
                0x00000000000240a0                setlocale
 .text._mbtowc_r
                0x00000000000240d0       0x4c c:/devkitpro/devkita64/bin/../lib/gcc/aarch64-none-elf/8.3.0/../../../../aarch64-none-elf/lib/pic\libg.a(lib_a-mbtowc_r.o)
                0x00000000000240d0                _mbtowc_r
 *fill*         0x000000000002411c        0x4 
 .text.__ascii_mbtowc
                0x0000000000024120       0x48 c:/devkitpro/devkita64/bin/../lib/gcc/aarch64-none-elf/8.3.0/../../../../aarch64-none-elf/lib/pic\libg.a(lib_a-mbtowc_r.o)
                0x0000000000024120                __ascii_mbtowc
 .text.__utf8_mbtowc
                0x0000000000024168      0x2c8 c:/devkitpro/devkita64/bin/../lib/gcc/aarch64-none-elf/8.3.0/../../../../aarch64-none-elf/lib/pic\libg.a(lib_a-mbtowc_r.o)
                0x0000000000024168                __utf8_mbtowc
 .text.__sjis_mbtowc
                0x0000000000024430       0xcc c:/devkitpro/devkita64/bin/../lib/gcc/aarch64-none-elf/8.3.0/../../../../aarch64-none-elf/lib/pic\libg.a(lib_a-mbtowc_r.o)
                0x0000000000024430                __sjis_mbtowc
 *fill*         0x00000000000244fc        0x4 
 .text.__eucjp_mbtowc
                0x0000000000024500      0x120 c:/devkitpro/devkita64/bin/../lib/gcc/aarch64-none-elf/8.3.0/../../../../aarch64-none-elf/lib/pic\libg.a(lib_a-mbtowc_r.o)
                0x0000000000024500                __eucjp_mbtowc
 .text.__jis_mbtowc
                0x0000000000024620      0x1d4 c:/devkitpro/devkita64/bin/../lib/gcc/aarch64-none-elf/8.3.0/../../../../aarch64-none-elf/lib/pic\libg.a(lib_a-mbtowc_r.o)
                0x0000000000024620                __jis_mbtowc
 .text          0x00000000000247f4       0xd8 c:/devkitpro/devkita64/bin/../lib/gcc/aarch64-none-elf/8.3.0/../../../../aarch64-none-elf/lib/pic\libg.a(lib_a-memchr.o)
                0x00000000000247f4                memchr
 *fill*         0x00000000000248cc       0x34 
 .text          0x0000000000024900       0xac c:/devkitpro/devkita64/bin/../lib/gcc/aarch64-none-elf/8.3.0/../../../../aarch64-none-elf/lib/pic\libg.a(lib_a-memmove.o)
                0x0000000000024900                memmove
 *fill*         0x00000000000249ac        0x4 
 .text._Balloc  0x00000000000249b0       0x90 c:/devkitpro/devkita64/bin/../lib/gcc/aarch64-none-elf/8.3.0/../../../../aarch64-none-elf/lib/pic\libg.a(lib_a-mprec.o)
                0x00000000000249b0                _Balloc
 .text._Bfree   0x0000000000024a40       0x1c c:/devkitpro/devkita64/bin/../lib/gcc/aarch64-none-elf/8.3.0/../../../../aarch64-none-elf/lib/pic\libg.a(lib_a-mprec.o)
                0x0000000000024a40                _Bfree
 *fill*         0x0000000000024a5c        0x4 
 .text.__multadd
                0x0000000000024a60       0xe8 c:/devkitpro/devkita64/bin/../lib/gcc/aarch64-none-elf/8.3.0/../../../../aarch64-none-elf/lib/pic\libg.a(lib_a-mprec.o)
                0x0000000000024a60                __multadd
 .text.__s2b    0x0000000000024b48      0x120 c:/devkitpro/devkita64/bin/../lib/gcc/aarch64-none-elf/8.3.0/../../../../aarch64-none-elf/lib/pic\libg.a(lib_a-mprec.o)
                0x0000000000024b48                __s2b
 .text.__hi0bits
                0x0000000000024c68       0x5c c:/devkitpro/devkita64/bin/../lib/gcc/aarch64-none-elf/8.3.0/../../../../aarch64-none-elf/lib/pic\libg.a(lib_a-mprec.o)
                0x0000000000024c68                __hi0bits
 *fill*         0x0000000000024cc4        0x4 
 .text.__lo0bits
                0x0000000000024cc8       0xa0 c:/devkitpro/devkita64/bin/../lib/gcc/aarch64-none-elf/8.3.0/../../../../aarch64-none-elf/lib/pic\libg.a(lib_a-mprec.o)
                0x0000000000024cc8                __lo0bits
 .text.__i2b    0x0000000000024d68       0x2c c:/devkitpro/devkita64/bin/../lib/gcc/aarch64-none-elf/8.3.0/../../../../aarch64-none-elf/lib/pic\libg.a(lib_a-mprec.o)
                0x0000000000024d68                __i2b
 *fill*         0x0000000000024d94        0x4 
 .text.__multiply
                0x0000000000024d98      0x1c8 c:/devkitpro/devkita64/bin/../lib/gcc/aarch64-none-elf/8.3.0/../../../../aarch64-none-elf/lib/pic\libg.a(lib_a-mprec.o)
                0x0000000000024d98                __multiply
 .text.__pow5mult
                0x0000000000024f60      0x104 c:/devkitpro/devkita64/bin/../lib/gcc/aarch64-none-elf/8.3.0/../../../../aarch64-none-elf/lib/pic\libg.a(lib_a-mprec.o)
                0x0000000000024f60                __pow5mult
 *fill*         0x0000000000025064        0x4 
 .text.__lshift
                0x0000000000025068      0x134 c:/devkitpro/devkita64/bin/../lib/gcc/aarch64-none-elf/8.3.0/../../../../aarch64-none-elf/lib/pic\libg.a(lib_a-mprec.o)
                0x0000000000025068                __lshift
 *fill*         0x000000000002519c        0x4 
 .text.__mcmp   0x00000000000251a0       0x50 c:/devkitpro/devkita64/bin/../lib/gcc/aarch64-none-elf/8.3.0/../../../../aarch64-none-elf/lib/pic\libg.a(lib_a-mprec.o)
                0x00000000000251a0                __mcmp
 .text.__mdiff  0x00000000000251f0      0x14c c:/devkitpro/devkita64/bin/../lib/gcc/aarch64-none-elf/8.3.0/../../../../aarch64-none-elf/lib/pic\libg.a(lib_a-mprec.o)
                0x00000000000251f0                __mdiff
 *fill*         0x000000000002533c        0x4 
 .text.__ulp    0x0000000000025340       0x68 c:/devkitpro/devkita64/bin/../lib/gcc/aarch64-none-elf/8.3.0/../../../../aarch64-none-elf/lib/pic\libg.a(lib_a-mprec.o)
                0x0000000000025340                __ulp
 .text.__b2d    0x00000000000253a8      0x150 c:/devkitpro/devkita64/bin/../lib/gcc/aarch64-none-elf/8.3.0/../../../../aarch64-none-elf/lib/pic\libg.a(lib_a-mprec.o)
                0x00000000000253a8                __b2d
 .text.__d2b    0x00000000000254f8      0x138 c:/devkitpro/devkita64/bin/../lib/gcc/aarch64-none-elf/8.3.0/../../../../aarch64-none-elf/lib/pic\libg.a(lib_a-mprec.o)
                0x00000000000254f8                __d2b
 .text.__ratio  0x0000000000025630       0xa0 c:/devkitpro/devkita64/bin/../lib/gcc/aarch64-none-elf/8.3.0/../../../../aarch64-none-elf/lib/pic\libg.a(lib_a-mprec.o)
                0x0000000000025630                __ratio
 .text._mprec_log10
                0x00000000000256d0       0x30 c:/devkitpro/devkita64/bin/../lib/gcc/aarch64-none-elf/8.3.0/../../../../aarch64-none-elf/lib/pic\libg.a(lib_a-mprec.o)
                0x00000000000256d0                _mprec_log10
 .text.__copybits
                0x0000000000025700       0x68 c:/devkitpro/devkita64/bin/../lib/gcc/aarch64-none-elf/8.3.0/../../../../aarch64-none-elf/lib/pic\libg.a(lib_a-mprec.o)
                0x0000000000025700                __copybits
 .text.__any_on
                0x0000000000025768       0x84 c:/devkitpro/devkita64/bin/../lib/gcc/aarch64-none-elf/8.3.0/../../../../aarch64-none-elf/lib/pic\libg.a(lib_a-mprec.o)
                0x0000000000025768                __any_on
 *fill*         0x00000000000257ec        0x4 
 .text.frexp    0x00000000000257f0       0x7c c:/devkitpro/devkita64/bin/../lib/gcc/aarch64-none-elf/8.3.0/../../../../aarch64-none-elf/lib/pic\libg.a(lib_a-s_frexp.o)
                0x00000000000257f0                frexp
 *fill*         0x000000000002586c        0x4 
 .text.strcasecmp
                0x0000000000025870       0x78 c:/devkitpro/devkita64/bin/../lib/gcc/aarch64-none-elf/8.3.0/../../../../aarch64-none-elf/lib/pic\libg.a(lib_a-strcasecmp.o)
                0x0000000000025870                strcasecmp
 .text.strcat   0x00000000000258e8       0x74 c:/devkitpro/devkita64/bin/../lib/gcc/aarch64-none-elf/8.3.0/../../../../aarch64-none-elf/lib/pic\libg.a(lib_a-strcat.o)
                0x00000000000258e8                strcat
 *fill*         0x000000000002595c       0x24 
 .text          0x0000000000025980       0xe4 c:/devkitpro/devkita64/bin/../lib/gcc/aarch64-none-elf/8.3.0/../../../../aarch64-none-elf/lib/pic\libg.a(lib_a-strcmp.o)
                0x0000000000025980                strcmp
 *fill*         0x0000000000025a64        0x4 
 .text.strlcpy  0x0000000000025a68       0x54 c:/devkitpro/devkita64/bin/../lib/gcc/aarch64-none-elf/8.3.0/../../../../aarch64-none-elf/lib/pic\libg.a(lib_a-strlcpy.o)
                0x0000000000025a68                strlcpy
 *fill*         0x0000000000025abc        0x4 
 .text.strncasecmp
                0x0000000000025ac0       0x8c c:/devkitpro/devkita64/bin/../lib/gcc/aarch64-none-elf/8.3.0/../../../../aarch64-none-elf/lib/pic\libg.a(lib_a-strncasecmp.o)
                0x0000000000025ac0                strncasecmp
 *fill*         0x0000000000025b4c        0x4 
 .text._strtol_l.isra.0
                0x0000000000025b50      0x1a0 c:/devkitpro/devkita64/bin/../lib/gcc/aarch64-none-elf/8.3.0/../../../../aarch64-none-elf/lib/pic\libg.a(lib_a-strtol.o)
 .text._strtol_r
                0x0000000000025cf0       0x34 c:/devkitpro/devkita64/bin/../lib/gcc/aarch64-none-elf/8.3.0/../../../../aarch64-none-elf/lib/pic\libg.a(lib_a-strtol.o)
                0x0000000000025cf0                _strtol_r
 *fill*         0x0000000000025d24        0x4 
 .text.strtol_l
                0x0000000000025d28       0x3c c:/devkitpro/devkita64/bin/../lib/gcc/aarch64-none-elf/8.3.0/../../../../aarch64-none-elf/lib/pic\libg.a(lib_a-strtol.o)
                0x0000000000025d28                strtol_l
 *fill*         0x0000000000025d64        0x4 
 .text.strtol   0x0000000000025d68       0x48 c:/devkitpro/devkita64/bin/../lib/gcc/aarch64-none-elf/8.3.0/../../../../aarch64-none-elf/lib/pic\libg.a(lib_a-strtol.o)
                0x0000000000025d68                strtol
 .text.get_arg  0x0000000000025db0      0x76c c:/devkitpro/devkita64/bin/../lib/gcc/aarch64-none-elf/8.3.0/../../../../aarch64-none-elf/lib/pic\libg.a(lib_a-svfiprintf.o)
 .text.__ssprint_r
                0x000000000002651c      0x1c0 c:/devkitpro/devkita64/bin/../lib/gcc/aarch64-none-elf/8.3.0/../../../../aarch64-none-elf/lib/pic\libg.a(lib_a-svfiprintf.o)
                0x000000000002651c                __ssprint_r
 .text._svfiprintf_r
                0x00000000000266dc     0x28ec c:/devkitpro/devkita64/bin/../lib/gcc/aarch64-none-elf/8.3.0/../../../../aarch64-none-elf/lib/pic\libg.a(lib_a-svfiprintf.o)
                0x00000000000266dc                _svfiprintf_r
 .text._wcsnrtombs_l
                0x0000000000028fc8      0x1dc c:/devkitpro/devkita64/bin/../lib/gcc/aarch64-none-elf/8.3.0/../../../../aarch64-none-elf/lib/pic\libg.a(lib_a-wcsnrtombs.o)
                0x0000000000028fc8                _wcsnrtombs_l
 *fill*         0x00000000000291a4        0x4 
 .text._wcsnrtombs_r
                0x00000000000291a8       0x54 c:/devkitpro/devkita64/bin/../lib/gcc/aarch64-none-elf/8.3.0/../../../../aarch64-none-elf/lib/pic\libg.a(lib_a-wcsnrtombs.o)
                0x00000000000291a8                _wcsnrtombs_r
 *fill*         0x00000000000291fc        0x4 
 .text.wcsnrtombs
                0x0000000000029200       0x64 c:/devkitpro/devkita64/bin/../lib/gcc/aarch64-none-elf/8.3.0/../../../../aarch64-none-elf/lib/pic\libg.a(lib_a-wcsnrtombs.o)
                0x0000000000029200                wcsnrtombs
 *fill*         0x0000000000029264        0x4 
 .text._wctomb_r
                0x0000000000029268       0x54 c:/devkitpro/devkita64/bin/../lib/gcc/aarch64-none-elf/8.3.0/../../../../aarch64-none-elf/lib/pic\libg.a(lib_a-wctomb_r.o)
                0x0000000000029268                _wctomb_r
 *fill*         0x00000000000292bc        0x4 
 .text.__ascii_wctomb
                0x00000000000292c0       0x34 c:/devkitpro/devkita64/bin/../lib/gcc/aarch64-none-elf/8.3.0/../../../../aarch64-none-elf/lib/pic\libg.a(lib_a-wctomb_r.o)
                0x00000000000292c0                __ascii_wctomb
 *fill*         0x00000000000292f4        0x4 
 .text.__utf8_wctomb
                0x00000000000292f8       0xe4 c:/devkitpro/devkita64/bin/../lib/gcc/aarch64-none-elf/8.3.0/../../../../aarch64-none-elf/lib/pic\libg.a(lib_a-wctomb_r.o)
                0x00000000000292f8                __utf8_wctomb
 *fill*         0x00000000000293dc        0x4 
 .text.__sjis_wctomb
                0x00000000000293e0       0x84 c:/devkitpro/devkita64/bin/../lib/gcc/aarch64-none-elf/8.3.0/../../../../aarch64-none-elf/lib/pic\libg.a(lib_a-wctomb_r.o)
                0x00000000000293e0                __sjis_wctomb
 *fill*         0x0000000000029464        0x4 
 .text.__eucjp_wctomb
                0x0000000000029468       0xa8 c:/devkitpro/devkita64/bin/../lib/gcc/aarch64-none-elf/8.3.0/../../../../aarch64-none-elf/lib/pic\libg.a(lib_a-wctomb_r.o)
                0x0000000000029468                __eucjp_wctomb
 .text.__jis_wctomb
                0x0000000000029510       0xbc c:/devkitpro/devkita64/bin/../lib/gcc/aarch64-none-elf/8.3.0/../../../../aarch64-none-elf/lib/pic\libg.a(lib_a-wctomb_r.o)
                0x0000000000029510                __jis_wctomb
 *fill*         0x00000000000295cc        0x4 
 .text._calloc_r
                0x00000000000295d0       0x94 c:/devkitpro/devkita64/bin/../lib/gcc/aarch64-none-elf/8.3.0/../../../../aarch64-none-elf/lib/pic\libg.a(lib_a-callocr.o)
                0x00000000000295d0                _calloc_r
 *fill*         0x0000000000029664        0x4 
 .text.null_write
                0x0000000000029668        0x8 c:/devkitpro/devkita64/bin/../lib/gcc/aarch64-none-elf/8.3.0/../../../../aarch64-none-elf/lib/pic\libsysbase.a(iosupport.o)
 .text.setDefaultDevice
                0x0000000000029670       0x18 c:/devkitpro/devkita64/bin/../lib/gcc/aarch64-none-elf/8.3.0/../../../../aarch64-none-elf/lib/pic\libsysbase.a(iosupport.o)
                0x0000000000029670                setDefaultDevice
 .text.FindDevice
                0x0000000000029688      0x108 c:/devkitpro/devkita64/bin/../lib/gcc/aarch64-none-elf/8.3.0/../../../../aarch64-none-elf/lib/pic\libsysbase.a(iosupport.o)
                0x0000000000029688                FindDevice
 .text.RemoveDevice
                0x0000000000029790       0x34 c:/devkitpro/devkita64/bin/../lib/gcc/aarch64-none-elf/8.3.0/../../../../aarch64-none-elf/lib/pic\libsysbase.a(iosupport.o)
                0x0000000000029790                RemoveDevice
 *fill*         0x00000000000297c4        0x4 
 .text.AddDevice
                0x00000000000297c8       0xd8 c:/devkitpro/devkita64/bin/../lib/gcc/aarch64-none-elf/8.3.0/../../../../aarch64-none-elf/lib/pic\libsysbase.a(iosupport.o)
                0x00000000000297c8                AddDevice
 .text.GetDeviceOpTab
                0x00000000000298a0       0x34 c:/devkitpro/devkita64/bin/../lib/gcc/aarch64-none-elf/8.3.0/../../../../aarch64-none-elf/lib/pic\libsysbase.a(iosupport.o)
                0x00000000000298a0                GetDeviceOpTab
 *fill*         0x00000000000298d4        0x4 
 .text._sbrk_r  0x00000000000298d8       0x78 c:/devkitpro/devkita64/bin/../lib/gcc/aarch64-none-elf/8.3.0/../../../../aarch64-none-elf/lib/pic\libsysbase.a(sbrk.o)
                0x00000000000298d8                _sbrk_r
 .text._exit    0x0000000000029950       0x20 c:/devkitpro/devkita64/bin/../lib/gcc/aarch64-none-elf/8.3.0/../../../../aarch64-none-elf/lib/pic\libsysbase.a(_exit.o)
                0x0000000000029950                _exit
 .text._concatenate_path
                0x0000000000029970      0x234 c:/devkitpro/devkita64/bin/../lib/gcc/aarch64-none-elf/8.3.0/../../../../aarch64-none-elf/lib/pic\libsysbase.a(chdir.o)
                0x0000000000029970                _concatenate_path
 *fill*         0x0000000000029ba4        0x4 
 .text.chdir    0x0000000000029ba8      0x178 c:/devkitpro/devkita64/bin/../lib/gcc/aarch64-none-elf/8.3.0/../../../../aarch64-none-elf/lib/pic\libsysbase.a(chdir.o)
                0x0000000000029ba8                chdir
 .text.getcwd   0x0000000000029d20       0xb8 c:/devkitpro/devkita64/bin/../lib/gcc/aarch64-none-elf/8.3.0/../../../../aarch64-none-elf/lib/pic\libsysbase.a(chdir.o)
                0x0000000000029d20                getcwd
 .text.timespec2nsec
                0x0000000000029dd8       0x14 c:/devkitpro/devkita64/bin/../lib/gcc/aarch64-none-elf/8.3.0/../../../../aarch64-none-elf/lib/pic\libsysbase.a(locks.o)
                0x0000000000029dd8                timespec2nsec
 *fill*         0x0000000000029dec        0x4 
 .text.abstimespec2nsec
                0x0000000000029df0       0xc4 c:/devkitpro/devkita64/bin/../lib/gcc/aarch64-none-elf/8.3.0/../../../../aarch64-none-elf/lib/pic\libsysbase.a(locks.o)
                0x0000000000029df0                abstimespec2nsec
 *fill*         0x0000000000029eb4        0x4 
 .text.__libc_lock_init
                0x0000000000029eb8        0x8 c:/devkitpro/devkita64/bin/../lib/gcc/aarch64-none-elf/8.3.0/../../../../aarch64-none-elf/lib/pic\libsysbase.a(locks.o)
                0x0000000000029eb8                __libc_lock_init
 .text.__libc_lock_acquire
                0x0000000000029ec0       0x14 c:/devkitpro/devkita64/bin/../lib/gcc/aarch64-none-elf/8.3.0/../../../../aarch64-none-elf/lib/pic\libsysbase.a(locks.o)
                0x0000000000029ec0                __libc_lock_acquire
 *fill*         0x0000000000029ed4        0x4 
 .text.__libc_lock_try_acquire
                0x0000000000029ed8       0x18 c:/devkitpro/devkita64/bin/../lib/gcc/aarch64-none-elf/8.3.0/../../../../aarch64-none-elf/lib/pic\libsysbase.a(locks.o)
                0x0000000000029ed8                __libc_lock_try_acquire
 .text.__libc_lock_release
                0x0000000000029ef0       0x14 c:/devkitpro/devkita64/bin/../lib/gcc/aarch64-none-elf/8.3.0/../../../../aarch64-none-elf/lib/pic\libsysbase.a(locks.o)
                0x0000000000029ef0                __libc_lock_release
 *fill*         0x0000000000029f04        0x4 
 .text.__libc_lock_close
                0x0000000000029f08        0x4 c:/devkitpro/devkita64/bin/../lib/gcc/aarch64-none-elf/8.3.0/../../../../aarch64-none-elf/lib/pic\libsysbase.a(locks.o)
                0x0000000000029f08                __libc_lock_close
 *fill*         0x0000000000029f0c        0x4 
 .text.__libc_lock_init_recursive
                0x0000000000029f10        0xc c:/devkitpro/devkita64/bin/../lib/gcc/aarch64-none-elf/8.3.0/../../../../aarch64-none-elf/lib/pic\libsysbase.a(locks.o)
                0x0000000000029f10                __libc_lock_init_recursive
 *fill*         0x0000000000029f1c        0x4 
 .text.__libc_lock_acquire_recursive
                0x0000000000029f20       0x14 c:/devkitpro/devkita64/bin/../lib/gcc/aarch64-none-elf/8.3.0/../../../../aarch64-none-elf/lib/pic\libsysbase.a(locks.o)
                0x0000000000029f20                __libc_lock_acquire_recursive
 *fill*         0x0000000000029f34        0x4 
 .text.__libc_lock_try_acquire_recursive
                0x0000000000029f38       0x18 c:/devkitpro/devkita64/bin/../lib/gcc/aarch64-none-elf/8.3.0/../../../../aarch64-none-elf/lib/pic\libsysbase.a(locks.o)
                0x0000000000029f38                __libc_lock_try_acquire_recursive
 .text.__libc_lock_release_recursive
                0x0000000000029f50       0x14 c:/devkitpro/devkita64/bin/../lib/gcc/aarch64-none-elf/8.3.0/../../../../aarch64-none-elf/lib/pic\libsysbase.a(locks.o)
                0x0000000000029f50                __libc_lock_release_recursive
 *fill*         0x0000000000029f64        0x4 
 .text.__libc_lock_close_recursive
                0x0000000000029f68        0x4 c:/devkitpro/devkita64/bin/../lib/gcc/aarch64-none-elf/8.3.0/../../../../aarch64-none-elf/lib/pic\libsysbase.a(locks.o)
                0x0000000000029f68                __libc_lock_close_recursive
 *fill*         0x0000000000029f6c        0x4 
 .text.__libc_cond_init
                0x0000000000029f70        0xc c:/devkitpro/devkita64/bin/../lib/gcc/aarch64-none-elf/8.3.0/../../../../aarch64-none-elf/lib/pic\libsysbase.a(locks.o)
                0x0000000000029f70                __libc_cond_init
 *fill*         0x0000000000029f7c        0x4 
 .text.__libc_cond_signal
                0x0000000000029f80       0x18 c:/devkitpro/devkita64/bin/../lib/gcc/aarch64-none-elf/8.3.0/../../../../aarch64-none-elf/lib/pic\libsysbase.a(locks.o)
                0x0000000000029f80                __libc_cond_signal
 .text.__libc_cond_broadcast
                0x0000000000029f98       0x18 c:/devkitpro/devkita64/bin/../lib/gcc/aarch64-none-elf/8.3.0/../../../../aarch64-none-elf/lib/pic\libsysbase.a(locks.o)
                0x0000000000029f98                __libc_cond_broadcast
 .text.__libc_cond_wait
                0x0000000000029fb0       0x18 c:/devkitpro/devkita64/bin/../lib/gcc/aarch64-none-elf/8.3.0/../../../../aarch64-none-elf/lib/pic\libsysbase.a(locks.o)
                0x0000000000029fb0                __libc_cond_wait
 .text.__libc_cond_wait_recursive
                0x0000000000029fc8       0x18 c:/devkitpro/devkita64/bin/../lib/gcc/aarch64-none-elf/8.3.0/../../../../aarch64-none-elf/lib/pic\libsysbase.a(locks.o)
                0x0000000000029fc8                __libc_cond_wait_recursive
 .text.__getreent
                0x0000000000029fe0       0x20 c:/devkitpro/devkita64/bin/../lib/gcc/aarch64-none-elf/8.3.0/../../../../aarch64-none-elf/lib/pic\libsysbase.a(getreent.o)
                0x0000000000029fe0                __getreent
 .text.clock_gettime
                0x000000000002a000       0x30 c:/devkitpro/devkita64/bin/../lib/gcc/aarch64-none-elf/8.3.0/../../../../aarch64-none-elf/lib/pic\libsysbase.a(clocks.o)
                0x000000000002a000                clock_gettime
 .text.clock_settime
                0x000000000002a030       0x30 c:/devkitpro/devkita64/bin/../lib/gcc/aarch64-none-elf/8.3.0/../../../../aarch64-none-elf/lib/pic\libsysbase.a(clocks.o)
                0x000000000002a030                clock_settime
 .text.clock_getres
                0x000000000002a060       0x30 c:/devkitpro/devkita64/bin/../lib/gcc/aarch64-none-elf/8.3.0/../../../../aarch64-none-elf/lib/pic\libsysbase.a(clocks.o)
                0x000000000002a060                clock_getres
 .text.__trunctfdf2
                0x000000000002a090      0x348 c:/devkitpro/devkita64/bin/../lib/gcc/aarch64-none-elf/8.3.0/pic\libgcc.a(trunctfdf2.o)
                0x000000000002a090                __trunctfdf2
 .text.__sfp_handle_exceptions
                0x000000000002a3d8       0x70 c:/devkitpro/devkita64/bin/../lib/gcc/aarch64-none-elf/8.3.0/pic\libgcc.a(sfp-exceptions.o)
                0x000000000002a3d8                __sfp_handle_exceptions
 .text          0x000000000002a448      0x100 c:/devkitpro/devkita64/bin/../lib/gcc/aarch64-none-elf/8.3.0/../../../../aarch64-none-elf/lib/pic\libg.a(lib_a-strrchr.o)
                0x000000000002a448                strrchr
                0x000000000002a548                . = ALIGN (0x8)

.fini           0x000000000002a548       0x38
 *(.fini)
 .fini          0x000000000002a548       0x18 c:/devkitpro/devkita64/bin/../lib/gcc/aarch64-none-elf/8.3.0/pic/crti.o
                0x000000000002a548                _fini
 .fini          0x000000000002a560       0x1c c:/devkitpro/devkita64/bin/../lib/gcc/aarch64-none-elf/8.3.0/pic/crtn.o
                0x000000000002a580                . = ALIGN (0x8)
 *fill*         0x000000000002a57c        0x4 
                0x000000000002b000                . = ALIGN (0x1000)

.rodata         0x000000000002b000     0x1b50
 *(.rodata .rodata.* .gnu.linkonce.r.*)
 .rodata        0x000000000002b000      0x400 main.o
 .rodata.str1.8
                0x000000000002b400      0x576 main.o
 *fill*         0x000000000002b976        0x2 
 .rodata.str1.8
                0x000000000002b978        0x5 acmd_wrapper.o
 *fill*         0x000000000002b97d        0x3 
 .rodata        0x000000000002b980        0x5 saltysd_helper.o
 *fill*         0x000000000002b985        0x3 
 .rodata.str1.8
                0x000000000002b988        0x5 saltysd_helper.o
 *fill*         0x000000000002b98d        0x3 
 .rodata        0x000000000002b990       0x60 lua_bind_hash.o
 .rodata        0x000000000002b9f0      0x53c raygun_printer.o
 *fill*         0x000000000002bf2c        0x4 
 .rodata.str1.8
                0x000000000002bf30      0x147 raygun_printer.o
                                        0x14f (size before relaxing)
 *fill*         0x000000000002c077        0x1 
 .rodata._fsdevUnmountDeviceStruct.part.4.str1.8
                0x000000000002c078        0x2 S:/UltimateEnvironment/code-mod-example/param-replace/code-mod-framework/lib/libnx_min/nx/lib\libnx_min.a(fs_dev.o)
 *fill*         0x000000000002c07a        0x6 
 .rodata.error_table
                0x000000000002c080       0x20 S:/UltimateEnvironment/code-mod-example/param-replace/code-mod-framework/lib/libnx_min/nx/lib\libnx_min.a(fs_dev.o)
 .rodata.fsdevMountSdmc.str1.8
                0x000000000002c0a0        0x5 S:/UltimateEnvironment/code-mod-example/param-replace/code-mod-framework/lib/libnx_min/nx/lib\libnx_min.a(fs_dev.o)
 *fill*         0x000000000002c0a5        0x3 
 .rodata.fsInitialize.str1.8
                0x000000000002c0a8        0x8 S:/UltimateEnvironment/code-mod-example/param-replace/code-mod-framework/lib/libnx_min/nx/lib\libnx_min.a(fs.o)
 .rodata.setInitialize.str1.8
                0x000000000002c0b0        0x4 S:/UltimateEnvironment/code-mod-example/param-replace/code-mod-framework/lib/libnx_min/nx/lib\libnx_min.a(set.o)
 *fill*         0x000000000002c0b4        0x4 
 .rodata.setsysInitialize.str1.8
                0x000000000002c0b8        0x8 S:/UltimateEnvironment/code-mod-example/param-replace/code-mod-framework/lib/libnx_min/nx/lib\libnx_min.a(set.o)
 .rodata._fatalImpl.str1.8
                0x000000000002c0c0        0x8 S:/UltimateEnvironment/code-mod-example/param-replace/code-mod-framework/lib/libnx_min/nx/lib\libnx_min.a(fatal.o)
 .rodata.smInitialize.str1.8
                0x000000000002c0c8        0x4 S:/UltimateEnvironment/code-mod-example/param-replace/code-mod-framework/lib/libnx_min/nx/lib\libnx_min.a(sm.o)
                                          0x9 (size before relaxing)
 *fill*         0x000000000002c0cc        0x4 
 .rodata        0x000000000002c0d0       0x24 S:/UltimateEnvironment/code-mod-example/param-replace/code-mod-framework/lib/libnx_min/nx/lib\libnx_min.a(hid.o)
 *fill*         0x000000000002c0f4        0x4 
 .rodata.hidInitialize.str1.8
                0x000000000002c0f8        0x4 S:/UltimateEnvironment/code-mod-example/param-replace/code-mod-framework/lib/libnx_min/nx/lib\libnx_min.a(hid.o)
 *fill*         0x000000000002c0fc        0x4 
 .rodata.timeInitialize.str1.8
                0x000000000002c100        0xf S:/UltimateEnvironment/code-mod-example/param-replace/code-mod-framework/lib/libnx_min/nx/lib\libnx_min.a(time.o)
 *fill*         0x000000000002c10f        0x1 
 .rodata.CSWTCH.93
                0x000000000002c110       0x14 S:/UltimateEnvironment/code-mod-example/param-replace/code-mod-framework/lib/libnx_min/nx/lib\libnx_min.a(applet.o)
 *fill*         0x000000000002c124        0x4 
 .rodata.appletInitialize.str1.8
                0x000000000002c128       0x19 S:/UltimateEnvironment/code-mod-example/param-replace/code-mod-framework/lib/libnx_min/nx/lib\libnx_min.a(applet.o)
 *fill*         0x000000000002c141        0x7 
 .rodata.__libnx_init_time.str1.8
                0x000000000002c148        0x3 S:/UltimateEnvironment/code-mod-example/param-replace/code-mod-framework/lib/libnx_min/nx/lib\libnx_min.a(newlib.o)
 *fill*         0x000000000002c14b        0x5 
 .rodata.apmInitialize.str1.8
                0x000000000002c150        0x4 S:/UltimateEnvironment/code-mod-example/param-replace/code-mod-framework/lib/libnx_min/nx/lib\libnx_min.a(apm.o)
 *fill*         0x000000000002c154        0x4 
 .rodata._ctype_
                0x000000000002c158      0x101 c:/devkitpro/devkita64/bin/../lib/gcc/aarch64-none-elf/8.3.0/../../../../aarch64-none-elf/lib/pic\libg.a(lib_a-ctype_.o)
                0x000000000002c158                _ctype_
 *fill*         0x000000000002c259        0x3 
 .rodata.get_arg
                0x000000000002c25c       0x92 c:/devkitpro/devkita64/bin/../lib/gcc/aarch64-none-elf/8.3.0/../../../../aarch64-none-elf/lib/pic\libg.a(lib_a-svfprintf.o)
 *fill*         0x000000000002c2ee        0x2 
 .rodata._svfprintf_r
                0x000000000002c2f0       0xb6 c:/devkitpro/devkita64/bin/../lib/gcc/aarch64-none-elf/8.3.0/../../../../aarch64-none-elf/lib/pic\libg.a(lib_a-svfprintf.o)
 .rodata._svfprintf_r.str1.1
                0x000000000002c3a6       0x3b c:/devkitpro/devkita64/bin/../lib/gcc/aarch64-none-elf/8.3.0/../../../../aarch64-none-elf/lib/pic\libg.a(lib_a-svfprintf.o)
 *fill*         0x000000000002c3e1        0x7 
 .rodata.blanks.6590
                0x000000000002c3e8       0x10 c:/devkitpro/devkita64/bin/../lib/gcc/aarch64-none-elf/8.3.0/../../../../aarch64-none-elf/lib/pic\libg.a(lib_a-svfprintf.o)
 .rodata.zeroes.6591
                0x000000000002c3f8       0x10 c:/devkitpro/devkita64/bin/../lib/gcc/aarch64-none-elf/8.3.0/../../../../aarch64-none-elf/lib/pic\libg.a(lib_a-svfprintf.o)
 .rodata._dtoa_r.cst8
                0x000000000002c408       0x18 c:/devkitpro/devkita64/bin/../lib/gcc/aarch64-none-elf/8.3.0/../../../../aarch64-none-elf/lib/pic\libg.a(lib_a-dtoa.o)
 .rodata._dtoa_r.str1.8
                0x000000000002c420       0x1a c:/devkitpro/devkita64/bin/../lib/gcc/aarch64-none-elf/8.3.0/../../../../aarch64-none-elf/lib/pic\libg.a(lib_a-dtoa.o)
 *fill*         0x000000000002c43a        0x2 
 .rodata.__loadlocale
                0x000000000002c43c       0x6a c:/devkitpro/devkita64/bin/../lib/gcc/aarch64-none-elf/8.3.0/../../../../aarch64-none-elf/lib/pic\libg.a(lib_a-locale.o)
 *fill*         0x000000000002c4a6        0x2 
 .rodata.__get_locale_env.str1.8
                0x000000000002c4a8        0xd c:/devkitpro/devkita64/bin/../lib/gcc/aarch64-none-elf/8.3.0/../../../../aarch64-none-elf/lib/pic\libg.a(lib_a-locale.o)
 *fill*         0x000000000002c4b5        0x3 
 .rodata.__loadlocale.str1.8
                0x000000000002c4b8      0x10b c:/devkitpro/devkita64/bin/../lib/gcc/aarch64-none-elf/8.3.0/../../../../aarch64-none-elf/lib/pic\libg.a(lib_a-locale.o)
                                        0x113 (size before relaxing)
 *fill*         0x000000000002c5c3        0x5 
 .rodata.currentlocale.str1.8
                0x000000000002c5c8        0x2 c:/devkitpro/devkita64/bin/../lib/gcc/aarch64-none-elf/8.3.0/../../../../aarch64-none-elf/lib/pic\libg.a(lib_a-locale.o)
 *fill*         0x000000000002c5ca        0x6 
 .rodata.str1.8
                0x000000000002c5d0       0x5c c:/devkitpro/devkita64/bin/../lib/gcc/aarch64-none-elf/8.3.0/../../../../aarch64-none-elf/lib/pic\libg.a(lib_a-locale.o)
                                         0x64 (size before relaxing)
 *fill*         0x000000000002c62c        0x4 
 .rodata.JIS_action_table
                0x000000000002c630       0x48 c:/devkitpro/devkita64/bin/../lib/gcc/aarch64-none-elf/8.3.0/../../../../aarch64-none-elf/lib/pic\libg.a(lib_a-mbtowc_r.o)
 .rodata.JIS_state_table
                0x000000000002c678       0x48 c:/devkitpro/devkita64/bin/../lib/gcc/aarch64-none-elf/8.3.0/../../../../aarch64-none-elf/lib/pic\libg.a(lib_a-mbtowc_r.o)
 .rodata.__mprec_bigtens
                0x000000000002c6c0       0x28 c:/devkitpro/devkita64/bin/../lib/gcc/aarch64-none-elf/8.3.0/../../../../aarch64-none-elf/lib/pic\libg.a(lib_a-mprec.o)
                0x000000000002c6c0                __mprec_bigtens
 .rodata.__mprec_tens
                0x000000000002c6e8       0xc8 c:/devkitpro/devkita64/bin/../lib/gcc/aarch64-none-elf/8.3.0/../../../../aarch64-none-elf/lib/pic\libg.a(lib_a-mprec.o)
                0x000000000002c6e8                __mprec_tens
 .rodata.__mprec_tinytens
                0x000000000002c7b0       0x28 c:/devkitpro/devkita64/bin/../lib/gcc/aarch64-none-elf/8.3.0/../../../../aarch64-none-elf/lib/pic\libg.a(lib_a-mprec.o)
                0x000000000002c7b0                __mprec_tinytens
 .rodata.p05.5339
                0x000000000002c7d8        0xc c:/devkitpro/devkita64/bin/../lib/gcc/aarch64-none-elf/8.3.0/../../../../aarch64-none-elf/lib/pic\libg.a(lib_a-mprec.o)
 .rodata.get_arg
                0x000000000002c7e4       0x92 c:/devkitpro/devkita64/bin/../lib/gcc/aarch64-none-elf/8.3.0/../../../../aarch64-none-elf/lib/pic\libg.a(lib_a-svfiprintf.o)
 *fill*         0x000000000002c876        0x2 
 .rodata._svfiprintf_r
                0x000000000002c878       0xb6 c:/devkitpro/devkita64/bin/../lib/gcc/aarch64-none-elf/8.3.0/../../../../aarch64-none-elf/lib/pic\libg.a(lib_a-svfiprintf.o)
 *fill*         0x000000000002c92e        0x2 
 .rodata.__action_table
                0x000000000002c930       0x6c c:/devkitpro/devkita64/bin/../lib/gcc/aarch64-none-elf/8.3.0/../../../../aarch64-none-elf/lib/pic\libg.a(lib_a-svfiprintf.o)
                0x000000000002c930                __action_table
 *fill*         0x000000000002c99c        0x4 
 .rodata.__chclass
                0x000000000002c9a0      0x100 c:/devkitpro/devkita64/bin/../lib/gcc/aarch64-none-elf/8.3.0/../../../../aarch64-none-elf/lib/pic\libg.a(lib_a-svfiprintf.o)
                0x000000000002c9a0                __chclass
 .rodata.__state_table
                0x000000000002caa0       0x6c c:/devkitpro/devkita64/bin/../lib/gcc/aarch64-none-elf/8.3.0/../../../../aarch64-none-elf/lib/pic\libg.a(lib_a-svfiprintf.o)
                0x000000000002caa0                __state_table
 .rodata._svfiprintf_r.str1.1
                0x000000000002cb0c       0x29 c:/devkitpro/devkita64/bin/../lib/gcc/aarch64-none-elf/8.3.0/../../../../aarch64-none-elf/lib/pic\libg.a(lib_a-svfiprintf.o)
 *fill*         0x000000000002cb0c        0x4 
 .rodata.blanks.6569
                0x000000000002cb10       0x10 c:/devkitpro/devkita64/bin/../lib/gcc/aarch64-none-elf/8.3.0/../../../../aarch64-none-elf/lib/pic\libg.a(lib_a-svfiprintf.o)
 .rodata.zeroes.6570
                0x000000000002cb20       0x10 c:/devkitpro/devkita64/bin/../lib/gcc/aarch64-none-elf/8.3.0/../../../../aarch64-none-elf/lib/pic\libg.a(lib_a-svfiprintf.o)
 .rodata.AddDevice.str1.8
                0x000000000002cb30        0x8 c:/devkitpro/devkita64/bin/../lib/gcc/aarch64-none-elf/8.3.0/../../../../aarch64-none-elf/lib/pic\libsysbase.a(iosupport.o)
 .rodata.DIRECTORY_PARENT
                0x000000000002cb38        0x3 c:/devkitpro/devkita64/bin/../lib/gcc/aarch64-none-elf/8.3.0/../../../../aarch64-none-elf/lib/pic\libsysbase.a(chdir.o)
                0x000000000002cb38                DIRECTORY_PARENT
 *fill*         0x000000000002cb3b        0x5 
 .rodata.DIRECTORY_SEPARATOR
                0x000000000002cb40        0x2 c:/devkitpro/devkita64/bin/../lib/gcc/aarch64-none-elf/8.3.0/../../../../aarch64-none-elf/lib/pic\libsysbase.a(chdir.o)
                0x000000000002cb40                DIRECTORY_SEPARATOR
 *fill*         0x000000000002cb42        0x6 
 .rodata.DIRECTORY_THIS
                0x000000000002cb48        0x2 c:/devkitpro/devkita64/bin/../lib/gcc/aarch64-none-elf/8.3.0/../../../../aarch64-none-elf/lib/pic\libsysbase.a(chdir.o)
                0x000000000002cb48                DIRECTORY_THIS
                0x000000000002cb50                . = ALIGN (0x8)
 *fill*         0x000000000002cb4a        0x6 

.eh_frame_hdr   0x000000000002cb50        0x0
                0x000000000002cb50                __eh_frame_hdr_start = .
 *(.eh_frame_hdr)
 *(.eh_frame_entry .eh_frame_entry.*)
                0x000000000002cb50                __eh_frame_hdr_end = .

.eh_frame       0x000000000002cb50     0x7730
 *(.eh_frame)
 .eh_frame      0x000000000002cb50       0x80 c:/devkitpro/devkita64/bin/../lib/gcc/aarch64-none-elf/8.3.0/pic/crtbegin.o
 .eh_frame      0x000000000002cbd0      0x2b8 main.o
                                        0x2d0 (size before relaxing)
 .eh_frame      0x000000000002ce88      0x1f0 acmd_wrapper.o
                                        0x208 (size before relaxing)
 .eh_frame      0x000000000002d078       0x48 saltysd_helper.o
                                         0x60 (size before relaxing)
 .eh_frame      0x000000000002d0c0       0x40 lua_bind_hash.o
                                         0x58 (size before relaxing)
 .eh_frame      0x000000000002d100       0xd8 l2c_imports.o
                                         0xe8 (size before relaxing)
 .eh_frame      0x000000000002d1d8      0x120 raygun_printer.o
                                        0x130 (size before relaxing)
 .eh_frame      0x000000000002d2f8       0x28 S:/UltimateEnvironment/code-mod-example/param-replace/code-mod-framework/lib/libnx_min/nx/lib\libnx_min.a(exception.o)
                                         0x40 (size before relaxing)
 .eh_frame      0x000000000002d320       0xa8 S:/UltimateEnvironment/code-mod-example/param-replace/code-mod-framework/lib/libnx_min/nx/lib\libnx_min.a(argv.o)
                                         0xb8 (size before relaxing)
 .eh_frame      0x000000000002d3c8      0x1c0 S:/UltimateEnvironment/code-mod-example/param-replace/code-mod-framework/lib/libnx_min/nx/lib\libnx_min.a(env.o)
                                        0x1d8 (size before relaxing)
 .eh_frame      0x000000000002d588       0x68 S:/UltimateEnvironment/code-mod-example/param-replace/code-mod-framework/lib/libnx_min/nx/lib\libnx_min.a(init.o)
                                         0xb8 (size before relaxing)
 .eh_frame      0x000000000002d5f0       0x28 S:/UltimateEnvironment/code-mod-example/param-replace/code-mod-framework/lib/libnx_min/nx/lib\libnx_min.a(hosversion.o)
                                         0x40 (size before relaxing)
 .eh_frame      0x000000000002d618       0x18 S:/UltimateEnvironment/code-mod-example/param-replace/code-mod-framework/lib/libnx_min/nx/lib\libnx_min.a(dynamic.o)
                                         0x30 (size before relaxing)
 .eh_frame      0x000000000002d630      0x800 S:/UltimateEnvironment/code-mod-example/param-replace/code-mod-framework/lib/libnx_min/nx/lib\libnx_min.a(fs_dev.o)
                                        0x818 (size before relaxing)
 .eh_frame      0x000000000002de30       0x18 S:/UltimateEnvironment/code-mod-example/param-replace/code-mod-framework/lib/libnx_min/nx/lib\libnx_min.a(decode_utf8.o)
                                         0x28 (size before relaxing)
 .eh_frame      0x000000000002de48      0x7d0 S:/UltimateEnvironment/code-mod-example/param-replace/code-mod-framework/lib/libnx_min/nx/lib\libnx_min.a(svc.o)
                                        0x7e8 (size before relaxing)
 .eh_frame      0x000000000002e618       0x18 S:/UltimateEnvironment/code-mod-example/param-replace/code-mod-framework/lib/libnx_min/nx/lib\libnx_min.a(readtp.o)
                                         0x28 (size before relaxing)
 .eh_frame      0x000000000002e630      0x108 S:/UltimateEnvironment/code-mod-example/param-replace/code-mod-framework/lib/libnx_min/nx/lib\libnx_min.a(virtmem.o)
                                        0x120 (size before relaxing)
 .eh_frame      0x000000000002e738       0xb0 S:/UltimateEnvironment/code-mod-example/param-replace/code-mod-framework/lib/libnx_min/nx/lib\libnx_min.a(mutex.o)
                                         0xc0 (size before relaxing)
 .eh_frame      0x000000000002e7e8      0xed0 S:/UltimateEnvironment/code-mod-example/param-replace/code-mod-framework/lib/libnx_min/nx/lib\libnx_min.a(fs.o)
                                        0xee0 (size before relaxing)
 .eh_frame      0x000000000002f6b8      0x540 S:/UltimateEnvironment/code-mod-example/param-replace/code-mod-framework/lib/libnx_min/nx/lib\libnx_min.a(set.o)
                                        0x550 (size before relaxing)
 .eh_frame      0x000000000002fbf8       0x70 S:/UltimateEnvironment/code-mod-example/param-replace/code-mod-framework/lib/libnx_min/nx/lib\libnx_min.a(fatal.o)
                                         0x88 (size before relaxing)
 .eh_frame      0x000000000002fc68      0x1d8 S:/UltimateEnvironment/code-mod-example/param-replace/code-mod-framework/lib/libnx_min/nx/lib\libnx_min.a(sm.o)
                                        0x1f0 (size before relaxing)
 .eh_frame      0x000000000002fe40      0xbe0 S:/UltimateEnvironment/code-mod-example/param-replace/code-mod-framework/lib/libnx_min/nx/lib\libnx_min.a(hid.o)
                                        0xbf0 (size before relaxing)
 .eh_frame      0x0000000000030a20      0x180 S:/UltimateEnvironment/code-mod-example/param-replace/code-mod-framework/lib/libnx_min/nx/lib\libnx_min.a(time.o)
                                        0x198 (size before relaxing)
 .eh_frame      0x0000000000030ba0     0x1448 S:/UltimateEnvironment/code-mod-example/param-replace/code-mod-framework/lib/libnx_min/nx/lib\libnx_min.a(applet.o)
                                       0x1458 (size before relaxing)
 .eh_frame      0x0000000000031fe8      0x408 S:/UltimateEnvironment/code-mod-example/param-replace/code-mod-framework/lib/libnx_min/nx/lib\libnx_min.a(newlib.o)
                                        0x420 (size before relaxing)
 .eh_frame      0x00000000000323f0      0x1b8 S:/UltimateEnvironment/code-mod-example/param-replace/code-mod-framework/lib/libnx_min/nx/lib\libnx_min.a(thread.o)
                                        0x1c8 (size before relaxing)
 .eh_frame      0x00000000000325a8       0x30 S:/UltimateEnvironment/code-mod-example/param-replace/code-mod-framework/lib/libnx_min/nx/lib\libnx_min.a(condvar.o)
                                         0x48 (size before relaxing)
 .eh_frame      0x00000000000325d8       0xb0 S:/UltimateEnvironment/code-mod-example/param-replace/code-mod-framework/lib/libnx_min/nx/lib\libnx_min.a(event.o)
                                         0xc0 (size before relaxing)
 .eh_frame      0x0000000000032688       0xf0 S:/UltimateEnvironment/code-mod-example/param-replace/code-mod-framework/lib/libnx_min/nx/lib\libnx_min.a(tmem.o)
                                        0x108 (size before relaxing)
 .eh_frame      0x0000000000032778       0xb0 S:/UltimateEnvironment/code-mod-example/param-replace/code-mod-framework/lib/libnx_min/nx/lib\libnx_min.a(rwlock.o)
                                         0xc0 (size before relaxing)
 .eh_frame      0x0000000000032828       0xb0 S:/UltimateEnvironment/code-mod-example/param-replace/code-mod-framework/lib/libnx_min/nx/lib\libnx_min.a(wait.o)
                                         0xc8 (size before relaxing)
 .eh_frame      0x00000000000328d8       0xb8 S:/UltimateEnvironment/code-mod-example/param-replace/code-mod-framework/lib/libnx_min/nx/lib\libnx_min.a(shmem.o)
                                         0xc8 (size before relaxing)
 .eh_frame      0x0000000000032990       0xc8 S:/UltimateEnvironment/code-mod-example/param-replace/code-mod-framework/lib/libnx_min/nx/lib\libnx_min.a(detect.o)
                                         0xd8 (size before relaxing)
 .eh_frame      0x0000000000032a58      0x110 S:/UltimateEnvironment/code-mod-example/param-replace/code-mod-framework/lib/libnx_min/nx/lib\libnx_min.a(apm.o)
                                        0x128 (size before relaxing)
 .eh_frame      0x0000000000032b68       0x68 c:/devkitpro/devkita64/bin/../lib/gcc/aarch64-none-elf/8.3.0/../../../../aarch64-none-elf/lib/pic\libg.a(lib_a-bsearch.o)
                                         0x78 (size before relaxing)
 .eh_frame      0x0000000000032bd0       0x18 c:/devkitpro/devkita64/bin/../lib/gcc/aarch64-none-elf/8.3.0/../../../../aarch64-none-elf/lib/pic\libg.a(lib_a-ctype_.o)
                                         0x28 (size before relaxing)
 .eh_frame      0x0000000000032be8       0x20 c:/devkitpro/devkita64/bin/../lib/gcc/aarch64-none-elf/8.3.0/../../../../aarch64-none-elf/lib/pic\libg.a(lib_a-errno.o)
                                         0x38 (size before relaxing)
 .eh_frame      0x0000000000032c08       0x20 c:/devkitpro/devkita64/bin/../lib/gcc/aarch64-none-elf/8.3.0/../../../../aarch64-none-elf/lib/pic\libg.a(lib_a-exit.o)
                                         0x30 (size before relaxing)
 .eh_frame      0x0000000000032c28       0x28 c:/devkitpro/devkita64/bin/../lib/gcc/aarch64-none-elf/8.3.0/../../../../aarch64-none-elf/lib/pic\libg.a(lib_a-fini.o)
                                         0x38 (size before relaxing)
 .eh_frame      0x0000000000032c50       0x28 c:/devkitpro/devkita64/bin/../lib/gcc/aarch64-none-elf/8.3.0/../../../../aarch64-none-elf/lib/pic\libg.a(lib_a-init.o)
                                         0x40 (size before relaxing)
 .eh_frame      0x0000000000032c78       0x28 c:/devkitpro/devkita64/bin/../lib/gcc/aarch64-none-elf/8.3.0/../../../../aarch64-none-elf/lib/pic\libg.a(lib_a-malign.o)
                                         0x38 (size before relaxing)
 .eh_frame      0x0000000000032ca0       0x50 c:/devkitpro/devkita64/bin/../lib/gcc/aarch64-none-elf/8.3.0/../../../../aarch64-none-elf/lib/pic\libg.a(lib_a-malignr.o)
                                         0x68 (size before relaxing)
 .eh_frame      0x0000000000032cf0       0x40 c:/devkitpro/devkita64/bin/../lib/gcc/aarch64-none-elf/8.3.0/../../../../aarch64-none-elf/lib/pic\libg.a(lib_a-malloc.o)
                                         0x58 (size before relaxing)
 .eh_frame      0x0000000000032d30       0xd0 c:/devkitpro/devkita64/bin/../lib/gcc/aarch64-none-elf/8.3.0/../../../../aarch64-none-elf/lib/pic\libg.a(lib_a-mallocr.o)
                                         0xe0 (size before relaxing)
 .eh_frame      0x0000000000032e00       0x28 c:/devkitpro/devkita64/bin/../lib/gcc/aarch64-none-elf/8.3.0/../../../../aarch64-none-elf/lib/pic\libg.a(lib_a-mlock.o)
                                         0x40 (size before relaxing)
 .eh_frame      0x0000000000032e28       0x48 c:/devkitpro/devkita64/bin/../lib/gcc/aarch64-none-elf/8.3.0/../../../../aarch64-none-elf/lib/pic\libg.a(lib_a-setenv.o)
                                         0x58 (size before relaxing)
 .eh_frame      0x0000000000032e70       0xb0 c:/devkitpro/devkita64/bin/../lib/gcc/aarch64-none-elf/8.3.0/../../../../aarch64-none-elf/lib/pic\libg.a(lib_a-setenv_r.o)
                                         0xc8 (size before relaxing)
 .eh_frame      0x0000000000032f20       0x18 c:/devkitpro/devkita64/bin/../lib/gcc/aarch64-none-elf/8.3.0/../../../../aarch64-none-elf/lib/pic\libg.a(lib_a-strncat.o)
                                         0x28 (size before relaxing)
 .eh_frame      0x0000000000032f38       0x18 c:/devkitpro/devkita64/bin/../lib/gcc/aarch64-none-elf/8.3.0/../../../../aarch64-none-elf/lib/pic\libg.a(lib_a-strncpy.o)
                                         0x28 (size before relaxing)
 .eh_frame      0x0000000000032f50       0x18 c:/devkitpro/devkita64/bin/../lib/gcc/aarch64-none-elf/8.3.0/../../../../aarch64-none-elf/lib/pic\libg.a(lib_a-toupper.o)
                                         0x28 (size before relaxing)
 .eh_frame      0x0000000000032f68       0x58 c:/devkitpro/devkita64/bin/../lib/gcc/aarch64-none-elf/8.3.0/../../../../aarch64-none-elf/lib/pic\libg.a(lib_a-vsnprintf.o)
                                         0x68 (size before relaxing)
 .eh_frame      0x0000000000032fc0       0x40 c:/devkitpro/devkita64/bin/../lib/gcc/aarch64-none-elf/8.3.0/../../../../aarch64-none-elf/lib/pic\libg.a(lib_a-__call_atexit.o)
                                         0x58 (size before relaxing)
 .eh_frame      0x0000000000033000       0x28 c:/devkitpro/devkita64/bin/../lib/gcc/aarch64-none-elf/8.3.0/../../../../aarch64-none-elf/lib/pic\libg.a(lib_a-envlock.o)
                                         0x40 (size before relaxing)
 .eh_frame      0x0000000000033028       0x80 c:/devkitpro/devkita64/bin/../lib/gcc/aarch64-none-elf/8.3.0/../../../../aarch64-none-elf/lib/pic\libg.a(lib_a-freer.o)
                                         0x98 (size before relaxing)
 .eh_frame      0x00000000000330a8       0x68 c:/devkitpro/devkita64/bin/../lib/gcc/aarch64-none-elf/8.3.0/../../../../aarch64-none-elf/lib/pic\libg.a(lib_a-getenv_r.o)
                                         0x78 (size before relaxing)
 .eh_frame      0x0000000000033110       0xf0 c:/devkitpro/devkita64/bin/../lib/gcc/aarch64-none-elf/8.3.0/../../../../aarch64-none-elf/lib/pic\libg.a(lib_a-reallocr.o)
                                        0x108 (size before relaxing)
 .eh_frame      0x0000000000033200       0xb8 c:/devkitpro/devkita64/bin/../lib/gcc/aarch64-none-elf/8.3.0/../../../../aarch64-none-elf/lib/pic\libg.a(lib_a-svfprintf.o)
                                         0xc8 (size before relaxing)
 .eh_frame      0x00000000000332b8       0x70 c:/devkitpro/devkita64/bin/../lib/gcc/aarch64-none-elf/8.3.0/../../../../aarch64-none-elf/lib/pic\libg.a(lib_a-wcrtomb.o)
                                         0x80 (size before relaxing)
 .eh_frame      0x0000000000033328       0x38 c:/devkitpro/devkita64/bin/../lib/gcc/aarch64-none-elf/8.3.0/../../../../aarch64-none-elf/lib/pic\libg.a(lib_a-wcsrtombs.o)
                                         0x50 (size before relaxing)
 .eh_frame      0x0000000000033360       0x98 c:/devkitpro/devkita64/bin/../lib/gcc/aarch64-none-elf/8.3.0/../../../../aarch64-none-elf/lib/pic\libg.a(lib_a-dtoa.o)
                                         0xb0 (size before relaxing)
 .eh_frame      0x00000000000333f8       0x58 c:/devkitpro/devkita64/bin/../lib/gcc/aarch64-none-elf/8.3.0/../../../../aarch64-none-elf/lib/pic\libg.a(lib_a-localeconv.o)
                                         0x68 (size before relaxing)
 .eh_frame      0x0000000000033450      0x200 c:/devkitpro/devkita64/bin/../lib/gcc/aarch64-none-elf/8.3.0/../../../../aarch64-none-elf/lib/pic\libg.a(lib_a-locale.o)
                                        0x210 (size before relaxing)
 .eh_frame      0x0000000000033650       0xf8 c:/devkitpro/devkita64/bin/../lib/gcc/aarch64-none-elf/8.3.0/../../../../aarch64-none-elf/lib/pic\libg.a(lib_a-mbtowc_r.o)
                                        0x110 (size before relaxing)
 .eh_frame      0x0000000000033748      0x2f8 c:/devkitpro/devkita64/bin/../lib/gcc/aarch64-none-elf/8.3.0/../../../../aarch64-none-elf/lib/pic\libg.a(lib_a-mprec.o)
                                        0x310 (size before relaxing)
 .eh_frame      0x0000000000033a40       0x18 c:/devkitpro/devkita64/bin/../lib/gcc/aarch64-none-elf/8.3.0/../../../../aarch64-none-elf/lib/pic\libg.a(lib_a-s_frexp.o)
                                         0x28 (size before relaxing)
 .eh_frame      0x0000000000033a58       0x18 c:/devkitpro/devkita64/bin/../lib/gcc/aarch64-none-elf/8.3.0/../../../../aarch64-none-elf/lib/pic\libg.a(lib_a-strcasecmp.o)
                                         0x28 (size before relaxing)
 .eh_frame      0x0000000000033a70       0x28 c:/devkitpro/devkita64/bin/../lib/gcc/aarch64-none-elf/8.3.0/../../../../aarch64-none-elf/lib/pic\libg.a(lib_a-strcat.o)
                                         0x38 (size before relaxing)
 .eh_frame      0x0000000000033a98       0x18 c:/devkitpro/devkita64/bin/../lib/gcc/aarch64-none-elf/8.3.0/../../../../aarch64-none-elf/lib/pic\libg.a(lib_a-strlcpy.o)
                                         0x28 (size before relaxing)
 .eh_frame      0x0000000000033ab0       0x18 c:/devkitpro/devkita64/bin/../lib/gcc/aarch64-none-elf/8.3.0/../../../../aarch64-none-elf/lib/pic\libg.a(lib_a-strncasecmp.o)
                                         0x28 (size before relaxing)
 .eh_frame      0x0000000000033ac8       0x80 c:/devkitpro/devkita64/bin/../lib/gcc/aarch64-none-elf/8.3.0/../../../../aarch64-none-elf/lib/pic\libg.a(lib_a-strtol.o)
                                         0x98 (size before relaxing)
 .eh_frame      0x0000000000033b48       0xe0 c:/devkitpro/devkita64/bin/../lib/gcc/aarch64-none-elf/8.3.0/../../../../aarch64-none-elf/lib/pic\libg.a(lib_a-svfiprintf.o)
                                         0xf8 (size before relaxing)
 .eh_frame      0x0000000000033c28      0x128 c:/devkitpro/devkita64/bin/../lib/gcc/aarch64-none-elf/8.3.0/../../../../aarch64-none-elf/lib/pic\libg.a(lib_a-wcsnrtombs.o)
                                        0x138 (size before relaxing)
 .eh_frame      0x0000000000033d50       0x88 c:/devkitpro/devkita64/bin/../lib/gcc/aarch64-none-elf/8.3.0/../../../../aarch64-none-elf/lib/pic\libg.a(lib_a-wctomb_r.o)
                                         0xa0 (size before relaxing)
 .eh_frame      0x0000000000033dd8       0x30 c:/devkitpro/devkita64/bin/../lib/gcc/aarch64-none-elf/8.3.0/../../../../aarch64-none-elf/lib/pic\libg.a(lib_a-callocr.o)
                                         0x40 (size before relaxing)
 .eh_frame      0x0000000000033e08      0x118 c:/devkitpro/devkita64/bin/../lib/gcc/aarch64-none-elf/8.3.0/../../../../aarch64-none-elf/lib/pic\libsysbase.a(iosupport.o)
                                        0x130 (size before relaxing)
 .eh_frame      0x0000000000033f20       0x18 c:/devkitpro/devkita64/bin/../lib/gcc/aarch64-none-elf/8.3.0/../../../../aarch64-none-elf/lib/pic\libsysbase.a(sbrk.o)
                                         0x28 (size before relaxing)
 .eh_frame      0x0000000000033f38       0x20 c:/devkitpro/devkita64/bin/../lib/gcc/aarch64-none-elf/8.3.0/../../../../aarch64-none-elf/lib/pic\libsysbase.a(_exit.o)
                                         0x38 (size before relaxing)
 .eh_frame      0x0000000000033f58      0x110 c:/devkitpro/devkita64/bin/../lib/gcc/aarch64-none-elf/8.3.0/../../../../aarch64-none-elf/lib/pic\libsysbase.a(chdir.o)
                                        0x128 (size before relaxing)
 .eh_frame      0x0000000000034068      0x168 c:/devkitpro/devkita64/bin/../lib/gcc/aarch64-none-elf/8.3.0/../../../../aarch64-none-elf/lib/pic\libsysbase.a(locks.o)
                                        0x178 (size before relaxing)
 .eh_frame      0x00000000000341d0       0x18 c:/devkitpro/devkita64/bin/../lib/gcc/aarch64-none-elf/8.3.0/../../../../aarch64-none-elf/lib/pic\libsysbase.a(getreent.o)
                                         0x28 (size before relaxing)
 .eh_frame      0x00000000000341e8       0x60 c:/devkitpro/devkita64/bin/../lib/gcc/aarch64-none-elf/8.3.0/../../../../aarch64-none-elf/lib/pic\libsysbase.a(clocks.o)
                                         0x78 (size before relaxing)
 .eh_frame      0x0000000000034248       0x20 c:/devkitpro/devkita64/bin/../lib/gcc/aarch64-none-elf/8.3.0/pic\libgcc.a(trunctfdf2.o)
                                         0x38 (size before relaxing)
 .eh_frame      0x0000000000034268       0x14 c:/devkitpro/devkita64/bin/../lib/gcc/aarch64-none-elf/8.3.0/pic\libgcc.a(sfp-exceptions.o)
                                         0x28 (size before relaxing)
 .eh_frame      0x000000000003427c        0x4 c:/devkitpro/devkita64/bin/../lib/gcc/aarch64-none-elf/8.3.0/pic/crtend.o
 *(.eh_frame.*)

.gcc_except_table
 *(.gcc_except_table .gcc_except_table.*)

.gnu_extab
 *(.gnu_extab*)

.dynamic        0x0000000000034280      0x1a0
 *(.dynamic)
 .dynamic       0x0000000000034280      0x1a0 c:/devkitpro/devkita64/bin/../lib/gcc/aarch64-none-elf/8.3.0/pic/crti.o
                0x0000000000034280                _DYNAMIC

.dynsym         0x0000000000034420     0x46f8
 *(.dynsym)
 .dynsym        0x0000000000034420     0x46f8 c:/devkitpro/devkita64/bin/../lib/gcc/aarch64-none-elf/8.3.0/pic/crti.o

.dynstr         0x0000000000038b18     0x3abb
 *(.dynstr)
 .dynstr        0x0000000000038b18     0x3abb c:/devkitpro/devkita64/bin/../lib/gcc/aarch64-none-elf/8.3.0/pic/crti.o

.rela.dyn       0x000000000003c5d8     0x3090
 *(.rela.*)
 .rela.got      0x000000000003c5d8      0xc78 c:/devkitpro/devkita64/bin/../lib/gcc/aarch64-none-elf/8.3.0/pic/crti.o
 .rela.plt      0x000000000003f5a8       0xc0 c:/devkitpro/devkita64/bin/../lib/gcc/aarch64-none-elf/8.3.0/pic/crti.o
 .rela.bss      0x000000000003d310        0x0 c:/devkitpro/devkita64/bin/../lib/gcc/aarch64-none-elf/8.3.0/pic/crti.o
 .rela.data.rel.ro
                0x000000000003d310        0x0 c:/devkitpro/devkita64/bin/../lib/gcc/aarch64-none-elf/8.3.0/pic/crti.o
 .rela.init_array
                0x000000000003d250       0x18 c:/devkitpro/devkita64/bin/../lib/gcc/aarch64-none-elf/8.3.0/pic/crti.o
 .rela.fini_array
                0x000000000003d268       0x18 c:/devkitpro/devkita64/bin/../lib/gcc/aarch64-none-elf/8.3.0/pic/crti.o
 .rela.ifunc    0x000000000003d340        0x0 c:/devkitpro/devkita64/bin/../lib/gcc/aarch64-none-elf/8.3.0/pic/crti.o
 .rela.data.rel.local
                0x000000000003d280      0x3c0 c:/devkitpro/devkita64/bin/../lib/gcc/aarch64-none-elf/8.3.0/pic/crti.o
 .rela.data.rel.ro.local.fsdev_devoptab
                0x000000000003d640      0x210 c:/devkitpro/devkita64/bin/../lib/gcc/aarch64-none-elf/8.3.0/pic/crti.o
 .rela.data.rel.local._impure_ptr
                0x000000000003d850       0x18 c:/devkitpro/devkita64/bin/../lib/gcc/aarch64-none-elf/8.3.0/pic/crti.o
 .rela.data.rel.local.impure_data
                0x000000000003d868       0x48 c:/devkitpro/devkita64/bin/../lib/gcc/aarch64-none-elf/8.3.0/pic/crti.o
 .rela.data.rel.ro.local._global_impure_ptr
                0x000000000003d8b0       0x18 c:/devkitpro/devkita64/bin/../lib/gcc/aarch64-none-elf/8.3.0/pic/crti.o
 .rela.data.rel.__malloc_av_
                0x000000000003d8c8     0x1800 c:/devkitpro/devkita64/bin/../lib/gcc/aarch64-none-elf/8.3.0/pic/crti.o
 .rela.data.rel.local.environ
                0x000000000003f0c8       0x18 c:/devkitpro/devkita64/bin/../lib/gcc/aarch64-none-elf/8.3.0/pic/crti.o
 .rela.data.rel.__global_locale
                0x000000000003f0e0      0x138 c:/devkitpro/devkita64/bin/../lib/gcc/aarch64-none-elf/8.3.0/pic/crti.o
 .rela.data.rel.ro.__C_locale
                0x000000000003f218      0x138 c:/devkitpro/devkita64/bin/../lib/gcc/aarch64-none-elf/8.3.0/pic/crti.o
 .rela.data.rel.ro.local.categories
                0x000000000003f350       0xa8 c:/devkitpro/devkita64/bin/../lib/gcc/aarch64-none-elf/8.3.0/pic/crti.o
 .rela.data.rel.devoptab_list
                0x000000000003f3f8      0x180 c:/devkitpro/devkita64/bin/../lib/gcc/aarch64-none-elf/8.3.0/pic/crti.o
 .rela.data.rel.ro.local.dotab_stdnull
                0x000000000003f578       0x30 c:/devkitpro/devkita64/bin/../lib/gcc/aarch64-none-elf/8.3.0/pic/crti.o

.interp         0x000000000003f668        0xd
 *(.interp)
 .interp        0x000000000003f668        0xd c:/devkitpro/devkita64/bin/../lib/gcc/aarch64-none-elf/8.3.0/pic/crti.o

.hash           0x000000000003f678     0x1400
 *(.hash)
 .hash          0x000000000003f678     0x1400 c:/devkitpro/devkita64/bin/../lib/gcc/aarch64-none-elf/8.3.0/pic/crti.o

.gnu.hash
 *(.gnu.hash)

.gnu.version    0x0000000000040a78        0x0
 *(.gnu.version)
 .gnu.version   0x0000000000040a78        0x0 c:/devkitpro/devkita64/bin/../lib/gcc/aarch64-none-elf/8.3.0/pic/crti.o

.gnu.version_d  0x0000000000040a78        0x0
 *(.gnu.version_d)
 .gnu.version_d
                0x0000000000040a78        0x0 c:/devkitpro/devkita64/bin/../lib/gcc/aarch64-none-elf/8.3.0/pic/crti.o

.gnu.version_r  0x0000000000040a78        0x0
 *(.gnu.version_r)
 .gnu.version_r
                0x0000000000040a78        0x0 c:/devkitpro/devkita64/bin/../lib/gcc/aarch64-none-elf/8.3.0/pic/crti.o

.note.gnu.build-id
                0x0000000000040a78       0x24
 *(.note.gnu.build-id)
 .note.gnu.build-id
                0x0000000000040a78       0x24 c:/devkitpro/devkita64/bin/../lib/gcc/aarch64-none-elf/8.3.0/pic/crti.o
                0x0000000000041000                . = ALIGN (0x1000)

.eh_frame
 *(.eh_frame)
 *(.eh_frame.*)

.gcc_except_table
 *(.gcc_except_table .gcc_except_table.*)

.gnu_extab
 *(.gnu_extab*)

.exception_ranges
 *(.exception_ranges .exception_ranges*)

.tdata          0x0000000000041000        0x0
                0x0000000000041000                __tdata_lma = .
 *(.tdata .tdata.* .gnu.linkonce.td.*)
                0x0000000000041000                . = ALIGN (0x8)
                0x0000000000041000                __tdata_lma_end = .

.tbss           0x0000000000041000     0x4408
 *(.tbss .tbss.* .gnu.linkonce.tb.*)
 .tbss.__fixedpath
                0x0000000000041000      0x401 S:/UltimateEnvironment/code-mod-example/param-replace/code-mod-framework/lib/libnx_min/nx/lib\libnx_min.a(fs_dev.o)
 *fill*         0x0000000000041401        0x3 
 .tbss.fsdev_last_result
                0x0000000000041404        0x4 S:/UltimateEnvironment/code-mod-example/param-replace/code-mod-framework/lib/libnx_min/nx/lib\libnx_min.a(fs_dev.o)
 .tbss.tmp_buffer.7389
                0x0000000000041408     0x2000 S:/UltimateEnvironment/code-mod-example/param-replace/code-mod-framework/lib/libnx_min/nx/lib\libnx_min.a(fs_dev.o)
 .tbss.tmp_buffer.7413
                0x0000000000043408     0x2000 S:/UltimateEnvironment/code-mod-example/param-replace/code-mod-framework/lib/libnx_min/nx/lib\libnx_min.a(fs_dev.o)
 *(.tcommon)
                0x0000000000045408                . = ALIGN (0x8)

.preinit_array  0x0000000000041000        0x0
                0x0000000000041000                PROVIDE (__preinit_array_start = .)
 *(.preinit_array)
                0x0000000000041000                PROVIDE (__preinit_array_end = .)

.init_array     0x0000000000041000        0x8
                0x0000000000041000                PROVIDE (__init_array_start = .)
 *(SORT_BY_NAME(.init_array.*))
 *(.init_array)
 .init_array    0x0000000000041000        0x8 c:/devkitpro/devkita64/bin/../lib/gcc/aarch64-none-elf/8.3.0/pic/crtbegin.o
                0x0000000000041008                PROVIDE (__init_array_end = .)

.fini_array     0x0000000000041008        0x8
                0x0000000000041008                PROVIDE (__fini_array_start = .)
 *(.fini_array)
 .fini_array    0x0000000000041008        0x8 c:/devkitpro/devkita64/bin/../lib/gcc/aarch64-none-elf/8.3.0/pic/crtbegin.o
 *(SORT_BY_NAME(.fini_array.*))
                0x0000000000041010                PROVIDE (__fini_array_end = .)

.ctors
 *crtbegin.o(.ctors)
 *(EXCLUDE_FILE(*crtend.o) .ctors)
 *(SORT_BY_NAME(.ctors.*))
 *(.ctors)

.dtors
 *crtbegin.o(.dtors)
 *(EXCLUDE_FILE(*crtend.o) .dtors)
 *(SORT_BY_NAME(.dtors.*))
 *(.dtors)
                0x0000000000041010                __got_start__ = .

.got            0x0000000000041010      0x430
 *(.got)
 .got           0x0000000000041010      0x430 c:/devkitpro/devkita64/bin/../lib/gcc/aarch64-none-elf/8.3.0/pic/crti.o
                0x0000000000041010                _GLOBAL_OFFSET_TABLE_
 *(.igot)

.got.plt        0x0000000000041440       0x58
 *(.got.plt)
 .got.plt       0x0000000000041440       0x58 c:/devkitpro/devkita64/bin/../lib/gcc/aarch64-none-elf/8.3.0/pic/crti.o
 *(.igot.plt)
                0x0000000000041498                __got_end__ = .

.data           0x0000000000041498     0x1ef8
 *(.data .data.* .gnu.linkonce.d.*)
 .data.rel.ro   0x0000000000041498        0x0 c:/devkitpro/devkita64/bin/../lib/gcc/aarch64-none-elf/8.3.0/pic/crti.o
 .data          0x0000000000041498        0x4 main.o
                0x0000000000041498                __nx_applet_type
 *fill*         0x000000000004149c        0x4 
 .data.rel.local
                0x00000000000414a0      0x140 raygun_printer.o
                0x00000000000414a0                alphabet
 .data.__nx_exception_stack_size
                0x00000000000415e0        0x8 S:/UltimateEnvironment/code-mod-example/param-replace/code-mod-framework/lib/libnx_min/nx/lib\libnx_min.a(init.o)
                0x00000000000415e0                __nx_exception_stack_size
 .data.__cwd    0x00000000000415e8      0x401 S:/UltimateEnvironment/code-mod-example/param-replace/code-mod-framework/lib/libnx_min/nx/lib\libnx_min.a(fs_dev.o)
 *fill*         0x00000000000419e9        0x3 
 .data.fsdev_fsdevice_cwd
                0x00000000000419ec        0x4 S:/UltimateEnvironment/code-mod-example/param-replace/code-mod-framework/lib/libnx_min/nx/lib\libnx_min.a(fs_dev.o)
 .data.fsdev_fsdevice_default
                0x00000000000419f0        0x4 S:/UltimateEnvironment/code-mod-example/param-replace/code-mod-framework/lib/libnx_min/nx/lib\libnx_min.a(fs_dev.o)
 *fill*         0x00000000000419f4        0x4 
 .data.rel.ro.local.fsdev_devoptab
                0x00000000000419f8       0xe0 S:/UltimateEnvironment/code-mod-example/param-replace/code-mod-framework/lib/libnx_min/nx/lib\libnx_min.a(fs_dev.o)
 .data.__nx_applet_auto_notifyrunning
                0x0000000000041ad8        0x1 S:/UltimateEnvironment/code-mod-example/param-replace/code-mod-framework/lib/libnx_min/nx/lib\libnx_min.a(applet.o)
                0x0000000000041ad8                __nx_applet_auto_notifyrunning
 *fill*         0x0000000000041ad9        0x7 
 .data.rel.local._impure_ptr
                0x0000000000041ae0        0x8 c:/devkitpro/devkita64/bin/../lib/gcc/aarch64-none-elf/8.3.0/../../../../aarch64-none-elf/lib/pic\libg.a(lib_a-impure.o)
                0x0000000000041ae0                _impure_ptr
 .data.rel.local.impure_data
                0x0000000000041ae8      0x768 c:/devkitpro/devkita64/bin/../lib/gcc/aarch64-none-elf/8.3.0/../../../../aarch64-none-elf/lib/pic\libg.a(lib_a-impure.o)
 .data.rel.ro.local._global_impure_ptr
                0x0000000000042250        0x8 c:/devkitpro/devkita64/bin/../lib/gcc/aarch64-none-elf/8.3.0/../../../../aarch64-none-elf/lib/pic\libg.a(lib_a-impure.o)
                0x0000000000042250                _global_impure_ptr
 .data.__malloc_sbrk_base
                0x0000000000042258        0x8 c:/devkitpro/devkita64/bin/../lib/gcc/aarch64-none-elf/8.3.0/../../../../aarch64-none-elf/lib/pic\libg.a(lib_a-mallocr.o)
                0x0000000000042258                __malloc_sbrk_base
 .data.__malloc_trim_threshold
                0x0000000000042260        0x8 c:/devkitpro/devkita64/bin/../lib/gcc/aarch64-none-elf/8.3.0/../../../../aarch64-none-elf/lib/pic\libg.a(lib_a-mallocr.o)
                0x0000000000042260                __malloc_trim_threshold
 .data.rel.__malloc_av_
                0x0000000000042268      0x810 c:/devkitpro/devkita64/bin/../lib/gcc/aarch64-none-elf/8.3.0/../../../../aarch64-none-elf/lib/pic\libg.a(lib_a-mallocr.o)
                0x0000000000042268                __malloc_av_
 .data.rel.local.environ
                0x0000000000042a78        0x8 c:/devkitpro/devkita64/bin/../lib/gcc/aarch64-none-elf/8.3.0/../../../../aarch64-none-elf/lib/pic\libg.a(lib_a-environ.o)
                0x0000000000042a78                environ
 .data.__default_locale
                0x0000000000042a80       0x20 c:/devkitpro/devkita64/bin/../lib/gcc/aarch64-none-elf/8.3.0/../../../../aarch64-none-elf/lib/pic\libg.a(lib_a-locale.o)
                0x0000000000042a80                __default_locale
 .data.rel.__global_locale
                0x0000000000042aa0      0x1a8 c:/devkitpro/devkita64/bin/../lib/gcc/aarch64-none-elf/8.3.0/../../../../aarch64-none-elf/lib/pic\libg.a(lib_a-locale.o)
                0x0000000000042aa0                __global_locale
 .data.rel.ro.__C_locale
                0x0000000000042c48      0x1a8 c:/devkitpro/devkita64/bin/../lib/gcc/aarch64-none-elf/8.3.0/../../../../aarch64-none-elf/lib/pic\libg.a(lib_a-locale.o)
                0x0000000000042c48                __C_locale
 .data.rel.ro.local.categories
                0x0000000000042df0       0x38 c:/devkitpro/devkita64/bin/../lib/gcc/aarch64-none-elf/8.3.0/../../../../aarch64-none-elf/lib/pic\libg.a(lib_a-locale.o)
 .data.defaultDevice
                0x0000000000042e28        0x4 c:/devkitpro/devkita64/bin/../lib/gcc/aarch64-none-elf/8.3.0/../../../../aarch64-none-elf/lib/pic\libsysbase.a(iosupport.o)
 *fill*         0x0000000000042e2c        0x4 
 .data.rel.devoptab_list
                0x0000000000042e30       0x80 c:/devkitpro/devkita64/bin/../lib/gcc/aarch64-none-elf/8.3.0/../../../../aarch64-none-elf/lib/pic\libsysbase.a(iosupport.o)
                0x0000000000042e30                devoptab_list
 .data.rel.ro.local.dotab_stdnull
                0x0000000000042eb0       0xe0 c:/devkitpro/devkita64/bin/../lib/gcc/aarch64-none-elf/8.3.0/../../../../aarch64-none-elf/lib/pic\libsysbase.a(iosupport.o)
                0x0000000000042eb0                dotab_stdnull
 .data._current_working_directory
                0x0000000000042f90      0x400 c:/devkitpro/devkita64/bin/../lib/gcc/aarch64-none-elf/8.3.0/../../../../aarch64-none-elf/lib/pic\libsysbase.a(chdir.o)
                0x0000000000043390                __bss_start__ = .

.tm_clone_table
                0x0000000000043390        0x0
 .tm_clone_table
                0x0000000000043390        0x0 c:/devkitpro/devkita64/bin/../lib/gcc/aarch64-none-elf/8.3.0/pic/crtbegin.o
 .tm_clone_table
                0x0000000000043390        0x0 c:/devkitpro/devkita64/bin/../lib/gcc/aarch64-none-elf/8.3.0/pic/crtend.o

.bss            0x0000000000043390    0x157e0
 *(.dynbss)
 .dynbss        0x0000000000043390        0x0 c:/devkitpro/devkita64/bin/../lib/gcc/aarch64-none-elf/8.3.0/pic/crti.o
 *(.bss .bss.* .gnu.linkonce.b.*)
 .bss.completed.7870
                0x0000000000043390        0x1 c:/devkitpro/devkita64/bin/../lib/gcc/aarch64-none-elf/8.3.0/pic/crtbegin.o
 *fill*         0x0000000000043391        0x7 
 .bss.object.7875
                0x0000000000043398       0x30 c:/devkitpro/devkita64/bin/../lib/gcc/aarch64-none-elf/8.3.0/pic/crtbegin.o
 .bss           0x00000000000433c8     0x8020 main.o
                0x00000000000433c8                suicide_bomb_acmd_game
                0x00000000000433d0                orig_ctx
                0x00000000000433d8                orig_main_thread
                0x00000000000433e0                orig_saved_lr
 .bss           0x000000000004b3e8        0x8 saltysd_helper.o
                0x000000000004b3e8                ANCHOR_ABS
 .bss.g_argv_empty
                0x000000000004b3f0        0x8 S:/UltimateEnvironment/code-mod-example/param-replace/code-mod-framework/lib/libnx_min/nx/lib\libnx_min.a(argv.o)
 .bss.g_hasRandomSeed
                0x000000000004b3f8        0x1 S:/UltimateEnvironment/code-mod-example/param-replace/code-mod-framework/lib/libnx_min/nx/lib\libnx_min.a(env.o)
 .bss.g_isNso   0x000000000004b3f9        0x1 S:/UltimateEnvironment/code-mod-example/param-replace/code-mod-framework/lib/libnx_min/nx/lib\libnx_min.a(env.o)
 *fill*         0x000000000004b3fa        0x2 
 .bss.g_lastLoadResult
                0x000000000004b3fc        0x4 S:/UltimateEnvironment/code-mod-example/param-replace/code-mod-framework/lib/libnx_min/nx/lib\libnx_min.a(env.o)
 .bss.g_loaderRetAddr
                0x000000000004b400        0x8 S:/UltimateEnvironment/code-mod-example/param-replace/code-mod-framework/lib/libnx_min/nx/lib\libnx_min.a(env.o)
 .bss.g_mainThreadHandle
                0x000000000004b408        0x4 S:/UltimateEnvironment/code-mod-example/param-replace/code-mod-framework/lib/libnx_min/nx/lib\libnx_min.a(env.o)
 *fill*         0x000000000004b40c        0x4 
 .bss.g_nextLoadArgv
                0x000000000004b410        0x8 S:/UltimateEnvironment/code-mod-example/param-replace/code-mod-framework/lib/libnx_min/nx/lib\libnx_min.a(env.o)
 .bss.g_nextLoadPath
                0x000000000004b418        0x8 S:/UltimateEnvironment/code-mod-example/param-replace/code-mod-framework/lib/libnx_min/nx/lib\libnx_min.a(env.o)
 .bss.g_overrideArgv
                0x000000000004b420        0x8 S:/UltimateEnvironment/code-mod-example/param-replace/code-mod-framework/lib/libnx_min/nx/lib\libnx_min.a(env.o)
 .bss.g_overrideHeapAddr
                0x000000000004b428        0x8 S:/UltimateEnvironment/code-mod-example/param-replace/code-mod-framework/lib/libnx_min/nx/lib\libnx_min.a(env.o)
 .bss.g_overrideHeapSize
                0x000000000004b430        0x8 S:/UltimateEnvironment/code-mod-example/param-replace/code-mod-framework/lib/libnx_min/nx/lib\libnx_min.a(env.o)
 .bss.g_processHandle
                0x000000000004b438        0x4 S:/UltimateEnvironment/code-mod-example/param-replace/code-mod-framework/lib/libnx_min/nx/lib\libnx_min.a(env.o)
 *fill*         0x000000000004b43c        0x4 
 .bss.g_randomSeed
                0x000000000004b440       0x10 S:/UltimateEnvironment/code-mod-example/param-replace/code-mod-framework/lib/libnx_min/nx/lib\libnx_min.a(env.o)
 .bss.g_syscallHints
                0x000000000004b450       0x10 S:/UltimateEnvironment/code-mod-example/param-replace/code-mod-framework/lib/libnx_min/nx/lib\libnx_min.a(env.o)
 .bss.__nx_exception_ignoredebug
                0x000000000004b460        0x4 S:/UltimateEnvironment/code-mod-example/param-replace/code-mod-framework/lib/libnx_min/nx/lib\libnx_min.a(init.o)
                0x000000000004b460                __nx_exception_ignoredebug
 *fill*         0x000000000004b464        0xc 
 .bss.__nx_exception_stack
                0x000000000004b470      0x400 S:/UltimateEnvironment/code-mod-example/param-replace/code-mod-framework/lib/libnx_min/nx/lib\libnx_min.a(init.o)
                0x000000000004b470                __nx_exception_stack
 .bss.__nx_heap_size
                0x000000000004b870        0x8 S:/UltimateEnvironment/code-mod-example/param-replace/code-mod-framework/lib/libnx_min/nx/lib\libnx_min.a(init.o)
                0x000000000004b870                __nx_heap_size
 .bss.g_hosVersion
                0x000000000004b878        0x4 S:/UltimateEnvironment/code-mod-example/param-replace/code-mod-framework/lib/libnx_min/nx/lib\libnx_min.a(hosversion.o)
 *fill*         0x000000000004b87c        0x4 
 .bss.fsdev_fsdevices
                0x000000000004b880     0x2300 S:/UltimateEnvironment/code-mod-example/param-replace/code-mod-framework/lib/libnx_min/nx/lib\libnx_min.a(fs_dev.o)
 .bss.fsdev_initialised
                0x000000000004db80        0x1 S:/UltimateEnvironment/code-mod-example/param-replace/code-mod-framework/lib/libnx_min/nx/lib\libnx_min.a(fs_dev.o)
 *fill*         0x000000000004db81        0x7 
 .bss.g_AddressSpace
                0x000000000004db88       0x10 S:/UltimateEnvironment/code-mod-example/param-replace/code-mod-framework/lib/libnx_min/nx/lib\libnx_min.a(virtmem.o)
 .bss.g_CurrentAddr
                0x000000000004db98        0x8 S:/UltimateEnvironment/code-mod-example/param-replace/code-mod-framework/lib/libnx_min/nx/lib\libnx_min.a(virtmem.o)
 .bss.g_CurrentMapAddr
                0x000000000004dba0        0x8 S:/UltimateEnvironment/code-mod-example/param-replace/code-mod-framework/lib/libnx_min/nx/lib\libnx_min.a(virtmem.o)
 .bss.g_Region  0x000000000004dba8       0x30 S:/UltimateEnvironment/code-mod-example/param-replace/code-mod-framework/lib/libnx_min/nx/lib\libnx_min.a(virtmem.o)
 .bss.g_VirtMemMutex
                0x000000000004dbd8        0x4 S:/UltimateEnvironment/code-mod-example/param-replace/code-mod-framework/lib/libnx_min/nx/lib\libnx_min.a(virtmem.o)
 *fill*         0x000000000004dbdc        0x4 
 .bss.g_fsSrv   0x000000000004dbe0        0xc S:/UltimateEnvironment/code-mod-example/param-replace/code-mod-framework/lib/libnx_min/nx/lib\libnx_min.a(fs.o)
 *fill*         0x000000000004dbec        0x4 
 .bss.g_refCnt  0x000000000004dbf0        0x8 S:/UltimateEnvironment/code-mod-example/param-replace/code-mod-framework/lib/libnx_min/nx/lib\libnx_min.a(fs.o)
 .bss.g_refCnt  0x000000000004dbf8        0x8 S:/UltimateEnvironment/code-mod-example/param-replace/code-mod-framework/lib/libnx_min/nx/lib\libnx_min.a(set.o)
 .bss.g_refCntSys
                0x000000000004dc00        0x8 S:/UltimateEnvironment/code-mod-example/param-replace/code-mod-framework/lib/libnx_min/nx/lib\libnx_min.a(set.o)
 .bss.g_setLanguageCodes
                0x000000000004dc08      0x200 S:/UltimateEnvironment/code-mod-example/param-replace/code-mod-framework/lib/libnx_min/nx/lib\libnx_min.a(set.o)
 .bss.g_setLanguageCodesInitialized
                0x000000000004de08        0x1 S:/UltimateEnvironment/code-mod-example/param-replace/code-mod-framework/lib/libnx_min/nx/lib\libnx_min.a(set.o)
 *fill*         0x000000000004de09        0x3 
 .bss.g_setLanguageCodesTotal
                0x000000000004de0c        0x4 S:/UltimateEnvironment/code-mod-example/param-replace/code-mod-framework/lib/libnx_min/nx/lib\libnx_min.a(set.o)
 .bss.g_setSrv  0x000000000004de10        0xc S:/UltimateEnvironment/code-mod-example/param-replace/code-mod-framework/lib/libnx_min/nx/lib\libnx_min.a(set.o)
 *fill*         0x000000000004de1c        0x4 
 .bss.g_setsysSrv
                0x000000000004de20        0xc S:/UltimateEnvironment/code-mod-example/param-replace/code-mod-framework/lib/libnx_min/nx/lib\libnx_min.a(set.o)
 *fill*         0x000000000004de2c        0x4 
 .bss.g_refCnt  0x000000000004de30        0x8 S:/UltimateEnvironment/code-mod-example/param-replace/code-mod-framework/lib/libnx_min/nx/lib\libnx_min.a(sm.o)
 .bss.g_smOverrides
                0x000000000004de38      0x200 S:/UltimateEnvironment/code-mod-example/param-replace/code-mod-framework/lib/libnx_min/nx/lib\libnx_min.a(sm.o)
 .bss.g_smOverridesNum
                0x000000000004e038        0x8 S:/UltimateEnvironment/code-mod-example/param-replace/code-mod-framework/lib/libnx_min/nx/lib\libnx_min.a(sm.o)
 .bss.g_smSrv   0x000000000004e040        0xc S:/UltimateEnvironment/code-mod-example/param-replace/code-mod-framework/lib/libnx_min/nx/lib\libnx_min.a(sm.o)
 *fill*         0x000000000004e04c        0x4 
 .bss.g_controllerDown
                0x000000000004e050       0x50 S:/UltimateEnvironment/code-mod-example/param-replace/code-mod-framework/lib/libnx_min/nx/lib\libnx_min.a(hid.o)
 .bss.g_controllerEntries
                0x000000000004e0a0      0x1e0 S:/UltimateEnvironment/code-mod-example/param-replace/code-mod-framework/lib/libnx_min/nx/lib\libnx_min.a(hid.o)
 .bss.g_controllerHeaders
                0x000000000004e280      0x190 S:/UltimateEnvironment/code-mod-example/param-replace/code-mod-framework/lib/libnx_min/nx/lib\libnx_min.a(hid.o)
 .bss.g_controllerHeld
                0x000000000004e410       0x50 S:/UltimateEnvironment/code-mod-example/param-replace/code-mod-framework/lib/libnx_min/nx/lib\libnx_min.a(hid.o)
 .bss.g_controllerLayout
                0x000000000004e460       0x28 S:/UltimateEnvironment/code-mod-example/param-replace/code-mod-framework/lib/libnx_min/nx/lib\libnx_min.a(hid.o)
 .bss.g_controllerMisc
                0x000000000004e488      0x500 S:/UltimateEnvironment/code-mod-example/param-replace/code-mod-framework/lib/libnx_min/nx/lib\libnx_min.a(hid.o)
 .bss.g_controllerOld
                0x000000000004e988       0x50 S:/UltimateEnvironment/code-mod-example/param-replace/code-mod-framework/lib/libnx_min/nx/lib\libnx_min.a(hid.o)
 .bss.g_controllerP1AutoID
                0x000000000004e9d8        0x4 S:/UltimateEnvironment/code-mod-example/param-replace/code-mod-framework/lib/libnx_min/nx/lib\libnx_min.a(hid.o)
 *fill*         0x000000000004e9dc        0x4 
 .bss.g_controllerTimestamps
                0x000000000004e9e0       0x50 S:/UltimateEnvironment/code-mod-example/param-replace/code-mod-framework/lib/libnx_min/nx/lib\libnx_min.a(hid.o)
 .bss.g_controllerUp
                0x000000000004ea30       0x50 S:/UltimateEnvironment/code-mod-example/param-replace/code-mod-framework/lib/libnx_min/nx/lib\libnx_min.a(hid.o)
 .bss.g_hidIAppletResource
                0x000000000004ea80        0xc S:/UltimateEnvironment/code-mod-example/param-replace/code-mod-framework/lib/libnx_min/nx/lib\libnx_min.a(hid.o)
 *fill*         0x000000000004ea8c        0x4 
 .bss.g_hidLock
                0x000000000004ea90       0x10 S:/UltimateEnvironment/code-mod-example/param-replace/code-mod-framework/lib/libnx_min/nx/lib\libnx_min.a(hid.o)
 .bss.g_hidSharedmem
                0x000000000004eaa0       0x20 S:/UltimateEnvironment/code-mod-example/param-replace/code-mod-framework/lib/libnx_min/nx/lib\libnx_min.a(hid.o)
 .bss.g_hidSrv  0x000000000004eac0        0xc S:/UltimateEnvironment/code-mod-example/param-replace/code-mod-framework/lib/libnx_min/nx/lib\libnx_min.a(hid.o)
 *fill*         0x000000000004eacc        0x4 
 .bss.g_keyboardDown
                0x000000000004ead0       0x20 S:/UltimateEnvironment/code-mod-example/param-replace/code-mod-framework/lib/libnx_min/nx/lib\libnx_min.a(hid.o)
 .bss.g_keyboardEntry
                0x000000000004eaf0       0x38 S:/UltimateEnvironment/code-mod-example/param-replace/code-mod-framework/lib/libnx_min/nx/lib\libnx_min.a(hid.o)
 .bss.g_keyboardHeld
                0x000000000004eb28       0x20 S:/UltimateEnvironment/code-mod-example/param-replace/code-mod-framework/lib/libnx_min/nx/lib\libnx_min.a(hid.o)
 .bss.g_keyboardModDown
                0x000000000004eb48        0x8 S:/UltimateEnvironment/code-mod-example/param-replace/code-mod-framework/lib/libnx_min/nx/lib\libnx_min.a(hid.o)
 .bss.g_keyboardModHeld
                0x000000000004eb50        0x8 S:/UltimateEnvironment/code-mod-example/param-replace/code-mod-framework/lib/libnx_min/nx/lib\libnx_min.a(hid.o)
 .bss.g_keyboardModOld
                0x000000000004eb58        0x8 S:/UltimateEnvironment/code-mod-example/param-replace/code-mod-framework/lib/libnx_min/nx/lib\libnx_min.a(hid.o)
 .bss.g_keyboardModUp
                0x000000000004eb60        0x8 S:/UltimateEnvironment/code-mod-example/param-replace/code-mod-framework/lib/libnx_min/nx/lib\libnx_min.a(hid.o)
 .bss.g_keyboardOld
                0x000000000004eb68       0x20 S:/UltimateEnvironment/code-mod-example/param-replace/code-mod-framework/lib/libnx_min/nx/lib\libnx_min.a(hid.o)
 .bss.g_keyboardTimestamp
                0x000000000004eb88        0x8 S:/UltimateEnvironment/code-mod-example/param-replace/code-mod-framework/lib/libnx_min/nx/lib\libnx_min.a(hid.o)
 .bss.g_keyboardUp
                0x000000000004eb90       0x20 S:/UltimateEnvironment/code-mod-example/param-replace/code-mod-framework/lib/libnx_min/nx/lib\libnx_min.a(hid.o)
 .bss.g_mouse   0x000000000004ebb0      0x400 S:/UltimateEnvironment/code-mod-example/param-replace/code-mod-framework/lib/libnx_min/nx/lib\libnx_min.a(hid.o)
 .bss.g_mouseDown
                0x000000000004efb0        0x8 S:/UltimateEnvironment/code-mod-example/param-replace/code-mod-framework/lib/libnx_min/nx/lib\libnx_min.a(hid.o)
 .bss.g_mouseEntry
                0x000000000004efb8        0x8 S:/UltimateEnvironment/code-mod-example/param-replace/code-mod-framework/lib/libnx_min/nx/lib\libnx_min.a(hid.o)
 .bss.g_mouseHeld
                0x000000000004efc0        0x8 S:/UltimateEnvironment/code-mod-example/param-replace/code-mod-framework/lib/libnx_min/nx/lib\libnx_min.a(hid.o)
 .bss.g_mouseOld
                0x000000000004efc8        0x8 S:/UltimateEnvironment/code-mod-example/param-replace/code-mod-framework/lib/libnx_min/nx/lib\libnx_min.a(hid.o)
 .bss.g_mouseTimestamp
                0x000000000004efd0        0x8 S:/UltimateEnvironment/code-mod-example/param-replace/code-mod-framework/lib/libnx_min/nx/lib\libnx_min.a(hid.o)
 .bss.g_mouseUp
                0x000000000004efd8        0x8 S:/UltimateEnvironment/code-mod-example/param-replace/code-mod-framework/lib/libnx_min/nx/lib\libnx_min.a(hid.o)
 .bss.g_refCnt  0x000000000004efe0        0x8 S:/UltimateEnvironment/code-mod-example/param-replace/code-mod-framework/lib/libnx_min/nx/lib\libnx_min.a(hid.o)
 .bss.g_sevenSixAxisSensorBuffer
                0x000000000004efe8        0x8 S:/UltimateEnvironment/code-mod-example/param-replace/code-mod-framework/lib/libnx_min/nx/lib\libnx_min.a(hid.o)
 .bss.g_sevenSixAxisSensorTmem0
                0x000000000004eff0       0x28 S:/UltimateEnvironment/code-mod-example/param-replace/code-mod-framework/lib/libnx_min/nx/lib\libnx_min.a(hid.o)
 .bss.g_sevenSixAxisSensorTmem1
                0x000000000004f018       0x28 S:/UltimateEnvironment/code-mod-example/param-replace/code-mod-framework/lib/libnx_min/nx/lib\libnx_min.a(hid.o)
 .bss.g_sixaxisEnabled
                0x000000000004f040        0xa S:/UltimateEnvironment/code-mod-example/param-replace/code-mod-framework/lib/libnx_min/nx/lib\libnx_min.a(hid.o)
 *fill*         0x000000000004f04a        0x6 
 .bss.g_sixaxisLayouts
                0x000000000004f050     0x4650 S:/UltimateEnvironment/code-mod-example/param-replace/code-mod-framework/lib/libnx_min/nx/lib\libnx_min.a(hid.o)
 .bss.g_touchEntry
                0x00000000000536a0      0x298 S:/UltimateEnvironment/code-mod-example/param-replace/code-mod-framework/lib/libnx_min/nx/lib\libnx_min.a(hid.o)
 .bss.g_touchTimestamp
                0x0000000000053938        0x8 S:/UltimateEnvironment/code-mod-example/param-replace/code-mod-framework/lib/libnx_min/nx/lib\libnx_min.a(hid.o)
 .bss.g_refCnt  0x0000000000053940        0x8 S:/UltimateEnvironment/code-mod-example/param-replace/code-mod-framework/lib/libnx_min/nx/lib\libnx_min.a(time.o)
 .bss.g_timeLocalSystemClock
                0x0000000000053948        0xc S:/UltimateEnvironment/code-mod-example/param-replace/code-mod-framework/lib/libnx_min/nx/lib\libnx_min.a(time.o)
 *fill*         0x0000000000053954        0x4 
 .bss.g_timeNetworkSystemClock
                0x0000000000053958        0xc S:/UltimateEnvironment/code-mod-example/param-replace/code-mod-framework/lib/libnx_min/nx/lib\libnx_min.a(time.o)
 *fill*         0x0000000000053964        0x4 
 .bss.g_timeSrv
                0x0000000000053968        0xc S:/UltimateEnvironment/code-mod-example/param-replace/code-mod-framework/lib/libnx_min/nx/lib\libnx_min.a(time.o)
 *fill*         0x0000000000053974        0x4 
 .bss.g_timeTimeZoneService
                0x0000000000053978        0xc S:/UltimateEnvironment/code-mod-example/param-replace/code-mod-framework/lib/libnx_min/nx/lib\libnx_min.a(time.o)
 *fill*         0x0000000000053984        0x4 
 .bss.g_timeUserSystemClock
                0x0000000000053988        0xc S:/UltimateEnvironment/code-mod-example/param-replace/code-mod-framework/lib/libnx_min/nx/lib\libnx_min.a(time.o)
 *fill*         0x0000000000053994        0x4 
 .bss.__nx_applet_AppletAttribute
                0x0000000000053998       0x80 S:/UltimateEnvironment/code-mod-example/param-replace/code-mod-framework/lib/libnx_min/nx/lib\libnx_min.a(applet.o)
                0x0000000000053998                __nx_applet_AppletAttribute
 .bss.__nx_applet_PerformanceConfiguration
                0x0000000000053a18        0x8 S:/UltimateEnvironment/code-mod-example/param-replace/code-mod-framework/lib/libnx_min/nx/lib\libnx_min.a(applet.o)
                0x0000000000053a18                __nx_applet_PerformanceConfiguration
 .bss.__nx_applet_exit_mode
                0x0000000000053a20        0x4 S:/UltimateEnvironment/code-mod-example/param-replace/code-mod-framework/lib/libnx_min/nx/lib\libnx_min.a(applet.o)
                0x0000000000053a20                __nx_applet_exit_mode
 .bss.g_appletCpuBoostMode
                0x0000000000053a24        0x4 S:/UltimateEnvironment/code-mod-example/param-replace/code-mod-framework/lib/libnx_min/nx/lib\libnx_min.a(applet.o)
 .bss.g_appletExitProcessFlag
                0x0000000000053a28        0x1 S:/UltimateEnvironment/code-mod-example/param-replace/code-mod-framework/lib/libnx_min/nx/lib\libnx_min.a(applet.o)
 *fill*         0x0000000000053a29        0x7 
 .bss.g_appletFirstHook
                0x0000000000053a30       0x18 S:/UltimateEnvironment/code-mod-example/param-replace/code-mod-framework/lib/libnx_min/nx/lib\libnx_min.a(applet.o)
 .bss.g_appletFocusState
                0x0000000000053a48        0x1 S:/UltimateEnvironment/code-mod-example/param-replace/code-mod-framework/lib/libnx_min/nx/lib\libnx_min.a(applet.o)
 *fill*         0x0000000000053a49        0x7 
 .bss.g_appletIApplicationCreator
                0x0000000000053a50        0xc S:/UltimateEnvironment/code-mod-example/param-replace/code-mod-framework/lib/libnx_min/nx/lib\libnx_min.a(applet.o)
 *fill*         0x0000000000053a5c        0x4 
 .bss.g_appletIAudioController
                0x0000000000053a60        0xc S:/UltimateEnvironment/code-mod-example/param-replace/code-mod-framework/lib/libnx_min/nx/lib\libnx_min.a(applet.o)
 *fill*         0x0000000000053a6c        0x4 
 .bss.g_appletICommonStateGetter
                0x0000000000053a70        0xc S:/UltimateEnvironment/code-mod-example/param-replace/code-mod-framework/lib/libnx_min/nx/lib\libnx_min.a(applet.o)
 *fill*         0x0000000000053a7c        0x4 
 .bss.g_appletIDebugFunctions
                0x0000000000053a80        0xc S:/UltimateEnvironment/code-mod-example/param-replace/code-mod-framework/lib/libnx_min/nx/lib\libnx_min.a(applet.o)
 *fill*         0x0000000000053a8c        0x4 
 .bss.g_appletIDisplayController
                0x0000000000053a90        0xc S:/UltimateEnvironment/code-mod-example/param-replace/code-mod-framework/lib/libnx_min/nx/lib\libnx_min.a(applet.o)
 *fill*         0x0000000000053a9c        0x4 
 .bss.g_appletIFunctions
                0x0000000000053aa0        0xc S:/UltimateEnvironment/code-mod-example/param-replace/code-mod-framework/lib/libnx_min/nx/lib\libnx_min.a(applet.o)
 *fill*         0x0000000000053aac        0x4 
 .bss.g_appletIGlobalStateController
                0x0000000000053ab0        0xc S:/UltimateEnvironment/code-mod-example/param-replace/code-mod-framework/lib/libnx_min/nx/lib\libnx_min.a(applet.o)
 *fill*         0x0000000000053abc        0x4 
 .bss.g_appletILibraryAppletCreator
                0x0000000000053ac0        0xc S:/UltimateEnvironment/code-mod-example/param-replace/code-mod-framework/lib/libnx_min/nx/lib\libnx_min.a(applet.o)
 *fill*         0x0000000000053acc        0x4 
 .bss.g_appletILibraryAppletSelfAccessor
                0x0000000000053ad0        0xc S:/UltimateEnvironment/code-mod-example/param-replace/code-mod-framework/lib/libnx_min/nx/lib\libnx_min.a(applet.o)
 *fill*         0x0000000000053adc        0x4 
 .bss.g_appletIProcessWindingController
                0x0000000000053ae0        0xc S:/UltimateEnvironment/code-mod-example/param-replace/code-mod-framework/lib/libnx_min/nx/lib\libnx_min.a(applet.o)
 *fill*         0x0000000000053aec        0x4 
 .bss.g_appletISelfController
                0x0000000000053af0        0xc S:/UltimateEnvironment/code-mod-example/param-replace/code-mod-framework/lib/libnx_min/nx/lib\libnx_min.a(applet.o)
 *fill*         0x0000000000053afc        0x4 
 .bss.g_appletIWindowController
                0x0000000000053b00        0xc S:/UltimateEnvironment/code-mod-example/param-replace/code-mod-framework/lib/libnx_min/nx/lib\libnx_min.a(applet.o)
 *fill*         0x0000000000053b0c        0x4 
 .bss.g_appletLibraryAppletLaunchableEvent
                0x0000000000053b10        0xc S:/UltimateEnvironment/code-mod-example/param-replace/code-mod-framework/lib/libnx_min/nx/lib\libnx_min.a(applet.o)
 *fill*         0x0000000000053b1c        0x4 
 .bss.g_appletMessageEvent
                0x0000000000053b20        0xc S:/UltimateEnvironment/code-mod-example/param-replace/code-mod-framework/lib/libnx_min/nx/lib\libnx_min.a(applet.o)
 .bss.g_appletNotifiedRunning
                0x0000000000053b2c        0x1 S:/UltimateEnvironment/code-mod-example/param-replace/code-mod-framework/lib/libnx_min/nx/lib\libnx_min.a(applet.o)
 .bss.g_appletOperationMode
                0x0000000000053b2d        0x1 S:/UltimateEnvironment/code-mod-example/param-replace/code-mod-framework/lib/libnx_min/nx/lib\libnx_min.a(applet.o)
 *fill*         0x0000000000053b2e        0x2 
 .bss.g_appletPerformanceMode
                0x0000000000053b30        0x4 S:/UltimateEnvironment/code-mod-example/param-replace/code-mod-framework/lib/libnx_min/nx/lib\libnx_min.a(applet.o)
 *fill*         0x0000000000053b34        0x4 
 .bss.g_appletProxySession
                0x0000000000053b38        0xc S:/UltimateEnvironment/code-mod-example/param-replace/code-mod-framework/lib/libnx_min/nx/lib\libnx_min.a(applet.o)
 .bss.g_appletRecordingInitialized
                0x0000000000053b44        0x4 S:/UltimateEnvironment/code-mod-example/param-replace/code-mod-framework/lib/libnx_min/nx/lib\libnx_min.a(applet.o)
 .bss.g_appletRecordingTmem
                0x0000000000053b48       0x28 S:/UltimateEnvironment/code-mod-example/param-replace/code-mod-framework/lib/libnx_min/nx/lib\libnx_min.a(applet.o)
 .bss.g_appletResourceUserId
                0x0000000000053b70        0x8 S:/UltimateEnvironment/code-mod-example/param-replace/code-mod-framework/lib/libnx_min/nx/lib\libnx_min.a(applet.o)
 .bss.g_appletSrv
                0x0000000000053b78        0xc S:/UltimateEnvironment/code-mod-example/param-replace/code-mod-framework/lib/libnx_min/nx/lib\libnx_min.a(applet.o)
 .bss.g_appletThemeColorType
                0x0000000000053b84        0x4 S:/UltimateEnvironment/code-mod-example/param-replace/code-mod-framework/lib/libnx_min/nx/lib\libnx_min.a(applet.o)
 .bss.g_refCnt  0x0000000000053b88        0x8 S:/UltimateEnvironment/code-mod-example/param-replace/code-mod-framework/lib/libnx_min/nx/lib\libnx_min.a(applet.o)
 .bss.__bootticks
                0x0000000000053b90        0x8 S:/UltimateEnvironment/code-mod-example/param-replace/code-mod-framework/lib/libnx_min/nx/lib\libnx_min.a(newlib.o)
 .bss.__boottime
                0x0000000000053b98        0x8 S:/UltimateEnvironment/code-mod-example/param-replace/code-mod-framework/lib/libnx_min/nx/lib\libnx_min.a(newlib.o)
 .bss.__nx_time_type
                0x0000000000053ba0        0x4 S:/UltimateEnvironment/code-mod-example/param-replace/code-mod-framework/lib/libnx_min/nx/lib\libnx_min.a(newlib.o)
                0x0000000000053ba0                __nx_time_type
 *fill*         0x0000000000053ba4        0x4 
 .bss.g_threadList
                0x0000000000053ba8        0x8 S:/UltimateEnvironment/code-mod-example/param-replace/code-mod-framework/lib/libnx_min/nx/lib\libnx_min.a(thread.o)
 .bss.g_threadMutex
                0x0000000000053bb0        0x4 S:/UltimateEnvironment/code-mod-example/param-replace/code-mod-framework/lib/libnx_min/nx/lib\libnx_min.a(thread.o)
 *fill*         0x0000000000053bb4        0x4 
 .bss.g_tlsDestructors
                0x0000000000053bb8       0xd0 S:/UltimateEnvironment/code-mod-example/param-replace/code-mod-framework/lib/libnx_min/nx/lib\libnx_min.a(thread.o)
 .bss.g_tlsUsageMask
                0x0000000000053c88        0x8 S:/UltimateEnvironment/code-mod-example/param-replace/code-mod-framework/lib/libnx_min/nx/lib\libnx_min.a(thread.o)
 .bss.g_JitKernelPatchCached
                0x0000000000053c90        0x1 S:/UltimateEnvironment/code-mod-example/param-replace/code-mod-framework/lib/libnx_min/nx/lib\libnx_min.a(detect.o)
 .bss.g_JitKernelPatchDetected
                0x0000000000053c91        0x1 S:/UltimateEnvironment/code-mod-example/param-replace/code-mod-framework/lib/libnx_min/nx/lib\libnx_min.a(detect.o)
 *fill*         0x0000000000053c92        0x2 
 .bss.g_JitKernelPatchMutex
                0x0000000000053c94        0x4 S:/UltimateEnvironment/code-mod-example/param-replace/code-mod-framework/lib/libnx_min/nx/lib\libnx_min.a(detect.o)
 .bss.g_Version
                0x0000000000053c98        0x4 S:/UltimateEnvironment/code-mod-example/param-replace/code-mod-framework/lib/libnx_min/nx/lib\libnx_min.a(detect.o)
 .bss.g_VersionCached
                0x0000000000053c9c        0x1 S:/UltimateEnvironment/code-mod-example/param-replace/code-mod-framework/lib/libnx_min/nx/lib\libnx_min.a(detect.o)
 *fill*         0x0000000000053c9d        0x3 
 .bss.g_VersionMutex
                0x0000000000053ca0        0x4 S:/UltimateEnvironment/code-mod-example/param-replace/code-mod-framework/lib/libnx_min/nx/lib\libnx_min.a(detect.o)
 *fill*         0x0000000000053ca4        0x4 
 .bss.g_apmISession
                0x0000000000053ca8        0xc S:/UltimateEnvironment/code-mod-example/param-replace/code-mod-framework/lib/libnx_min/nx/lib\libnx_min.a(apm.o)
 *fill*         0x0000000000053cb4        0x4 
 .bss.g_apmSrv  0x0000000000053cb8        0xc S:/UltimateEnvironment/code-mod-example/param-replace/code-mod-framework/lib/libnx_min/nx/lib\libnx_min.a(apm.o)
 *fill*         0x0000000000053cc4        0x4 
 .bss.g_refCnt  0x0000000000053cc8        0x8 S:/UltimateEnvironment/code-mod-example/param-replace/code-mod-framework/lib/libnx_min/nx/lib\libnx_min.a(apm.o)
 .bss.__malloc_current_mallinfo
                0x0000000000053cd0       0x28 c:/devkitpro/devkita64/bin/../lib/gcc/aarch64-none-elf/8.3.0/../../../../aarch64-none-elf/lib/pic\libg.a(lib_a-mallocr.o)
                0x0000000000053cd0                __malloc_current_mallinfo
 .bss.__malloc_max_sbrked_mem
                0x0000000000053cf8        0x8 c:/devkitpro/devkita64/bin/../lib/gcc/aarch64-none-elf/8.3.0/../../../../aarch64-none-elf/lib/pic\libg.a(lib_a-mallocr.o)
                0x0000000000053cf8                __malloc_max_sbrked_mem
 .bss.__malloc_max_total_mem
                0x0000000000053d00        0x8 c:/devkitpro/devkita64/bin/../lib/gcc/aarch64-none-elf/8.3.0/../../../../aarch64-none-elf/lib/pic\libg.a(lib_a-mallocr.o)
                0x0000000000053d00                __malloc_max_total_mem
 .bss.__malloc_top_pad
                0x0000000000053d08        0x8 c:/devkitpro/devkita64/bin/../lib/gcc/aarch64-none-elf/8.3.0/../../../../aarch64-none-elf/lib/pic\libg.a(lib_a-mallocr.o)
                0x0000000000053d08                __malloc_top_pad
 .bss.__malloc_recursive_mutex
                0x0000000000053d10        0xc c:/devkitpro/devkita64/bin/../lib/gcc/aarch64-none-elf/8.3.0/../../../../aarch64-none-elf/lib/pic\libg.a(lib_a-mlock.o)
 .bss.alloced.4086
                0x0000000000053d1c        0x4 c:/devkitpro/devkita64/bin/../lib/gcc/aarch64-none-elf/8.3.0/../../../../aarch64-none-elf/lib/pic\libg.a(lib_a-setenv_r.o)
 .bss.__atexit_recursive_mutex
                0x0000000000053d20        0xc c:/devkitpro/devkita64/bin/../lib/gcc/aarch64-none-elf/8.3.0/../../../../aarch64-none-elf/lib/pic\libg.a(lib_a-__call_atexit.o)
                0x0000000000053d20                __atexit_recursive_mutex
 *fill*         0x0000000000053d2c        0x4 
 .bss.initial_env
                0x0000000000053d30        0x8 c:/devkitpro/devkita64/bin/../lib/gcc/aarch64-none-elf/8.3.0/../../../../aarch64-none-elf/lib/pic\libg.a(lib_a-environ.o)
 .bss.__env_recursive_mutex
                0x0000000000053d38        0xc c:/devkitpro/devkita64/bin/../lib/gcc/aarch64-none-elf/8.3.0/../../../../aarch64-none-elf/lib/pic\libg.a(lib_a-envlock.o)
 *fill*         0x0000000000053d44        0x4 
 .bss._PathLocale
                0x0000000000053d48        0x8 c:/devkitpro/devkita64/bin/../lib/gcc/aarch64-none-elf/8.3.0/../../../../aarch64-none-elf/lib/pic\libg.a(lib_a-locale.o)
                0x0000000000053d48                _PathLocale
 .bss.global_locale_string
                0x0000000000053d50       0xe7 c:/devkitpro/devkita64/bin/../lib/gcc/aarch64-none-elf/8.3.0/../../../../aarch64-none-elf/lib/pic\libg.a(lib_a-locale.o)
 *fill*         0x0000000000053e37        0x1 
 .bss.new_categories.4568
                0x0000000000053e38       0xe0 c:/devkitpro/devkita64/bin/../lib/gcc/aarch64-none-elf/8.3.0/../../../../aarch64-none-elf/lib/pic\libg.a(lib_a-locale.o)
 .bss.saved_categories.4569
                0x0000000000053f18       0xe0 c:/devkitpro/devkita64/bin/../lib/gcc/aarch64-none-elf/8.3.0/../../../../aarch64-none-elf/lib/pic\libg.a(lib_a-locale.o)
 .bss.heap_start.5295
                0x0000000000053ff8        0x8 c:/devkitpro/devkita64/bin/../lib/gcc/aarch64-none-elf/8.3.0/../../../../aarch64-none-elf/lib/pic\libsysbase.a(sbrk.o)
 .bss.fake_heap_end
                0x0000000000054000        0x8 c:/devkitpro/devkita64/bin/../lib/gcc/aarch64-none-elf/8.3.0/../../../../aarch64-none-elf/lib/pic\libsysbase.a(malloc_vars.o)
                0x0000000000054000                fake_heap_end
 .bss.fake_heap_start
                0x0000000000054008        0x8 c:/devkitpro/devkita64/bin/../lib/gcc/aarch64-none-elf/8.3.0/../../../../aarch64-none-elf/lib/pic\libsysbase.a(malloc_vars.o)
                0x0000000000054008                fake_heap_start
 .bss.temp_cwd  0x0000000000054010      0x400 c:/devkitpro/devkita64/bin/../lib/gcc/aarch64-none-elf/8.3.0/../../../../aarch64-none-elf/lib/pic\libsysbase.a(chdir.o)
 *(COMMON)
 COMMON         0x0000000000054410        0xc S:/UltimateEnvironment/code-mod-example/param-replace/code-mod-framework/lib/libnx_min/nx/lib\libnx_min.a(argv.o)
                0x0000000000054410                __system_argv
                0x0000000000054418                __system_argc
 *fill*         0x000000000005441c        0x4 
 COMMON         0x0000000000054420      0x348 S:/UltimateEnvironment/code-mod-example/param-replace/code-mod-framework/lib/libnx_min/nx/lib\libnx_min.a(init.o)
                0x0000000000054420                __nx_exceptiondump
                0x0000000000054760                __stack_top
                0x0000000000054768                . = ALIGN (0x8)
                0x0000000000054768                __tls_start = .
                0x0000000000058b70                . = (. + (SIZEOF (.tdata) + SIZEOF (.tbss)))
 *fill*         0x0000000000054768     0x4408 
                0x0000000000058b70                __tls_end = .
                0x0000000000058b70                __bss_end__ = .
                0x0000000000058b70                __end__ = ABSOLUTE (.)
                0x0000000000059000                . = ALIGN (0x1000)
                0x0000000000059000                __argdata__ = ABSOLUTE (.)

/DISCARD/
 *(.group .comment .note)

.stab
 *(.stab)

.stabstr
 *(.stabstr)

.stab.excl
 *(.stab.excl)

.stab.exclstr
 *(.stab.exclstr)

.stab.index
 *(.stab.index)

.stab.indexstr
 *(.stab.indexstr)

.debug
 *(.debug)

.line
 *(.line)

.debug_srcinfo
 *(.debug_srcinfo)

.debug_sfnames
 *(.debug_sfnames)

.debug_aranges
 *(.debug_aranges)

.debug_pubnames
 *(.debug_pubnames)

.debug_info
 *(.debug_info)

.debug_abbrev
 *(.debug_abbrev)

.debug_line
 *(.debug_line)

.debug_frame
 *(.debug_frame)

.debug_str
 *(.debug_str)

.debug_loc
 *(.debug_loc)

.debug_macinfo
 *(.debug_macinfo)
LOAD c:/devkitpro/devkita64/bin/../lib/gcc/aarch64-none-elf/8.3.0/pic/crti.o
LOAD c:/devkitpro/devkita64/bin/../lib/gcc/aarch64-none-elf/8.3.0/pic/crtbegin.o
LOAD main.o
LOAD acmd_wrapper.o
LOAD saltysd_helper.o
LOAD lua_bind_hash.o
LOAD l2c_imports.o
LOAD raygun_printer.o
LOAD S:/UltimateEnvironment/code-mod-example/param-replace/code-mod-framework/lib/libnx_min/nx/lib\libnx_min.a
LOAD c:/devkitpro/devkita64/bin/../lib/gcc/aarch64-none-elf/8.3.0/../../../../aarch64-none-elf/lib/pic\libstdc++.a
LOAD c:/devkitpro/devkita64/bin/../lib/gcc/aarch64-none-elf/8.3.0/../../../../aarch64-none-elf/lib/pic\libm.a
START GROUP
LOAD c:/devkitpro/devkita64/bin/../lib/gcc/aarch64-none-elf/8.3.0/pic\libgcc.a
LOAD c:/devkitpro/devkita64/bin/../lib/gcc/aarch64-none-elf/8.3.0/../../../../aarch64-none-elf/lib/pic\libg.a
LOAD c:/devkitpro/devkita64/bin/../lib/gcc/aarch64-none-elf/8.3.0/../../../../aarch64-none-elf/lib/pic\libc.a
LOAD c:/devkitpro/devkita64/bin/../lib/gcc/aarch64-none-elf/8.3.0/../../../../aarch64-none-elf/lib/pic\libsysbase.a
END GROUP
LOAD c:/devkitpro/devkita64/bin/../lib/gcc/aarch64-none-elf/8.3.0/pic/crtend.o
LOAD c:/devkitpro/devkita64/bin/../lib/gcc/aarch64-none-elf/8.3.0/pic/crtn.o
OUTPUT(S:/UltimateEnvironment/code-mod-example/param-replace/my_plugin.elf elf64-littleaarch64)
