Archive member included to satisfy reference by file (symbol)

S:/UltimateEnvironment/code-mod-example/param-replace/code-mod-framework/lib/libnx_min/nx/lib\libnx_min.a(switch_crt0.o)
                              (_start)
S:/UltimateEnvironment/code-mod-example/param-replace/code-mod-framework/lib/libnx_min/nx/lib\libnx_min.a(exception.o)
                              S:/UltimateEnvironment/code-mod-example/param-replace/code-mod-framework/lib/libnx_min/nx/lib\libnx_min.a(switch_crt0.o) (__libnx_exception_entry)
S:/UltimateEnvironment/code-mod-example/param-replace/code-mod-framework/lib/libnx_min/nx/lib\libnx_min.a(argv.o)
                              S:/UltimateEnvironment/code-mod-example/param-replace/code-mod-framework/lib/libnx_min/nx/lib\libnx_min.a(switch_crt0.o) (__system_argv)
S:/UltimateEnvironment/code-mod-example/param-replace/code-mod-framework/lib/libnx_min/nx/lib\libnx_min.a(env.o)
                              S:/UltimateEnvironment/code-mod-example/param-replace/code-mod-framework/lib/libnx_min/nx/lib\libnx_min.a(argv.o) (envIsNso)
S:/UltimateEnvironment/code-mod-example/param-replace/code-mod-framework/lib/libnx_min/nx/lib\libnx_min.a(init.o)
                              S:/UltimateEnvironment/code-mod-example/param-replace/code-mod-framework/lib/libnx_min/nx/lib\libnx_min.a(exception.o) (__nx_exceptiondump)
S:/UltimateEnvironment/code-mod-example/param-replace/code-mod-framework/lib/libnx_min/nx/lib\libnx_min.a(hosversion.o)
                              S:/UltimateEnvironment/code-mod-example/param-replace/code-mod-framework/lib/libnx_min/nx/lib\libnx_min.a(init.o) (hosversionSet)
S:/UltimateEnvironment/code-mod-example/param-replace/code-mod-framework/lib/libnx_min/nx/lib\libnx_min.a(dynamic.o)
                              S:/UltimateEnvironment/code-mod-example/param-replace/code-mod-framework/lib/libnx_min/nx/lib\libnx_min.a(switch_crt0.o) (__nx_dynamic)
S:/UltimateEnvironment/code-mod-example/param-replace/code-mod-framework/lib/libnx_min/nx/lib\libnx_min.a(fs_dev.o)
                              S:/UltimateEnvironment/code-mod-example/param-replace/code-mod-framework/lib/libnx_min/nx/lib\libnx_min.a(init.o) (fsdevMountSdmc)
S:/UltimateEnvironment/code-mod-example/param-replace/code-mod-framework/lib/libnx_min/nx/lib\libnx_min.a(decode_utf8.o)
                              S:/UltimateEnvironment/code-mod-example/param-replace/code-mod-framework/lib/libnx_min/nx/lib\libnx_min.a(fs_dev.o) (decode_utf8)
S:/UltimateEnvironment/code-mod-example/param-replace/code-mod-framework/lib/libnx_min/nx/lib\libnx_min.a(svc.o)
                              S:/UltimateEnvironment/code-mod-example/param-replace/code-mod-framework/lib/libnx_min/nx/lib\libnx_min.a(init.o) (svcSetHeapSize)
S:/UltimateEnvironment/code-mod-example/param-replace/code-mod-framework/lib/libnx_min/nx/lib\libnx_min.a(readtp.o)
                              S:/UltimateEnvironment/code-mod-example/param-replace/code-mod-framework/lib/libnx_min/nx/lib\libnx_min.a(fs_dev.o) (__aarch64_read_tp)
S:/UltimateEnvironment/code-mod-example/param-replace/code-mod-framework/lib/libnx_min/nx/lib\libnx_min.a(virtmem.o)
                              S:/UltimateEnvironment/code-mod-example/param-replace/code-mod-framework/lib/libnx_min/nx/lib\libnx_min.a(init.o) (virtmemSetup)
S:/UltimateEnvironment/code-mod-example/param-replace/code-mod-framework/lib/libnx_min/nx/lib\libnx_min.a(mutex.o)
                              S:/UltimateEnvironment/code-mod-example/param-replace/code-mod-framework/lib/libnx_min/nx/lib\libnx_min.a(virtmem.o) (mutexLock)
S:/UltimateEnvironment/code-mod-example/param-replace/code-mod-framework/lib/libnx_min/nx/lib\libnx_min.a(fs.o)
                              S:/UltimateEnvironment/code-mod-example/param-replace/code-mod-framework/lib/libnx_min/nx/lib\libnx_min.a(init.o) (fsInitialize)
S:/UltimateEnvironment/code-mod-example/param-replace/code-mod-framework/lib/libnx_min/nx/lib\libnx_min.a(set.o)
                              S:/UltimateEnvironment/code-mod-example/param-replace/code-mod-framework/lib/libnx_min/nx/lib\libnx_min.a(init.o) (setsysInitialize)
S:/UltimateEnvironment/code-mod-example/param-replace/code-mod-framework/lib/libnx_min/nx/lib\libnx_min.a(fatal.o)
                              S:/UltimateEnvironment/code-mod-example/param-replace/code-mod-framework/lib/libnx_min/nx/lib\libnx_min.a(env.o) (fatalSimple)
S:/UltimateEnvironment/code-mod-example/param-replace/code-mod-framework/lib/libnx_min/nx/lib\libnx_min.a(sm.o)
                              S:/UltimateEnvironment/code-mod-example/param-replace/code-mod-framework/lib/libnx_min/nx/lib\libnx_min.a(env.o) (smAddOverrideHandle)
S:/UltimateEnvironment/code-mod-example/param-replace/code-mod-framework/lib/libnx_min/nx/lib\libnx_min.a(hid.o)
                              S:/UltimateEnvironment/code-mod-example/param-replace/code-mod-framework/lib/libnx_min/nx/lib\libnx_min.a(init.o) (hidExit)
S:/UltimateEnvironment/code-mod-example/param-replace/code-mod-framework/lib/libnx_min/nx/lib\libnx_min.a(time.o)
                              S:/UltimateEnvironment/code-mod-example/param-replace/code-mod-framework/lib/libnx_min/nx/lib\libnx_min.a(init.o) (timeExit)
S:/UltimateEnvironment/code-mod-example/param-replace/code-mod-framework/lib/libnx_min/nx/lib\libnx_min.a(applet.o)
                              S:/UltimateEnvironment/code-mod-example/param-replace/code-mod-framework/lib/libnx_min/nx/lib\libnx_min.a(hid.o) (appletGetAppletResourceUserId)
S:/UltimateEnvironment/code-mod-example/param-replace/code-mod-framework/lib/libnx_min/nx/lib\libnx_min.a(newlib.o)
                              S:/UltimateEnvironment/code-mod-example/param-replace/code-mod-framework/lib/libnx_min/nx/lib\libnx_min.a(init.o) (__libnx_init_time)
S:/UltimateEnvironment/code-mod-example/param-replace/code-mod-framework/lib/libnx_min/nx/lib\libnx_min.a(thread.o)
                              S:/UltimateEnvironment/code-mod-example/param-replace/code-mod-framework/lib/libnx_min/nx/lib\libnx_min.a(newlib.o) (threadCreate)
S:/UltimateEnvironment/code-mod-example/param-replace/code-mod-framework/lib/libnx_min/nx/lib\libnx_min.a(condvar.o)
                              S:/UltimateEnvironment/code-mod-example/param-replace/code-mod-framework/lib/libnx_min/nx/lib\libnx_min.a(newlib.o) (condvarWaitTimeout)
S:/UltimateEnvironment/code-mod-example/param-replace/code-mod-framework/lib/libnx_min/nx/lib\libnx_min.a(event.o)
                              S:/UltimateEnvironment/code-mod-example/param-replace/code-mod-framework/lib/libnx_min/nx/lib\libnx_min.a(set.o) (eventLoadRemote)
S:/UltimateEnvironment/code-mod-example/param-replace/code-mod-framework/lib/libnx_min/nx/lib\libnx_min.a(tmem.o)
                              S:/UltimateEnvironment/code-mod-example/param-replace/code-mod-framework/lib/libnx_min/nx/lib\libnx_min.a(applet.o) (tmemCreate)
S:/UltimateEnvironment/code-mod-example/param-replace/code-mod-framework/lib/libnx_min/nx/lib\libnx_min.a(rwlock.o)
                              S:/UltimateEnvironment/code-mod-example/param-replace/code-mod-framework/lib/libnx_min/nx/lib\libnx_min.a(hid.o) (rwlockReadLock)
S:/UltimateEnvironment/code-mod-example/param-replace/code-mod-framework/lib/libnx_min/nx/lib\libnx_min.a(wait.o)
                              S:/UltimateEnvironment/code-mod-example/param-replace/code-mod-framework/lib/libnx_min/nx/lib\libnx_min.a(applet.o) (waitObjects)
S:/UltimateEnvironment/code-mod-example/param-replace/code-mod-framework/lib/libnx_min/nx/lib\libnx_min.a(shmem.o)
                              S:/UltimateEnvironment/code-mod-example/param-replace/code-mod-framework/lib/libnx_min/nx/lib\libnx_min.a(hid.o) (shmemLoadRemote)
S:/UltimateEnvironment/code-mod-example/param-replace/code-mod-framework/lib/libnx_min/nx/lib\libnx_min.a(detect.o)
                              S:/UltimateEnvironment/code-mod-example/param-replace/code-mod-framework/lib/libnx_min/nx/lib\libnx_min.a(fatal.o) (detectKernelVersion)
S:/UltimateEnvironment/code-mod-example/param-replace/code-mod-framework/lib/libnx_min/nx/lib\libnx_min.a(apm.o)
                              S:/UltimateEnvironment/code-mod-example/param-replace/code-mod-framework/lib/libnx_min/nx/lib\libnx_min.a(applet.o) (apmExit)
c:/devkitpro/devkita64/bin/../lib/gcc/aarch64-none-elf/8.3.0/../../../../aarch64-none-elf/lib/pic\libg.a(lib_a-bsearch.o)
                              S:/UltimateEnvironment/code-mod-example/param-replace/code-mod-framework/lib/libnx_min/nx/lib\libnx_min.a(fs_dev.o) (bsearch)
c:/devkitpro/devkita64/bin/../lib/gcc/aarch64-none-elf/8.3.0/../../../../aarch64-none-elf/lib/pic\libg.a(lib_a-ctype_.o)
                              S:/UltimateEnvironment/code-mod-example/param-replace/code-mod-framework/lib/libnx_min/nx/lib\libnx_min.a(argv.o) (_ctype_)
c:/devkitpro/devkita64/bin/../lib/gcc/aarch64-none-elf/8.3.0/../../../../aarch64-none-elf/lib/pic\libg.a(lib_a-errno.o)
                              S:/UltimateEnvironment/code-mod-example/param-replace/code-mod-framework/lib/libnx_min/nx/lib\libnx_min.a(fs_dev.o) (__errno)
c:/devkitpro/devkita64/bin/../lib/gcc/aarch64-none-elf/8.3.0/../../../../aarch64-none-elf/lib/pic\libg.a(lib_a-exit.o)
                              S:/UltimateEnvironment/code-mod-example/param-replace/code-mod-framework/lib/libnx_min/nx/lib\libnx_min.a(switch_crt0.o) (exit)
c:/devkitpro/devkita64/bin/../lib/gcc/aarch64-none-elf/8.3.0/../../../../aarch64-none-elf/lib/pic\libg.a(lib_a-fini.o)
                              main.o (__libc_fini_array)
c:/devkitpro/devkita64/bin/../lib/gcc/aarch64-none-elf/8.3.0/../../../../aarch64-none-elf/lib/pic\libg.a(lib_a-impure.o)
                              c:/devkitpro/devkita64/bin/../lib/gcc/aarch64-none-elf/8.3.0/../../../../aarch64-none-elf/lib/pic\libg.a(lib_a-exit.o) (_global_impure_ptr)
c:/devkitpro/devkita64/bin/../lib/gcc/aarch64-none-elf/8.3.0/../../../../aarch64-none-elf/lib/pic\libg.a(lib_a-init.o)
                              main.o (__libc_init_array)
c:/devkitpro/devkita64/bin/../lib/gcc/aarch64-none-elf/8.3.0/../../../../aarch64-none-elf/lib/pic\libg.a(lib_a-malign.o)
                              S:/UltimateEnvironment/code-mod-example/param-replace/code-mod-framework/lib/libnx_min/nx/lib\libnx_min.a(hid.o) (memalign)
c:/devkitpro/devkita64/bin/../lib/gcc/aarch64-none-elf/8.3.0/../../../../aarch64-none-elf/lib/pic\libg.a(lib_a-malignr.o)
                              c:/devkitpro/devkita64/bin/../lib/gcc/aarch64-none-elf/8.3.0/../../../../aarch64-none-elf/lib/pic\libg.a(lib_a-malign.o) (_memalign_r)
c:/devkitpro/devkita64/bin/../lib/gcc/aarch64-none-elf/8.3.0/../../../../aarch64-none-elf/lib/pic\libg.a(lib_a-malloc.o)
                              S:/UltimateEnvironment/code-mod-example/param-replace/code-mod-framework/lib/libnx_min/nx/lib\libnx_min.a(newlib.o) (malloc)
c:/devkitpro/devkita64/bin/../lib/gcc/aarch64-none-elf/8.3.0/../../../../aarch64-none-elf/lib/pic\libg.a(lib_a-mallocr.o)
                              c:/devkitpro/devkita64/bin/../lib/gcc/aarch64-none-elf/8.3.0/../../../../aarch64-none-elf/lib/pic\libg.a(lib_a-malignr.o) (_malloc_r)
c:/devkitpro/devkita64/bin/../lib/gcc/aarch64-none-elf/8.3.0/../../../../aarch64-none-elf/lib/pic\libg.a(lib_a-memcpy.o)
                              S:/UltimateEnvironment/code-mod-example/param-replace/code-mod-framework/lib/libnx_min/nx/lib\libnx_min.a(fs_dev.o) (memcpy)
c:/devkitpro/devkita64/bin/../lib/gcc/aarch64-none-elf/8.3.0/../../../../aarch64-none-elf/lib/pic\libg.a(lib_a-memset.o)
                              S:/UltimateEnvironment/code-mod-example/param-replace/code-mod-framework/lib/libnx_min/nx/lib\libnx_min.a(argv.o) (memset)
c:/devkitpro/devkita64/bin/../lib/gcc/aarch64-none-elf/8.3.0/../../../../aarch64-none-elf/lib/pic\libg.a(lib_a-mlock.o)
                              c:/devkitpro/devkita64/bin/../lib/gcc/aarch64-none-elf/8.3.0/../../../../aarch64-none-elf/lib/pic\libg.a(lib_a-malignr.o) (__malloc_lock)
c:/devkitpro/devkita64/bin/../lib/gcc/aarch64-none-elf/8.3.0/../../../../aarch64-none-elf/lib/pic\libg.a(lib_a-setenv.o)
                              S:/UltimateEnvironment/code-mod-example/param-replace/code-mod-framework/lib/libnx_min/nx/lib\libnx_min.a(newlib.o) (setenv)
c:/devkitpro/devkita64/bin/../lib/gcc/aarch64-none-elf/8.3.0/../../../../aarch64-none-elf/lib/pic\libg.a(lib_a-setenv_r.o)
                              c:/devkitpro/devkita64/bin/../lib/gcc/aarch64-none-elf/8.3.0/../../../../aarch64-none-elf/lib/pic\libg.a(lib_a-setenv.o) (_setenv_r)
c:/devkitpro/devkita64/bin/../lib/gcc/aarch64-none-elf/8.3.0/../../../../aarch64-none-elf/lib/pic\libg.a(lib_a-strchr.o)
                              raygun_printer.o (strchr)
c:/devkitpro/devkita64/bin/../lib/gcc/aarch64-none-elf/8.3.0/../../../../aarch64-none-elf/lib/pic\libg.a(lib_a-strcpy.o)
                              S:/UltimateEnvironment/code-mod-example/param-replace/code-mod-framework/lib/libnx_min/nx/lib\libnx_min.a(env.o) (strcpy)
c:/devkitpro/devkita64/bin/../lib/gcc/aarch64-none-elf/8.3.0/../../../../aarch64-none-elf/lib/pic\libg.a(lib_a-strlen.o)
                              lua_bind_hash.o (strlen)
c:/devkitpro/devkita64/bin/../lib/gcc/aarch64-none-elf/8.3.0/../../../../aarch64-none-elf/lib/pic\libg.a(lib_a-strncat.o)
                              S:/UltimateEnvironment/code-mod-example/param-replace/code-mod-framework/lib/libnx_min/nx/lib\libnx_min.a(fs_dev.o) (strncat)
c:/devkitpro/devkita64/bin/../lib/gcc/aarch64-none-elf/8.3.0/../../../../aarch64-none-elf/lib/pic\libg.a(lib_a-strncmp.o)
                              S:/UltimateEnvironment/code-mod-example/param-replace/code-mod-framework/lib/libnx_min/nx/lib\libnx_min.a(fs_dev.o) (strncmp)
c:/devkitpro/devkita64/bin/../lib/gcc/aarch64-none-elf/8.3.0/../../../../aarch64-none-elf/lib/pic\libg.a(lib_a-strncpy.o)
                              S:/UltimateEnvironment/code-mod-example/param-replace/code-mod-framework/lib/libnx_min/nx/lib\libnx_min.a(argv.o) (strncpy)
c:/devkitpro/devkita64/bin/../lib/gcc/aarch64-none-elf/8.3.0/../../../../aarch64-none-elf/lib/pic\libg.a(lib_a-strnlen.o)
                              S:/UltimateEnvironment/code-mod-example/param-replace/code-mod-framework/lib/libnx_min/nx/lib\libnx_min.a(fs_dev.o) (strnlen)
c:/devkitpro/devkita64/bin/../lib/gcc/aarch64-none-elf/8.3.0/../../../../aarch64-none-elf/lib/pic\libg.a(lib_a-toupper.o)
                              raygun_printer.o (toupper)
c:/devkitpro/devkita64/bin/../lib/gcc/aarch64-none-elf/8.3.0/../../../../aarch64-none-elf/lib/pic\libg.a(lib_a-vsnprintf.o)
                              raygun_printer.o (vsnprintf)
c:/devkitpro/devkita64/bin/../lib/gcc/aarch64-none-elf/8.3.0/../../../../aarch64-none-elf/lib/pic\libg.a(lib_a-__call_atexit.o)
                              c:/devkitpro/devkita64/bin/../lib/gcc/aarch64-none-elf/8.3.0/../../../../aarch64-none-elf/lib/pic\libg.a(lib_a-exit.o) (__call_exitprocs)
c:/devkitpro/devkita64/bin/../lib/gcc/aarch64-none-elf/8.3.0/../../../../aarch64-none-elf/lib/pic\libg.a(lib_a-environ.o)
                              c:/devkitpro/devkita64/bin/../lib/gcc/aarch64-none-elf/8.3.0/../../../../aarch64-none-elf/lib/pic\libg.a(lib_a-setenv_r.o) (environ)
c:/devkitpro/devkita64/bin/../lib/gcc/aarch64-none-elf/8.3.0/../../../../aarch64-none-elf/lib/pic\libg.a(lib_a-envlock.o)
                              c:/devkitpro/devkita64/bin/../lib/gcc/aarch64-none-elf/8.3.0/../../../../aarch64-none-elf/lib/pic\libg.a(lib_a-setenv_r.o) (__env_lock)
c:/devkitpro/devkita64/bin/../lib/gcc/aarch64-none-elf/8.3.0/../../../../aarch64-none-elf/lib/pic\libg.a(lib_a-freer.o)
                              c:/devkitpro/devkita64/bin/../lib/gcc/aarch64-none-elf/8.3.0/../../../../aarch64-none-elf/lib/pic\libg.a(lib_a-malignr.o) (_free_r)
c:/devkitpro/devkita64/bin/../lib/gcc/aarch64-none-elf/8.3.0/../../../../aarch64-none-elf/lib/pic\libg.a(lib_a-getenv_r.o)
                              c:/devkitpro/devkita64/bin/../lib/gcc/aarch64-none-elf/8.3.0/../../../../aarch64-none-elf/lib/pic\libg.a(lib_a-setenv_r.o) (_findenv_r)
c:/devkitpro/devkita64/bin/../lib/gcc/aarch64-none-elf/8.3.0/../../../../aarch64-none-elf/lib/pic\libg.a(lib_a-reallocr.o)
                              c:/devkitpro/devkita64/bin/../lib/gcc/aarch64-none-elf/8.3.0/../../../../aarch64-none-elf/lib/pic\libg.a(lib_a-setenv_r.o) (_realloc_r)
c:/devkitpro/devkita64/bin/../lib/gcc/aarch64-none-elf/8.3.0/../../../../aarch64-none-elf/lib/pic\libg.a(lib_a-svfprintf.o)
                              c:/devkitpro/devkita64/bin/../lib/gcc/aarch64-none-elf/8.3.0/../../../../aarch64-none-elf/lib/pic\libg.a(lib_a-vsnprintf.o) (_svfprintf_r)
c:/devkitpro/devkita64/bin/../lib/gcc/aarch64-none-elf/8.3.0/../../../../aarch64-none-elf/lib/pic\libg.a(lib_a-wcrtomb.o)
                              c:/devkitpro/devkita64/bin/../lib/gcc/aarch64-none-elf/8.3.0/../../../../aarch64-none-elf/lib/pic\libg.a(lib_a-svfprintf.o) (_wcrtomb_r)
c:/devkitpro/devkita64/bin/../lib/gcc/aarch64-none-elf/8.3.0/../../../../aarch64-none-elf/lib/pic\libg.a(lib_a-wcsrtombs.o)
                              c:/devkitpro/devkita64/bin/../lib/gcc/aarch64-none-elf/8.3.0/../../../../aarch64-none-elf/lib/pic\libg.a(lib_a-svfprintf.o) (_wcsrtombs_r)
c:/devkitpro/devkita64/bin/../lib/gcc/aarch64-none-elf/8.3.0/../../../../aarch64-none-elf/lib/pic\libg.a(lib_a-dtoa.o)
                              c:/devkitpro/devkita64/bin/../lib/gcc/aarch64-none-elf/8.3.0/../../../../aarch64-none-elf/lib/pic\libg.a(lib_a-svfprintf.o) (_dtoa_r)
c:/devkitpro/devkita64/bin/../lib/gcc/aarch64-none-elf/8.3.0/../../../../aarch64-none-elf/lib/pic\libg.a(lib_a-localeconv.o)
                              c:/devkitpro/devkita64/bin/../lib/gcc/aarch64-none-elf/8.3.0/../../../../aarch64-none-elf/lib/pic\libg.a(lib_a-svfprintf.o) (_localeconv_r)
c:/devkitpro/devkita64/bin/../lib/gcc/aarch64-none-elf/8.3.0/../../../../aarch64-none-elf/lib/pic\libg.a(lib_a-locale.o)
                              c:/devkitpro/devkita64/bin/../lib/gcc/aarch64-none-elf/8.3.0/../../../../aarch64-none-elf/lib/pic\libg.a(lib_a-svfprintf.o) (__global_locale)
c:/devkitpro/devkita64/bin/../lib/gcc/aarch64-none-elf/8.3.0/../../../../aarch64-none-elf/lib/pic\libg.a(lib_a-mbtowc_r.o)
                              c:/devkitpro/devkita64/bin/../lib/gcc/aarch64-none-elf/8.3.0/../../../../aarch64-none-elf/lib/pic\libg.a(lib_a-locale.o) (__ascii_mbtowc)
c:/devkitpro/devkita64/bin/../lib/gcc/aarch64-none-elf/8.3.0/../../../../aarch64-none-elf/lib/pic\libg.a(lib_a-memchr.o)
                              c:/devkitpro/devkita64/bin/../lib/gcc/aarch64-none-elf/8.3.0/../../../../aarch64-none-elf/lib/pic\libg.a(lib_a-svfprintf.o) (memchr)
c:/devkitpro/devkita64/bin/../lib/gcc/aarch64-none-elf/8.3.0/../../../../aarch64-none-elf/lib/pic\libg.a(lib_a-memmove.o)
                              c:/devkitpro/devkita64/bin/../lib/gcc/aarch64-none-elf/8.3.0/../../../../aarch64-none-elf/lib/pic\libg.a(lib_a-reallocr.o) (memmove)
c:/devkitpro/devkita64/bin/../lib/gcc/aarch64-none-elf/8.3.0/../../../../aarch64-none-elf/lib/pic\libg.a(lib_a-mprec.o)
                              c:/devkitpro/devkita64/bin/../lib/gcc/aarch64-none-elf/8.3.0/../../../../aarch64-none-elf/lib/pic\libg.a(lib_a-dtoa.o) (_Balloc)
c:/devkitpro/devkita64/bin/../lib/gcc/aarch64-none-elf/8.3.0/../../../../aarch64-none-elf/lib/pic\libg.a(lib_a-s_frexp.o)
                              c:/devkitpro/devkita64/bin/../lib/gcc/aarch64-none-elf/8.3.0/../../../../aarch64-none-elf/lib/pic\libg.a(lib_a-svfprintf.o) (frexp)
c:/devkitpro/devkita64/bin/../lib/gcc/aarch64-none-elf/8.3.0/../../../../aarch64-none-elf/lib/pic\libg.a(lib_a-strcasecmp.o)
                              c:/devkitpro/devkita64/bin/../lib/gcc/aarch64-none-elf/8.3.0/../../../../aarch64-none-elf/lib/pic\libg.a(lib_a-locale.o) (strcasecmp)
c:/devkitpro/devkita64/bin/../lib/gcc/aarch64-none-elf/8.3.0/../../../../aarch64-none-elf/lib/pic\libg.a(lib_a-strcat.o)
                              c:/devkitpro/devkita64/bin/../lib/gcc/aarch64-none-elf/8.3.0/../../../../aarch64-none-elf/lib/pic\libg.a(lib_a-locale.o) (strcat)
c:/devkitpro/devkita64/bin/../lib/gcc/aarch64-none-elf/8.3.0/../../../../aarch64-none-elf/lib/pic\libg.a(lib_a-strcmp.o)
                              c:/devkitpro/devkita64/bin/../lib/gcc/aarch64-none-elf/8.3.0/../../../../aarch64-none-elf/lib/pic\libg.a(lib_a-locale.o) (strcmp)
c:/devkitpro/devkita64/bin/../lib/gcc/aarch64-none-elf/8.3.0/../../../../aarch64-none-elf/lib/pic\libg.a(lib_a-strlcpy.o)
                              c:/devkitpro/devkita64/bin/../lib/gcc/aarch64-none-elf/8.3.0/../../../../aarch64-none-elf/lib/pic\libg.a(lib_a-locale.o) (strlcpy)
c:/devkitpro/devkita64/bin/../lib/gcc/aarch64-none-elf/8.3.0/../../../../aarch64-none-elf/lib/pic\libg.a(lib_a-strncasecmp.o)
                              c:/devkitpro/devkita64/bin/../lib/gcc/aarch64-none-elf/8.3.0/../../../../aarch64-none-elf/lib/pic\libg.a(lib_a-locale.o) (strncasecmp)
c:/devkitpro/devkita64/bin/../lib/gcc/aarch64-none-elf/8.3.0/../../../../aarch64-none-elf/lib/pic\libg.a(lib_a-strtol.o)
                              c:/devkitpro/devkita64/bin/../lib/gcc/aarch64-none-elf/8.3.0/../../../../aarch64-none-elf/lib/pic\libg.a(lib_a-locale.o) (strtol)
c:/devkitpro/devkita64/bin/../lib/gcc/aarch64-none-elf/8.3.0/../../../../aarch64-none-elf/lib/pic\libg.a(lib_a-svfiprintf.o)
                              c:/devkitpro/devkita64/bin/../lib/gcc/aarch64-none-elf/8.3.0/../../../../aarch64-none-elf/lib/pic\libg.a(lib_a-svfprintf.o) (__chclass)
c:/devkitpro/devkita64/bin/../lib/gcc/aarch64-none-elf/8.3.0/../../../../aarch64-none-elf/lib/pic\libg.a(lib_a-wcsnrtombs.o)
                              c:/devkitpro/devkita64/bin/../lib/gcc/aarch64-none-elf/8.3.0/../../../../aarch64-none-elf/lib/pic\libg.a(lib_a-wcsrtombs.o) (_wcsnrtombs_r)
c:/devkitpro/devkita64/bin/../lib/gcc/aarch64-none-elf/8.3.0/../../../../aarch64-none-elf/lib/pic\libg.a(lib_a-wctomb_r.o)
                              c:/devkitpro/devkita64/bin/../lib/gcc/aarch64-none-elf/8.3.0/../../../../aarch64-none-elf/lib/pic\libg.a(lib_a-locale.o) (__ascii_wctomb)
c:/devkitpro/devkita64/bin/../lib/gcc/aarch64-none-elf/8.3.0/../../../../aarch64-none-elf/lib/pic\libg.a(lib_a-callocr.o)
                              c:/devkitpro/devkita64/bin/../lib/gcc/aarch64-none-elf/8.3.0/../../../../aarch64-none-elf/lib/pic\libg.a(lib_a-mprec.o) (_calloc_r)
c:/devkitpro/devkita64/bin/../lib/gcc/aarch64-none-elf/8.3.0/../../../../aarch64-none-elf/lib/pic\libsysbase.a(iosupport.o)
                              S:/UltimateEnvironment/code-mod-example/param-replace/code-mod-framework/lib/libnx_min/nx/lib\libnx_min.a(fs_dev.o) (setDefaultDevice)
c:/devkitpro/devkita64/bin/../lib/gcc/aarch64-none-elf/8.3.0/../../../../aarch64-none-elf/lib/pic\libsysbase.a(sbrk.o)
                              c:/devkitpro/devkita64/bin/../lib/gcc/aarch64-none-elf/8.3.0/../../../../aarch64-none-elf/lib/pic\libg.a(lib_a-mallocr.o) (_sbrk_r)
c:/devkitpro/devkita64/bin/../lib/gcc/aarch64-none-elf/8.3.0/../../../../aarch64-none-elf/lib/pic\libsysbase.a(_exit.o)
                              c:/devkitpro/devkita64/bin/../lib/gcc/aarch64-none-elf/8.3.0/../../../../aarch64-none-elf/lib/pic\libg.a(lib_a-exit.o) (_exit)
c:/devkitpro/devkita64/bin/../lib/gcc/aarch64-none-elf/8.3.0/../../../../aarch64-none-elf/lib/pic\libsysbase.a(malloc_vars.o)
                              main.o (fake_heap_start)
c:/devkitpro/devkita64/bin/../lib/gcc/aarch64-none-elf/8.3.0/../../../../aarch64-none-elf/lib/pic\libsysbase.a(chdir.o)
                              S:/UltimateEnvironment/code-mod-example/param-replace/code-mod-framework/lib/libnx_min/nx/lib\libnx_min.a(fs_dev.o) (chdir)
c:/devkitpro/devkita64/bin/../lib/gcc/aarch64-none-elf/8.3.0/../../../../aarch64-none-elf/lib/pic\libsysbase.a(locks.o)
                              S:/UltimateEnvironment/code-mod-example/param-replace/code-mod-framework/lib/libnx_min/nx/lib\libnx_min.a(newlib.o) (timespec2nsec)
c:/devkitpro/devkita64/bin/../lib/gcc/aarch64-none-elf/8.3.0/../../../../aarch64-none-elf/lib/pic\libsysbase.a(getreent.o)
                              S:/UltimateEnvironment/code-mod-example/param-replace/code-mod-framework/lib/libnx_min/nx/lib\libnx_min.a(fs_dev.o) (__getreent)
c:/devkitpro/devkita64/bin/../lib/gcc/aarch64-none-elf/8.3.0/../../../../aarch64-none-elf/lib/pic\libsysbase.a(clocks.o)
                              c:/devkitpro/devkita64/bin/../lib/gcc/aarch64-none-elf/8.3.0/../../../../aarch64-none-elf/lib/pic\libsysbase.a(locks.o) (clock_gettime)
c:/devkitpro/devkita64/bin/../lib/gcc/aarch64-none-elf/8.3.0/pic\libgcc.a(trunctfdf2.o)
                              c:/devkitpro/devkita64/bin/../lib/gcc/aarch64-none-elf/8.3.0/../../../../aarch64-none-elf/lib/pic\libg.a(lib_a-svfprintf.o) (__trunctfdf2)
c:/devkitpro/devkita64/bin/../lib/gcc/aarch64-none-elf/8.3.0/pic\libgcc.a(sfp-exceptions.o)
                              c:/devkitpro/devkita64/bin/../lib/gcc/aarch64-none-elf/8.3.0/pic\libgcc.a(trunctfdf2.o) (__sfp_handle_exceptions)
c:/devkitpro/devkita64/bin/../lib/gcc/aarch64-none-elf/8.3.0/../../../../aarch64-none-elf/lib/pic\libg.a(lib_a-strrchr.o)
                              c:/devkitpro/devkita64/bin/../lib/gcc/aarch64-none-elf/8.3.0/../../../../aarch64-none-elf/lib/pic\libsysbase.a(chdir.o) (strrchr)

Allocating common symbols
Common symbol       size              file

__nx_exceptiondump  0x340             S:/UltimateEnvironment/code-mod-example/param-replace/code-mod-framework/lib/libnx_min/nx/lib\libnx_min.a(init.o)
__system_argv       0x8               S:/UltimateEnvironment/code-mod-example/param-replace/code-mod-framework/lib/libnx_min/nx/lib\libnx_min.a(argv.o)
__system_argc       0x4               S:/UltimateEnvironment/code-mod-example/param-replace/code-mod-framework/lib/libnx_min/nx/lib\libnx_min.a(argv.o)
__stack_top         0x8               S:/UltimateEnvironment/code-mod-example/param-replace/code-mod-framework/lib/libnx_min/nx/lib\libnx_min.a(init.o)

Discarded input sections

 .text          0x0000000000000000        0x0 c:/devkitpro/devkita64/bin/../lib/gcc/aarch64-none-elf/8.3.0/pic/crti.o
 .data          0x0000000000000000        0x0 c:/devkitpro/devkita64/bin/../lib/gcc/aarch64-none-elf/8.3.0/pic/crti.o
 .bss           0x0000000000000000        0x0 c:/devkitpro/devkita64/bin/../lib/gcc/aarch64-none-elf/8.3.0/pic/crti.o
 .text          0x0000000000000000        0x0 c:/devkitpro/devkita64/bin/../lib/gcc/aarch64-none-elf/8.3.0/pic/crtbegin.o
 .data          0x0000000000000000        0x0 c:/devkitpro/devkita64/bin/../lib/gcc/aarch64-none-elf/8.3.0/pic/crtbegin.o
 .bss           0x0000000000000000        0x0 c:/devkitpro/devkita64/bin/../lib/gcc/aarch64-none-elf/8.3.0/pic/crtbegin.o
 .data.__dso_handle
                0x0000000000000000        0x8 c:/devkitpro/devkita64/bin/../lib/gcc/aarch64-none-elf/8.3.0/pic/crtbegin.o
 .comment       0x0000000000000000       0x23 c:/devkitpro/devkita64/bin/../lib/gcc/aarch64-none-elf/8.3.0/pic/crtbegin.o
 .comment       0x0000000000000000       0x23 main.o
 .data          0x0000000000000000        0x0 acmd_wrapper.o
 .bss           0x0000000000000000        0x0 acmd_wrapper.o
 .comment       0x0000000000000000       0x23 acmd_wrapper.o
 .data          0x0000000000000000        0x0 saltysd_helper.o
 .comment       0x0000000000000000       0x23 saltysd_helper.o
 .data          0x0000000000000000        0x0 lua_bind_hash.o
 .bss           0x0000000000000000        0x0 lua_bind_hash.o
 .comment       0x0000000000000000       0x23 lua_bind_hash.o
 .data          0x0000000000000000        0x0 l2c_imports.o
 .bss           0x0000000000000000        0x0 l2c_imports.o
 .comment       0x0000000000000000       0x23 l2c_imports.o
 .data          0x0000000000000000        0x0 raygun_printer.o
 .bss           0x0000000000000000        0x0 raygun_printer.o
 .comment       0x0000000000000000       0x23 raygun_printer.o
 .text          0x0000000000000000        0x0 S:/UltimateEnvironment/code-mod-example/param-replace/code-mod-framework/lib/libnx_min/nx/lib\libnx_min.a(switch_crt0.o)
 .data          0x0000000000000000        0x0 S:/UltimateEnvironment/code-mod-example/param-replace/code-mod-framework/lib/libnx_min/nx/lib\libnx_min.a(switch_crt0.o)
 .bss           0x0000000000000000        0x0 S:/UltimateEnvironment/code-mod-example/param-replace/code-mod-framework/lib/libnx_min/nx/lib\libnx_min.a(switch_crt0.o)
 .debug_line    0x0000000000000000       0xc3 S:/UltimateEnvironment/code-mod-example/param-replace/code-mod-framework/lib/libnx_min/nx/lib\libnx_min.a(switch_crt0.o)
 .debug_info    0x0000000000000000       0x2e S:/UltimateEnvironment/code-mod-example/param-replace/code-mod-framework/lib/libnx_min/nx/lib\libnx_min.a(switch_crt0.o)
 .debug_abbrev  0x0000000000000000       0x14 S:/UltimateEnvironment/code-mod-example/param-replace/code-mod-framework/lib/libnx_min/nx/lib\libnx_min.a(switch_crt0.o)
 .debug_aranges
                0x0000000000000000       0x30 S:/UltimateEnvironment/code-mod-example/param-replace/code-mod-framework/lib/libnx_min/nx/lib\libnx_min.a(switch_crt0.o)
 .debug_str     0x0000000000000000       0xc1 S:/UltimateEnvironment/code-mod-example/param-replace/code-mod-framework/lib/libnx_min/nx/lib\libnx_min.a(switch_crt0.o)
 .text          0x0000000000000000        0x0 S:/UltimateEnvironment/code-mod-example/param-replace/code-mod-framework/lib/libnx_min/nx/lib\libnx_min.a(exception.o)
 .data          0x0000000000000000        0x0 S:/UltimateEnvironment/code-mod-example/param-replace/code-mod-framework/lib/libnx_min/nx/lib\libnx_min.a(exception.o)
 .bss           0x0000000000000000        0x0 S:/UltimateEnvironment/code-mod-example/param-replace/code-mod-framework/lib/libnx_min/nx/lib\libnx_min.a(exception.o)
 .debug_line    0x0000000000000000      0x11e S:/UltimateEnvironment/code-mod-example/param-replace/code-mod-framework/lib/libnx_min/nx/lib\libnx_min.a(exception.o)
 .debug_info    0x0000000000000000       0x22 S:/UltimateEnvironment/code-mod-example/param-replace/code-mod-framework/lib/libnx_min/nx/lib\libnx_min.a(exception.o)
 .debug_abbrev  0x0000000000000000       0x12 S:/UltimateEnvironment/code-mod-example/param-replace/code-mod-framework/lib/libnx_min/nx/lib\libnx_min.a(exception.o)
 .debug_aranges
                0x0000000000000000       0x40 S:/UltimateEnvironment/code-mod-example/param-replace/code-mod-framework/lib/libnx_min/nx/lib\libnx_min.a(exception.o)
 .debug_str     0x0000000000000000       0xbf S:/UltimateEnvironment/code-mod-example/param-replace/code-mod-framework/lib/libnx_min/nx/lib\libnx_min.a(exception.o)
 .debug_ranges  0x0000000000000000       0x40 S:/UltimateEnvironment/code-mod-example/param-replace/code-mod-framework/lib/libnx_min/nx/lib\libnx_min.a(exception.o)
 .text          0x0000000000000000        0x0 S:/UltimateEnvironment/code-mod-example/param-replace/code-mod-framework/lib/libnx_min/nx/lib\libnx_min.a(argv.o)
 .data          0x0000000000000000        0x0 S:/UltimateEnvironment/code-mod-example/param-replace/code-mod-framework/lib/libnx_min/nx/lib\libnx_min.a(argv.o)
 .bss           0x0000000000000000        0x0 S:/UltimateEnvironment/code-mod-example/param-replace/code-mod-framework/lib/libnx_min/nx/lib\libnx_min.a(argv.o)
 .debug_info    0x0000000000000000      0xe43 S:/UltimateEnvironment/code-mod-example/param-replace/code-mod-framework/lib/libnx_min/nx/lib\libnx_min.a(argv.o)
 .debug_abbrev  0x0000000000000000      0x2de S:/UltimateEnvironment/code-mod-example/param-replace/code-mod-framework/lib/libnx_min/nx/lib\libnx_min.a(argv.o)
 .debug_loc     0x0000000000000000      0x6a8 S:/UltimateEnvironment/code-mod-example/param-replace/code-mod-framework/lib/libnx_min/nx/lib\libnx_min.a(argv.o)
 .debug_aranges
                0x0000000000000000       0x30 S:/UltimateEnvironment/code-mod-example/param-replace/code-mod-framework/lib/libnx_min/nx/lib\libnx_min.a(argv.o)
 .debug_ranges  0x0000000000000000       0x20 S:/UltimateEnvironment/code-mod-example/param-replace/code-mod-framework/lib/libnx_min/nx/lib\libnx_min.a(argv.o)
 .debug_line    0x0000000000000000      0x64d S:/UltimateEnvironment/code-mod-example/param-replace/code-mod-framework/lib/libnx_min/nx/lib\libnx_min.a(argv.o)
 .debug_str     0x0000000000000000      0x874 S:/UltimateEnvironment/code-mod-example/param-replace/code-mod-framework/lib/libnx_min/nx/lib\libnx_min.a(argv.o)
 .comment       0x0000000000000000       0x23 S:/UltimateEnvironment/code-mod-example/param-replace/code-mod-framework/lib/libnx_min/nx/lib\libnx_min.a(argv.o)
 .text          0x0000000000000000        0x0 S:/UltimateEnvironment/code-mod-example/param-replace/code-mod-framework/lib/libnx_min/nx/lib\libnx_min.a(env.o)
 .data          0x0000000000000000        0x0 S:/UltimateEnvironment/code-mod-example/param-replace/code-mod-framework/lib/libnx_min/nx/lib\libnx_min.a(env.o)
 .bss           0x0000000000000000        0x0 S:/UltimateEnvironment/code-mod-example/param-replace/code-mod-framework/lib/libnx_min/nx/lib\libnx_min.a(env.o)
 .debug_info    0x0000000000000000     0x111a S:/UltimateEnvironment/code-mod-example/param-replace/code-mod-framework/lib/libnx_min/nx/lib\libnx_min.a(env.o)
 .debug_abbrev  0x0000000000000000      0x322 S:/UltimateEnvironment/code-mod-example/param-replace/code-mod-framework/lib/libnx_min/nx/lib\libnx_min.a(env.o)
 .debug_loc     0x0000000000000000      0x362 S:/UltimateEnvironment/code-mod-example/param-replace/code-mod-framework/lib/libnx_min/nx/lib\libnx_min.a(env.o)
 .debug_aranges
                0x0000000000000000      0x130 S:/UltimateEnvironment/code-mod-example/param-replace/code-mod-framework/lib/libnx_min/nx/lib\libnx_min.a(env.o)
 .debug_ranges  0x0000000000000000      0x120 S:/UltimateEnvironment/code-mod-example/param-replace/code-mod-framework/lib/libnx_min/nx/lib\libnx_min.a(env.o)
 .debug_line    0x0000000000000000      0x6fe S:/UltimateEnvironment/code-mod-example/param-replace/code-mod-framework/lib/libnx_min/nx/lib\libnx_min.a(env.o)
 .debug_str     0x0000000000000000     0x107e S:/UltimateEnvironment/code-mod-example/param-replace/code-mod-framework/lib/libnx_min/nx/lib\libnx_min.a(env.o)
 .comment       0x0000000000000000       0x23 S:/UltimateEnvironment/code-mod-example/param-replace/code-mod-framework/lib/libnx_min/nx/lib\libnx_min.a(env.o)
 .text          0x0000000000000000        0x0 S:/UltimateEnvironment/code-mod-example/param-replace/code-mod-framework/lib/libnx_min/nx/lib\libnx_min.a(init.o)
 .data          0x0000000000000000        0x0 S:/UltimateEnvironment/code-mod-example/param-replace/code-mod-framework/lib/libnx_min/nx/lib\libnx_min.a(init.o)
 .bss           0x0000000000000000        0x0 S:/UltimateEnvironment/code-mod-example/param-replace/code-mod-framework/lib/libnx_min/nx/lib\libnx_min.a(init.o)
 .text.__libnx_init
                0x0000000000000000       0x28 S:/UltimateEnvironment/code-mod-example/param-replace/code-mod-framework/lib/libnx_min/nx/lib\libnx_min.a(init.o)
 .text.__libnx_exit
                0x0000000000000000       0x20 S:/UltimateEnvironment/code-mod-example/param-replace/code-mod-framework/lib/libnx_min/nx/lib\libnx_min.a(init.o)
 .debug_info    0x0000000000000000      0xce2 S:/UltimateEnvironment/code-mod-example/param-replace/code-mod-framework/lib/libnx_min/nx/lib\libnx_min.a(init.o)
 .debug_abbrev  0x0000000000000000      0x2a1 S:/UltimateEnvironment/code-mod-example/param-replace/code-mod-framework/lib/libnx_min/nx/lib\libnx_min.a(init.o)
 .debug_loc     0x0000000000000000      0x34a S:/UltimateEnvironment/code-mod-example/param-replace/code-mod-framework/lib/libnx_min/nx/lib\libnx_min.a(init.o)
 .debug_aranges
                0x0000000000000000       0x70 S:/UltimateEnvironment/code-mod-example/param-replace/code-mod-framework/lib/libnx_min/nx/lib\libnx_min.a(init.o)
 .debug_ranges  0x0000000000000000       0xa0 S:/UltimateEnvironment/code-mod-example/param-replace/code-mod-framework/lib/libnx_min/nx/lib\libnx_min.a(init.o)
 .debug_line    0x0000000000000000      0x685 S:/UltimateEnvironment/code-mod-example/param-replace/code-mod-framework/lib/libnx_min/nx/lib\libnx_min.a(init.o)
 .debug_str     0x0000000000000000      0xf19 S:/UltimateEnvironment/code-mod-example/param-replace/code-mod-framework/lib/libnx_min/nx/lib\libnx_min.a(init.o)
 .comment       0x0000000000000000       0x23 S:/UltimateEnvironment/code-mod-example/param-replace/code-mod-framework/lib/libnx_min/nx/lib\libnx_min.a(init.o)
 .text          0x0000000000000000        0x0 S:/UltimateEnvironment/code-mod-example/param-replace/code-mod-framework/lib/libnx_min/nx/lib\libnx_min.a(hosversion.o)
 .data          0x0000000000000000        0x0 S:/UltimateEnvironment/code-mod-example/param-replace/code-mod-framework/lib/libnx_min/nx/lib\libnx_min.a(hosversion.o)
 .bss           0x0000000000000000        0x0 S:/UltimateEnvironment/code-mod-example/param-replace/code-mod-framework/lib/libnx_min/nx/lib\libnx_min.a(hosversion.o)
 .debug_info    0x0000000000000000      0x103 S:/UltimateEnvironment/code-mod-example/param-replace/code-mod-framework/lib/libnx_min/nx/lib\libnx_min.a(hosversion.o)
 .debug_abbrev  0x0000000000000000       0xa2 S:/UltimateEnvironment/code-mod-example/param-replace/code-mod-framework/lib/libnx_min/nx/lib\libnx_min.a(hosversion.o)
 .debug_aranges
                0x0000000000000000       0x40 S:/UltimateEnvironment/code-mod-example/param-replace/code-mod-framework/lib/libnx_min/nx/lib\libnx_min.a(hosversion.o)
 .debug_ranges  0x0000000000000000       0x30 S:/UltimateEnvironment/code-mod-example/param-replace/code-mod-framework/lib/libnx_min/nx/lib\libnx_min.a(hosversion.o)
 .debug_line    0x0000000000000000      0x1b0 S:/UltimateEnvironment/code-mod-example/param-replace/code-mod-framework/lib/libnx_min/nx/lib\libnx_min.a(hosversion.o)
 .debug_str     0x0000000000000000      0x234 S:/UltimateEnvironment/code-mod-example/param-replace/code-mod-framework/lib/libnx_min/nx/lib\libnx_min.a(hosversion.o)
 .comment       0x0000000000000000       0x23 S:/UltimateEnvironment/code-mod-example/param-replace/code-mod-framework/lib/libnx_min/nx/lib\libnx_min.a(hosversion.o)
 .text          0x0000000000000000        0x0 S:/UltimateEnvironment/code-mod-example/param-replace/code-mod-framework/lib/libnx_min/nx/lib\libnx_min.a(dynamic.o)
 .data          0x0000000000000000        0x0 S:/UltimateEnvironment/code-mod-example/param-replace/code-mod-framework/lib/libnx_min/nx/lib\libnx_min.a(dynamic.o)
 .bss           0x0000000000000000        0x0 S:/UltimateEnvironment/code-mod-example/param-replace/code-mod-framework/lib/libnx_min/nx/lib\libnx_min.a(dynamic.o)
 .debug_info    0x0000000000000000      0x3c9 S:/UltimateEnvironment/code-mod-example/param-replace/code-mod-framework/lib/libnx_min/nx/lib\libnx_min.a(dynamic.o)
 .debug_abbrev  0x0000000000000000      0x16b S:/UltimateEnvironment/code-mod-example/param-replace/code-mod-framework/lib/libnx_min/nx/lib\libnx_min.a(dynamic.o)
 .debug_loc     0x0000000000000000      0x1b8 S:/UltimateEnvironment/code-mod-example/param-replace/code-mod-framework/lib/libnx_min/nx/lib\libnx_min.a(dynamic.o)
 .debug_aranges
                0x0000000000000000       0x30 S:/UltimateEnvironment/code-mod-example/param-replace/code-mod-framework/lib/libnx_min/nx/lib\libnx_min.a(dynamic.o)
 .debug_ranges  0x0000000000000000       0x20 S:/UltimateEnvironment/code-mod-example/param-replace/code-mod-framework/lib/libnx_min/nx/lib\libnx_min.a(dynamic.o)
 .debug_line    0x0000000000000000      0x2df S:/UltimateEnvironment/code-mod-example/param-replace/code-mod-framework/lib/libnx_min/nx/lib\libnx_min.a(dynamic.o)
 .debug_str     0x0000000000000000      0x837 S:/UltimateEnvironment/code-mod-example/param-replace/code-mod-framework/lib/libnx_min/nx/lib\libnx_min.a(dynamic.o)
 .comment       0x0000000000000000       0x23 S:/UltimateEnvironment/code-mod-example/param-replace/code-mod-framework/lib/libnx_min/nx/lib\libnx_min.a(dynamic.o)
 .text          0x0000000000000000        0x0 S:/UltimateEnvironment/code-mod-example/param-replace/code-mod-framework/lib/libnx_min/nx/lib\libnx_min.a(fs_dev.o)
 .data          0x0000000000000000        0x0 S:/UltimateEnvironment/code-mod-example/param-replace/code-mod-framework/lib/libnx_min/nx/lib\libnx_min.a(fs_dev.o)
 .bss           0x0000000000000000        0x0 S:/UltimateEnvironment/code-mod-example/param-replace/code-mod-framework/lib/libnx_min/nx/lib\libnx_min.a(fs_dev.o)
 .debug_info    0x0000000000000000     0x411e S:/UltimateEnvironment/code-mod-example/param-replace/code-mod-framework/lib/libnx_min/nx/lib\libnx_min.a(fs_dev.o)
 .debug_abbrev  0x0000000000000000      0x5b7 S:/UltimateEnvironment/code-mod-example/param-replace/code-mod-framework/lib/libnx_min/nx/lib\libnx_min.a(fs_dev.o)
 .debug_loc     0x0000000000000000     0x4332 S:/UltimateEnvironment/code-mod-example/param-replace/code-mod-framework/lib/libnx_min/nx/lib\libnx_min.a(fs_dev.o)
 .debug_aranges
                0x0000000000000000      0x2a0 S:/UltimateEnvironment/code-mod-example/param-replace/code-mod-framework/lib/libnx_min/nx/lib\libnx_min.a(fs_dev.o)
 .debug_ranges  0x0000000000000000      0x670 S:/UltimateEnvironment/code-mod-example/param-replace/code-mod-framework/lib/libnx_min/nx/lib\libnx_min.a(fs_dev.o)
 .debug_line    0x0000000000000000     0x1a73 S:/UltimateEnvironment/code-mod-example/param-replace/code-mod-framework/lib/libnx_min/nx/lib\libnx_min.a(fs_dev.o)
 .debug_str     0x0000000000000000     0x1939 S:/UltimateEnvironment/code-mod-example/param-replace/code-mod-framework/lib/libnx_min/nx/lib\libnx_min.a(fs_dev.o)
 .comment       0x0000000000000000       0x23 S:/UltimateEnvironment/code-mod-example/param-replace/code-mod-framework/lib/libnx_min/nx/lib\libnx_min.a(fs_dev.o)
 .text          0x0000000000000000        0x0 S:/UltimateEnvironment/code-mod-example/param-replace/code-mod-framework/lib/libnx_min/nx/lib\libnx_min.a(decode_utf8.o)
 .data          0x0000000000000000        0x0 S:/UltimateEnvironment/code-mod-example/param-replace/code-mod-framework/lib/libnx_min/nx/lib\libnx_min.a(decode_utf8.o)
 .bss           0x0000000000000000        0x0 S:/UltimateEnvironment/code-mod-example/param-replace/code-mod-framework/lib/libnx_min/nx/lib\libnx_min.a(decode_utf8.o)
 .debug_info    0x0000000000000000      0x170 S:/UltimateEnvironment/code-mod-example/param-replace/code-mod-framework/lib/libnx_min/nx/lib\libnx_min.a(decode_utf8.o)
 .debug_abbrev  0x0000000000000000       0x9e S:/UltimateEnvironment/code-mod-example/param-replace/code-mod-framework/lib/libnx_min/nx/lib\libnx_min.a(decode_utf8.o)
 .debug_loc     0x0000000000000000      0x334 S:/UltimateEnvironment/code-mod-example/param-replace/code-mod-framework/lib/libnx_min/nx/lib\libnx_min.a(decode_utf8.o)
 .debug_aranges
                0x0000000000000000       0x30 S:/UltimateEnvironment/code-mod-example/param-replace/code-mod-framework/lib/libnx_min/nx/lib\libnx_min.a(decode_utf8.o)
 .debug_ranges  0x0000000000000000       0x20 S:/UltimateEnvironment/code-mod-example/param-replace/code-mod-framework/lib/libnx_min/nx/lib\libnx_min.a(decode_utf8.o)
 .debug_line    0x0000000000000000      0x28a S:/UltimateEnvironment/code-mod-example/param-replace/code-mod-framework/lib/libnx_min/nx/lib\libnx_min.a(decode_utf8.o)
 .debug_str     0x0000000000000000      0x259 S:/UltimateEnvironment/code-mod-example/param-replace/code-mod-framework/lib/libnx_min/nx/lib\libnx_min.a(decode_utf8.o)
 .comment       0x0000000000000000       0x23 S:/UltimateEnvironment/code-mod-example/param-replace/code-mod-framework/lib/libnx_min/nx/lib\libnx_min.a(decode_utf8.o)
 .text          0x0000000000000000        0x0 S:/UltimateEnvironment/code-mod-example/param-replace/code-mod-framework/lib/libnx_min/nx/lib\libnx_min.a(svc.o)
 .data          0x0000000000000000        0x0 S:/UltimateEnvironment/code-mod-example/param-replace/code-mod-framework/lib/libnx_min/nx/lib\libnx_min.a(svc.o)
 .bss           0x0000000000000000        0x0 S:/UltimateEnvironment/code-mod-example/param-replace/code-mod-framework/lib/libnx_min/nx/lib\libnx_min.a(svc.o)
 .debug_line    0x0000000000000000      0x92d S:/UltimateEnvironment/code-mod-example/param-replace/code-mod-framework/lib/libnx_min/nx/lib\libnx_min.a(svc.o)
 .debug_info    0x0000000000000000       0x22 S:/UltimateEnvironment/code-mod-example/param-replace/code-mod-framework/lib/libnx_min/nx/lib\libnx_min.a(svc.o)
 .debug_abbrev  0x0000000000000000       0x12 S:/UltimateEnvironment/code-mod-example/param-replace/code-mod-framework/lib/libnx_min/nx/lib\libnx_min.a(svc.o)
 .debug_aranges
                0x0000000000000000      0x660 S:/UltimateEnvironment/code-mod-example/param-replace/code-mod-framework/lib/libnx_min/nx/lib\libnx_min.a(svc.o)
 .debug_str     0x0000000000000000       0xb8 S:/UltimateEnvironment/code-mod-example/param-replace/code-mod-framework/lib/libnx_min/nx/lib\libnx_min.a(svc.o)
 .debug_ranges  0x0000000000000000      0x660 S:/UltimateEnvironment/code-mod-example/param-replace/code-mod-framework/lib/libnx_min/nx/lib\libnx_min.a(svc.o)
 .text          0x0000000000000000        0x0 S:/UltimateEnvironment/code-mod-example/param-replace/code-mod-framework/lib/libnx_min/nx/lib\libnx_min.a(readtp.o)
 .data          0x0000000000000000        0x0 S:/UltimateEnvironment/code-mod-example/param-replace/code-mod-framework/lib/libnx_min/nx/lib\libnx_min.a(readtp.o)
 .bss           0x0000000000000000        0x0 S:/UltimateEnvironment/code-mod-example/param-replace/code-mod-framework/lib/libnx_min/nx/lib\libnx_min.a(readtp.o)
 .debug_line    0x0000000000000000       0x93 S:/UltimateEnvironment/code-mod-example/param-replace/code-mod-framework/lib/libnx_min/nx/lib\libnx_min.a(readtp.o)
 .debug_info    0x0000000000000000       0x2e S:/UltimateEnvironment/code-mod-example/param-replace/code-mod-framework/lib/libnx_min/nx/lib\libnx_min.a(readtp.o)
 .debug_abbrev  0x0000000000000000       0x14 S:/UltimateEnvironment/code-mod-example/param-replace/code-mod-framework/lib/libnx_min/nx/lib\libnx_min.a(readtp.o)
 .debug_aranges
                0x0000000000000000       0x30 S:/UltimateEnvironment/code-mod-example/param-replace/code-mod-framework/lib/libnx_min/nx/lib\libnx_min.a(readtp.o)
 .debug_str     0x0000000000000000       0xbc S:/UltimateEnvironment/code-mod-example/param-replace/code-mod-framework/lib/libnx_min/nx/lib\libnx_min.a(readtp.o)
 .text          0x0000000000000000        0x0 S:/UltimateEnvironment/code-mod-example/param-replace/code-mod-framework/lib/libnx_min/nx/lib\libnx_min.a(virtmem.o)
 .data          0x0000000000000000        0x0 S:/UltimateEnvironment/code-mod-example/param-replace/code-mod-framework/lib/libnx_min/nx/lib\libnx_min.a(virtmem.o)
 .bss           0x0000000000000000        0x0 S:/UltimateEnvironment/code-mod-example/param-replace/code-mod-framework/lib/libnx_min/nx/lib\libnx_min.a(virtmem.o)
 .debug_info    0x0000000000000000      0xb52 S:/UltimateEnvironment/code-mod-example/param-replace/code-mod-framework/lib/libnx_min/nx/lib\libnx_min.a(virtmem.o)
 .debug_abbrev  0x0000000000000000      0x2cf S:/UltimateEnvironment/code-mod-example/param-replace/code-mod-framework/lib/libnx_min/nx/lib\libnx_min.a(virtmem.o)
 .debug_loc     0x0000000000000000      0x668 S:/UltimateEnvironment/code-mod-example/param-replace/code-mod-framework/lib/libnx_min/nx/lib\libnx_min.a(virtmem.o)
 .debug_aranges
                0x0000000000000000       0x70 S:/UltimateEnvironment/code-mod-example/param-replace/code-mod-framework/lib/libnx_min/nx/lib\libnx_min.a(virtmem.o)
 .debug_ranges  0x0000000000000000      0x170 S:/UltimateEnvironment/code-mod-example/param-replace/code-mod-framework/lib/libnx_min/nx/lib\libnx_min.a(virtmem.o)
 .debug_line    0x0000000000000000      0x60f S:/UltimateEnvironment/code-mod-example/param-replace/code-mod-framework/lib/libnx_min/nx/lib\libnx_min.a(virtmem.o)
 .debug_str     0x0000000000000000      0xbfa S:/UltimateEnvironment/code-mod-example/param-replace/code-mod-framework/lib/libnx_min/nx/lib\libnx_min.a(virtmem.o)
 .comment       0x0000000000000000       0x23 S:/UltimateEnvironment/code-mod-example/param-replace/code-mod-framework/lib/libnx_min/nx/lib\libnx_min.a(virtmem.o)
 .text          0x0000000000000000        0x0 S:/UltimateEnvironment/code-mod-example/param-replace/code-mod-framework/lib/libnx_min/nx/lib\libnx_min.a(mutex.o)
 .data          0x0000000000000000        0x0 S:/UltimateEnvironment/code-mod-example/param-replace/code-mod-framework/lib/libnx_min/nx/lib\libnx_min.a(mutex.o)
 .bss           0x0000000000000000        0x0 S:/UltimateEnvironment/code-mod-example/param-replace/code-mod-framework/lib/libnx_min/nx/lib\libnx_min.a(mutex.o)
 .debug_info    0x0000000000000000      0x782 S:/UltimateEnvironment/code-mod-example/param-replace/code-mod-framework/lib/libnx_min/nx/lib\libnx_min.a(mutex.o)
 .debug_abbrev  0x0000000000000000      0x1fe S:/UltimateEnvironment/code-mod-example/param-replace/code-mod-framework/lib/libnx_min/nx/lib\libnx_min.a(mutex.o)
 .debug_loc     0x0000000000000000      0x3d1 S:/UltimateEnvironment/code-mod-example/param-replace/code-mod-framework/lib/libnx_min/nx/lib\libnx_min.a(mutex.o)
 .debug_aranges
                0x0000000000000000       0x80 S:/UltimateEnvironment/code-mod-example/param-replace/code-mod-framework/lib/libnx_min/nx/lib\libnx_min.a(mutex.o)
 .debug_ranges  0x0000000000000000      0x470 S:/UltimateEnvironment/code-mod-example/param-replace/code-mod-framework/lib/libnx_min/nx/lib\libnx_min.a(mutex.o)
 .debug_line    0x0000000000000000      0x5e6 S:/UltimateEnvironment/code-mod-example/param-replace/code-mod-framework/lib/libnx_min/nx/lib\libnx_min.a(mutex.o)
 .debug_str     0x0000000000000000      0x3a4 S:/UltimateEnvironment/code-mod-example/param-replace/code-mod-framework/lib/libnx_min/nx/lib\libnx_min.a(mutex.o)
 .comment       0x0000000000000000       0x23 S:/UltimateEnvironment/code-mod-example/param-replace/code-mod-framework/lib/libnx_min/nx/lib\libnx_min.a(mutex.o)
 .text          0x0000000000000000        0x0 S:/UltimateEnvironment/code-mod-example/param-replace/code-mod-framework/lib/libnx_min/nx/lib\libnx_min.a(fs.o)
 .data          0x0000000000000000        0x0 S:/UltimateEnvironment/code-mod-example/param-replace/code-mod-framework/lib/libnx_min/nx/lib\libnx_min.a(fs.o)
 .bss           0x0000000000000000        0x0 S:/UltimateEnvironment/code-mod-example/param-replace/code-mod-framework/lib/libnx_min/nx/lib\libnx_min.a(fs.o)
 .debug_info    0x0000000000000000    0x148db S:/UltimateEnvironment/code-mod-example/param-replace/code-mod-framework/lib/libnx_min/nx/lib\libnx_min.a(fs.o)
 .debug_abbrev  0x0000000000000000      0x6cd S:/UltimateEnvironment/code-mod-example/param-replace/code-mod-framework/lib/libnx_min/nx/lib\libnx_min.a(fs.o)
 .debug_loc     0x0000000000000000    0x23e9b S:/UltimateEnvironment/code-mod-example/param-replace/code-mod-framework/lib/libnx_min/nx/lib\libnx_min.a(fs.o)
 .debug_aranges
                0x0000000000000000      0x4a0 S:/UltimateEnvironment/code-mod-example/param-replace/code-mod-framework/lib/libnx_min/nx/lib\libnx_min.a(fs.o)
 .debug_ranges  0x0000000000000000     0xb5b0 S:/UltimateEnvironment/code-mod-example/param-replace/code-mod-framework/lib/libnx_min/nx/lib\libnx_min.a(fs.o)
 .debug_line    0x0000000000000000     0xb1b2 S:/UltimateEnvironment/code-mod-example/param-replace/code-mod-framework/lib/libnx_min/nx/lib\libnx_min.a(fs.o)
 .debug_str     0x0000000000000000     0x23e6 S:/UltimateEnvironment/code-mod-example/param-replace/code-mod-framework/lib/libnx_min/nx/lib\libnx_min.a(fs.o)
 .comment       0x0000000000000000       0x23 S:/UltimateEnvironment/code-mod-example/param-replace/code-mod-framework/lib/libnx_min/nx/lib\libnx_min.a(fs.o)
 .text          0x0000000000000000        0x0 S:/UltimateEnvironment/code-mod-example/param-replace/code-mod-framework/lib/libnx_min/nx/lib\libnx_min.a(set.o)
 .data          0x0000000000000000        0x0 S:/UltimateEnvironment/code-mod-example/param-replace/code-mod-framework/lib/libnx_min/nx/lib\libnx_min.a(set.o)
 .bss           0x0000000000000000        0x0 S:/UltimateEnvironment/code-mod-example/param-replace/code-mod-framework/lib/libnx_min/nx/lib\libnx_min.a(set.o)
 .debug_info    0x0000000000000000     0x692b S:/UltimateEnvironment/code-mod-example/param-replace/code-mod-framework/lib/libnx_min/nx/lib\libnx_min.a(set.o)
 .debug_abbrev  0x0000000000000000      0x5eb S:/UltimateEnvironment/code-mod-example/param-replace/code-mod-framework/lib/libnx_min/nx/lib\libnx_min.a(set.o)
 .debug_loc     0x0000000000000000     0xc88f S:/UltimateEnvironment/code-mod-example/param-replace/code-mod-framework/lib/libnx_min/nx/lib\libnx_min.a(set.o)
 .debug_aranges
                0x0000000000000000      0x1d0 S:/UltimateEnvironment/code-mod-example/param-replace/code-mod-framework/lib/libnx_min/nx/lib\libnx_min.a(set.o)
 .debug_ranges  0x0000000000000000     0x25f0 S:/UltimateEnvironment/code-mod-example/param-replace/code-mod-framework/lib/libnx_min/nx/lib\libnx_min.a(set.o)
 .debug_line    0x0000000000000000     0x3101 S:/UltimateEnvironment/code-mod-example/param-replace/code-mod-framework/lib/libnx_min/nx/lib\libnx_min.a(set.o)
 .debug_str     0x0000000000000000     0x1b23 S:/UltimateEnvironment/code-mod-example/param-replace/code-mod-framework/lib/libnx_min/nx/lib\libnx_min.a(set.o)
 .comment       0x0000000000000000       0x23 S:/UltimateEnvironment/code-mod-example/param-replace/code-mod-framework/lib/libnx_min/nx/lib\libnx_min.a(set.o)
 .text          0x0000000000000000        0x0 S:/UltimateEnvironment/code-mod-example/param-replace/code-mod-framework/lib/libnx_min/nx/lib\libnx_min.a(fatal.o)
 .data          0x0000000000000000        0x0 S:/UltimateEnvironment/code-mod-example/param-replace/code-mod-framework/lib/libnx_min/nx/lib\libnx_min.a(fatal.o)
 .bss           0x0000000000000000        0x0 S:/UltimateEnvironment/code-mod-example/param-replace/code-mod-framework/lib/libnx_min/nx/lib\libnx_min.a(fatal.o)
 .debug_info    0x0000000000000000      0xd6e S:/UltimateEnvironment/code-mod-example/param-replace/code-mod-framework/lib/libnx_min/nx/lib\libnx_min.a(fatal.o)
 .debug_abbrev  0x0000000000000000      0x393 S:/UltimateEnvironment/code-mod-example/param-replace/code-mod-framework/lib/libnx_min/nx/lib\libnx_min.a(fatal.o)
 .debug_loc     0x0000000000000000      0x895 S:/UltimateEnvironment/code-mod-example/param-replace/code-mod-framework/lib/libnx_min/nx/lib\libnx_min.a(fatal.o)
 .debug_aranges
                0x0000000000000000       0x60 S:/UltimateEnvironment/code-mod-example/param-replace/code-mod-framework/lib/libnx_min/nx/lib\libnx_min.a(fatal.o)
 .debug_ranges  0x0000000000000000      0x240 S:/UltimateEnvironment/code-mod-example/param-replace/code-mod-framework/lib/libnx_min/nx/lib\libnx_min.a(fatal.o)
 .debug_line    0x0000000000000000      0x5c9 S:/UltimateEnvironment/code-mod-example/param-replace/code-mod-framework/lib/libnx_min/nx/lib\libnx_min.a(fatal.o)
 .debug_str     0x0000000000000000      0x763 S:/UltimateEnvironment/code-mod-example/param-replace/code-mod-framework/lib/libnx_min/nx/lib\libnx_min.a(fatal.o)
 .comment       0x0000000000000000       0x23 S:/UltimateEnvironment/code-mod-example/param-replace/code-mod-framework/lib/libnx_min/nx/lib\libnx_min.a(fatal.o)
 .text          0x0000000000000000        0x0 S:/UltimateEnvironment/code-mod-example/param-replace/code-mod-framework/lib/libnx_min/nx/lib\libnx_min.a(sm.o)
 .data          0x0000000000000000        0x0 S:/UltimateEnvironment/code-mod-example/param-replace/code-mod-framework/lib/libnx_min/nx/lib\libnx_min.a(sm.o)
 .bss           0x0000000000000000        0x0 S:/UltimateEnvironment/code-mod-example/param-replace/code-mod-framework/lib/libnx_min/nx/lib\libnx_min.a(sm.o)
 .debug_info    0x0000000000000000     0x34eb S:/UltimateEnvironment/code-mod-example/param-replace/code-mod-framework/lib/libnx_min/nx/lib\libnx_min.a(sm.o)
 .debug_abbrev  0x0000000000000000      0x4c4 S:/UltimateEnvironment/code-mod-example/param-replace/code-mod-framework/lib/libnx_min/nx/lib\libnx_min.a(sm.o)
 .debug_loc     0x0000000000000000     0x5a55 S:/UltimateEnvironment/code-mod-example/param-replace/code-mod-framework/lib/libnx_min/nx/lib\libnx_min.a(sm.o)
 .debug_aranges
                0x0000000000000000       0xe0 S:/UltimateEnvironment/code-mod-example/param-replace/code-mod-framework/lib/libnx_min/nx/lib\libnx_min.a(sm.o)
 .debug_ranges  0x0000000000000000     0x1160 S:/UltimateEnvironment/code-mod-example/param-replace/code-mod-framework/lib/libnx_min/nx/lib\libnx_min.a(sm.o)
 .debug_line    0x0000000000000000     0x175a S:/UltimateEnvironment/code-mod-example/param-replace/code-mod-framework/lib/libnx_min/nx/lib\libnx_min.a(sm.o)
 .debug_str     0x0000000000000000     0x150b S:/UltimateEnvironment/code-mod-example/param-replace/code-mod-framework/lib/libnx_min/nx/lib\libnx_min.a(sm.o)
 .comment       0x0000000000000000       0x23 S:/UltimateEnvironment/code-mod-example/param-replace/code-mod-framework/lib/libnx_min/nx/lib\libnx_min.a(sm.o)
 .text          0x0000000000000000        0x0 S:/UltimateEnvironment/code-mod-example/param-replace/code-mod-framework/lib/libnx_min/nx/lib\libnx_min.a(hid.o)
 .data          0x0000000000000000        0x0 S:/UltimateEnvironment/code-mod-example/param-replace/code-mod-framework/lib/libnx_min/nx/lib\libnx_min.a(hid.o)
 .bss           0x0000000000000000        0x0 S:/UltimateEnvironment/code-mod-example/param-replace/code-mod-framework/lib/libnx_min/nx/lib\libnx_min.a(hid.o)
 .debug_info    0x0000000000000000     0xb19f S:/UltimateEnvironment/code-mod-example/param-replace/code-mod-framework/lib/libnx_min/nx/lib\libnx_min.a(hid.o)
 .debug_abbrev  0x0000000000000000      0x743 S:/UltimateEnvironment/code-mod-example/param-replace/code-mod-framework/lib/libnx_min/nx/lib\libnx_min.a(hid.o)
 .debug_loc     0x0000000000000000    0x1192e S:/UltimateEnvironment/code-mod-example/param-replace/code-mod-framework/lib/libnx_min/nx/lib\libnx_min.a(hid.o)
 .debug_aranges
                0x0000000000000000      0x450 S:/UltimateEnvironment/code-mod-example/param-replace/code-mod-framework/lib/libnx_min/nx/lib\libnx_min.a(hid.o)
 .debug_ranges  0x0000000000000000     0x3140 S:/UltimateEnvironment/code-mod-example/param-replace/code-mod-framework/lib/libnx_min/nx/lib\libnx_min.a(hid.o)
 .debug_line    0x0000000000000000     0x5037 S:/UltimateEnvironment/code-mod-example/param-replace/code-mod-framework/lib/libnx_min/nx/lib\libnx_min.a(hid.o)
 .debug_str     0x0000000000000000     0x338c S:/UltimateEnvironment/code-mod-example/param-replace/code-mod-framework/lib/libnx_min/nx/lib\libnx_min.a(hid.o)
 .comment       0x0000000000000000       0x23 S:/UltimateEnvironment/code-mod-example/param-replace/code-mod-framework/lib/libnx_min/nx/lib\libnx_min.a(hid.o)
 .text          0x0000000000000000        0x0 S:/UltimateEnvironment/code-mod-example/param-replace/code-mod-framework/lib/libnx_min/nx/lib\libnx_min.a(time.o)
 .data          0x0000000000000000        0x0 S:/UltimateEnvironment/code-mod-example/param-replace/code-mod-framework/lib/libnx_min/nx/lib\libnx_min.a(time.o)
 .bss           0x0000000000000000        0x0 S:/UltimateEnvironment/code-mod-example/param-replace/code-mod-framework/lib/libnx_min/nx/lib\libnx_min.a(time.o)
 .debug_info    0x0000000000000000     0x2f93 S:/UltimateEnvironment/code-mod-example/param-replace/code-mod-framework/lib/libnx_min/nx/lib\libnx_min.a(time.o)
 .debug_abbrev  0x0000000000000000      0x544 S:/UltimateEnvironment/code-mod-example/param-replace/code-mod-framework/lib/libnx_min/nx/lib\libnx_min.a(time.o)
 .debug_loc     0x0000000000000000     0x36b5 S:/UltimateEnvironment/code-mod-example/param-replace/code-mod-framework/lib/libnx_min/nx/lib\libnx_min.a(time.o)
 .debug_aranges
                0x0000000000000000       0xa0 S:/UltimateEnvironment/code-mod-example/param-replace/code-mod-framework/lib/libnx_min/nx/lib\libnx_min.a(time.o)
 .debug_ranges  0x0000000000000000      0xa70 S:/UltimateEnvironment/code-mod-example/param-replace/code-mod-framework/lib/libnx_min/nx/lib\libnx_min.a(time.o)
 .debug_line    0x0000000000000000     0x10ba S:/UltimateEnvironment/code-mod-example/param-replace/code-mod-framework/lib/libnx_min/nx/lib\libnx_min.a(time.o)
 .debug_str     0x0000000000000000     0x151b S:/UltimateEnvironment/code-mod-example/param-replace/code-mod-framework/lib/libnx_min/nx/lib\libnx_min.a(time.o)
 .comment       0x0000000000000000       0x23 S:/UltimateEnvironment/code-mod-example/param-replace/code-mod-framework/lib/libnx_min/nx/lib\libnx_min.a(time.o)
 .text          0x0000000000000000        0x0 S:/UltimateEnvironment/code-mod-example/param-replace/code-mod-framework/lib/libnx_min/nx/lib\libnx_min.a(applet.o)
 .data          0x0000000000000000        0x0 S:/UltimateEnvironment/code-mod-example/param-replace/code-mod-framework/lib/libnx_min/nx/lib\libnx_min.a(applet.o)
 .bss           0x0000000000000000        0x0 S:/UltimateEnvironment/code-mod-example/param-replace/code-mod-framework/lib/libnx_min/nx/lib\libnx_min.a(applet.o)
 .data.__nx_applet_type
                0x0000000000000000        0x4 S:/UltimateEnvironment/code-mod-example/param-replace/code-mod-framework/lib/libnx_min/nx/lib\libnx_min.a(applet.o)
 .debug_info    0x0000000000000000    0x1572b S:/UltimateEnvironment/code-mod-example/param-replace/code-mod-framework/lib/libnx_min/nx/lib\libnx_min.a(applet.o)
 .debug_abbrev  0x0000000000000000      0x76e S:/UltimateEnvironment/code-mod-example/param-replace/code-mod-framework/lib/libnx_min/nx/lib\libnx_min.a(applet.o)
 .debug_loc     0x0000000000000000    0x20f04 S:/UltimateEnvironment/code-mod-example/param-replace/code-mod-framework/lib/libnx_min/nx/lib\libnx_min.a(applet.o)
 .debug_aranges
                0x0000000000000000      0x730 S:/UltimateEnvironment/code-mod-example/param-replace/code-mod-framework/lib/libnx_min/nx/lib\libnx_min.a(applet.o)
 .debug_ranges  0x0000000000000000     0x8b40 S:/UltimateEnvironment/code-mod-example/param-replace/code-mod-framework/lib/libnx_min/nx/lib\libnx_min.a(applet.o)
 .debug_line    0x0000000000000000     0xadb0 S:/UltimateEnvironment/code-mod-example/param-replace/code-mod-framework/lib/libnx_min/nx/lib\libnx_min.a(applet.o)
 .debug_str     0x0000000000000000     0x30c0 S:/UltimateEnvironment/code-mod-example/param-replace/code-mod-framework/lib/libnx_min/nx/lib\libnx_min.a(applet.o)
 .comment       0x0000000000000000       0x23 S:/UltimateEnvironment/code-mod-example/param-replace/code-mod-framework/lib/libnx_min/nx/lib\libnx_min.a(applet.o)
 .text          0x0000000000000000        0x0 S:/UltimateEnvironment/code-mod-example/param-replace/code-mod-framework/lib/libnx_min/nx/lib\libnx_min.a(newlib.o)
 .data          0x0000000000000000        0x0 S:/UltimateEnvironment/code-mod-example/param-replace/code-mod-framework/lib/libnx_min/nx/lib\libnx_min.a(newlib.o)
 .bss           0x0000000000000000        0x0 S:/UltimateEnvironment/code-mod-example/param-replace/code-mod-framework/lib/libnx_min/nx/lib\libnx_min.a(newlib.o)
 .debug_info    0x0000000000000000     0x2bc2 S:/UltimateEnvironment/code-mod-example/param-replace/code-mod-framework/lib/libnx_min/nx/lib\libnx_min.a(newlib.o)
 .debug_abbrev  0x0000000000000000      0x571 S:/UltimateEnvironment/code-mod-example/param-replace/code-mod-framework/lib/libnx_min/nx/lib\libnx_min.a(newlib.o)
 .debug_loc     0x0000000000000000     0x192e S:/UltimateEnvironment/code-mod-example/param-replace/code-mod-framework/lib/libnx_min/nx/lib\libnx_min.a(newlib.o)
 .debug_aranges
                0x0000000000000000      0x1f0 S:/UltimateEnvironment/code-mod-example/param-replace/code-mod-framework/lib/libnx_min/nx/lib\libnx_min.a(newlib.o)
 .debug_ranges  0x0000000000000000      0x4e0 S:/UltimateEnvironment/code-mod-example/param-replace/code-mod-framework/lib/libnx_min/nx/lib\libnx_min.a(newlib.o)
 .debug_line    0x0000000000000000     0x10e9 S:/UltimateEnvironment/code-mod-example/param-replace/code-mod-framework/lib/libnx_min/nx/lib\libnx_min.a(newlib.o)
 .debug_str     0x0000000000000000     0x18ae S:/UltimateEnvironment/code-mod-example/param-replace/code-mod-framework/lib/libnx_min/nx/lib\libnx_min.a(newlib.o)
 .comment       0x0000000000000000       0x23 S:/UltimateEnvironment/code-mod-example/param-replace/code-mod-framework/lib/libnx_min/nx/lib\libnx_min.a(newlib.o)
 .text          0x0000000000000000        0x0 S:/UltimateEnvironment/code-mod-example/param-replace/code-mod-framework/lib/libnx_min/nx/lib\libnx_min.a(thread.o)
 .data          0x0000000000000000        0x0 S:/UltimateEnvironment/code-mod-example/param-replace/code-mod-framework/lib/libnx_min/nx/lib\libnx_min.a(thread.o)
 .bss           0x0000000000000000        0x0 S:/UltimateEnvironment/code-mod-example/param-replace/code-mod-framework/lib/libnx_min/nx/lib\libnx_min.a(thread.o)
 .debug_info    0x0000000000000000     0x1a68 S:/UltimateEnvironment/code-mod-example/param-replace/code-mod-framework/lib/libnx_min/nx/lib\libnx_min.a(thread.o)
 .debug_abbrev  0x0000000000000000      0x492 S:/UltimateEnvironment/code-mod-example/param-replace/code-mod-framework/lib/libnx_min/nx/lib\libnx_min.a(thread.o)
 .debug_loc     0x0000000000000000      0xbd2 S:/UltimateEnvironment/code-mod-example/param-replace/code-mod-framework/lib/libnx_min/nx/lib\libnx_min.a(thread.o)
 .debug_aranges
                0x0000000000000000      0x100 S:/UltimateEnvironment/code-mod-example/param-replace/code-mod-framework/lib/libnx_min/nx/lib\libnx_min.a(thread.o)
 .debug_ranges  0x0000000000000000      0x320 S:/UltimateEnvironment/code-mod-example/param-replace/code-mod-framework/lib/libnx_min/nx/lib\libnx_min.a(thread.o)
 .debug_line    0x0000000000000000      0xa2c S:/UltimateEnvironment/code-mod-example/param-replace/code-mod-framework/lib/libnx_min/nx/lib\libnx_min.a(thread.o)
 .debug_str     0x0000000000000000      0xfee S:/UltimateEnvironment/code-mod-example/param-replace/code-mod-framework/lib/libnx_min/nx/lib\libnx_min.a(thread.o)
 .comment       0x0000000000000000       0x23 S:/UltimateEnvironment/code-mod-example/param-replace/code-mod-framework/lib/libnx_min/nx/lib\libnx_min.a(thread.o)
 .text          0x0000000000000000        0x0 S:/UltimateEnvironment/code-mod-example/param-replace/code-mod-framework/lib/libnx_min/nx/lib\libnx_min.a(condvar.o)
 .data          0x0000000000000000        0x0 S:/UltimateEnvironment/code-mod-example/param-replace/code-mod-framework/lib/libnx_min/nx/lib\libnx_min.a(condvar.o)
 .bss           0x0000000000000000        0x0 S:/UltimateEnvironment/code-mod-example/param-replace/code-mod-framework/lib/libnx_min/nx/lib\libnx_min.a(condvar.o)
 .debug_info    0x0000000000000000      0x396 S:/UltimateEnvironment/code-mod-example/param-replace/code-mod-framework/lib/libnx_min/nx/lib\libnx_min.a(condvar.o)
 .debug_abbrev  0x0000000000000000      0x1aa S:/UltimateEnvironment/code-mod-example/param-replace/code-mod-framework/lib/libnx_min/nx/lib\libnx_min.a(condvar.o)
 .debug_loc     0x0000000000000000      0x1c1 S:/UltimateEnvironment/code-mod-example/param-replace/code-mod-framework/lib/libnx_min/nx/lib\libnx_min.a(condvar.o)
 .debug_aranges
                0x0000000000000000       0x30 S:/UltimateEnvironment/code-mod-example/param-replace/code-mod-framework/lib/libnx_min/nx/lib\libnx_min.a(condvar.o)
 .debug_ranges  0x0000000000000000       0x60 S:/UltimateEnvironment/code-mod-example/param-replace/code-mod-framework/lib/libnx_min/nx/lib\libnx_min.a(condvar.o)
 .debug_line    0x0000000000000000      0x398 S:/UltimateEnvironment/code-mod-example/param-replace/code-mod-framework/lib/libnx_min/nx/lib\libnx_min.a(condvar.o)
 .debug_str     0x0000000000000000      0x350 S:/UltimateEnvironment/code-mod-example/param-replace/code-mod-framework/lib/libnx_min/nx/lib\libnx_min.a(condvar.o)
 .comment       0x0000000000000000       0x23 S:/UltimateEnvironment/code-mod-example/param-replace/code-mod-framework/lib/libnx_min/nx/lib\libnx_min.a(condvar.o)
 .text          0x0000000000000000        0x0 S:/UltimateEnvironment/code-mod-example/param-replace/code-mod-framework/lib/libnx_min/nx/lib\libnx_min.a(event.o)
 .data          0x0000000000000000        0x0 S:/UltimateEnvironment/code-mod-example/param-replace/code-mod-framework/lib/libnx_min/nx/lib\libnx_min.a(event.o)
 .bss           0x0000000000000000        0x0 S:/UltimateEnvironment/code-mod-example/param-replace/code-mod-framework/lib/libnx_min/nx/lib\libnx_min.a(event.o)
 .debug_info    0x0000000000000000      0x702 S:/UltimateEnvironment/code-mod-example/param-replace/code-mod-framework/lib/libnx_min/nx/lib\libnx_min.a(event.o)
 .debug_abbrev  0x0000000000000000      0x28b S:/UltimateEnvironment/code-mod-example/param-replace/code-mod-framework/lib/libnx_min/nx/lib\libnx_min.a(event.o)
 .debug_loc     0x0000000000000000      0x2e3 S:/UltimateEnvironment/code-mod-example/param-replace/code-mod-framework/lib/libnx_min/nx/lib\libnx_min.a(event.o)
 .debug_aranges
                0x0000000000000000       0x80 S:/UltimateEnvironment/code-mod-example/param-replace/code-mod-framework/lib/libnx_min/nx/lib\libnx_min.a(event.o)
 .debug_ranges  0x0000000000000000       0xe0 S:/UltimateEnvironment/code-mod-example/param-replace/code-mod-framework/lib/libnx_min/nx/lib\libnx_min.a(event.o)
 .debug_line    0x0000000000000000      0x3a9 S:/UltimateEnvironment/code-mod-example/param-replace/code-mod-framework/lib/libnx_min/nx/lib\libnx_min.a(event.o)
 .debug_str     0x0000000000000000      0x950 S:/UltimateEnvironment/code-mod-example/param-replace/code-mod-framework/lib/libnx_min/nx/lib\libnx_min.a(event.o)
 .comment       0x0000000000000000       0x23 S:/UltimateEnvironment/code-mod-example/param-replace/code-mod-framework/lib/libnx_min/nx/lib\libnx_min.a(event.o)
 .text          0x0000000000000000        0x0 S:/UltimateEnvironment/code-mod-example/param-replace/code-mod-framework/lib/libnx_min/nx/lib\libnx_min.a(tmem.o)
 .data          0x0000000000000000        0x0 S:/UltimateEnvironment/code-mod-example/param-replace/code-mod-framework/lib/libnx_min/nx/lib\libnx_min.a(tmem.o)
 .bss           0x0000000000000000        0x0 S:/UltimateEnvironment/code-mod-example/param-replace/code-mod-framework/lib/libnx_min/nx/lib\libnx_min.a(tmem.o)
 .debug_info    0x0000000000000000     0x100a S:/UltimateEnvironment/code-mod-example/param-replace/code-mod-framework/lib/libnx_min/nx/lib\libnx_min.a(tmem.o)
 .debug_abbrev  0x0000000000000000      0x3a2 S:/UltimateEnvironment/code-mod-example/param-replace/code-mod-framework/lib/libnx_min/nx/lib\libnx_min.a(tmem.o)
 .debug_loc     0x0000000000000000      0x6e2 S:/UltimateEnvironment/code-mod-example/param-replace/code-mod-framework/lib/libnx_min/nx/lib\libnx_min.a(tmem.o)
 .debug_aranges
                0x0000000000000000       0x80 S:/UltimateEnvironment/code-mod-example/param-replace/code-mod-framework/lib/libnx_min/nx/lib\libnx_min.a(tmem.o)
 .debug_ranges  0x0000000000000000       0xf0 S:/UltimateEnvironment/code-mod-example/param-replace/code-mod-framework/lib/libnx_min/nx/lib\libnx_min.a(tmem.o)
 .debug_line    0x0000000000000000      0x507 S:/UltimateEnvironment/code-mod-example/param-replace/code-mod-framework/lib/libnx_min/nx/lib\libnx_min.a(tmem.o)
 .debug_str     0x0000000000000000      0xd4f S:/UltimateEnvironment/code-mod-example/param-replace/code-mod-framework/lib/libnx_min/nx/lib\libnx_min.a(tmem.o)
 .comment       0x0000000000000000       0x23 S:/UltimateEnvironment/code-mod-example/param-replace/code-mod-framework/lib/libnx_min/nx/lib\libnx_min.a(tmem.o)
 .text          0x0000000000000000        0x0 S:/UltimateEnvironment/code-mod-example/param-replace/code-mod-framework/lib/libnx_min/nx/lib\libnx_min.a(rwlock.o)
 .data          0x0000000000000000        0x0 S:/UltimateEnvironment/code-mod-example/param-replace/code-mod-framework/lib/libnx_min/nx/lib\libnx_min.a(rwlock.o)
 .bss           0x0000000000000000        0x0 S:/UltimateEnvironment/code-mod-example/param-replace/code-mod-framework/lib/libnx_min/nx/lib\libnx_min.a(rwlock.o)
 .debug_info    0x0000000000000000      0x659 S:/UltimateEnvironment/code-mod-example/param-replace/code-mod-framework/lib/libnx_min/nx/lib\libnx_min.a(rwlock.o)
 .debug_abbrev  0x0000000000000000      0x1cc S:/UltimateEnvironment/code-mod-example/param-replace/code-mod-framework/lib/libnx_min/nx/lib\libnx_min.a(rwlock.o)
 .debug_loc     0x0000000000000000      0x4ab S:/UltimateEnvironment/code-mod-example/param-replace/code-mod-framework/lib/libnx_min/nx/lib\libnx_min.a(rwlock.o)
 .debug_aranges
                0x0000000000000000       0x70 S:/UltimateEnvironment/code-mod-example/param-replace/code-mod-framework/lib/libnx_min/nx/lib\libnx_min.a(rwlock.o)
 .debug_ranges  0x0000000000000000      0x130 S:/UltimateEnvironment/code-mod-example/param-replace/code-mod-framework/lib/libnx_min/nx/lib\libnx_min.a(rwlock.o)
 .debug_line    0x0000000000000000      0x3eb S:/UltimateEnvironment/code-mod-example/param-replace/code-mod-framework/lib/libnx_min/nx/lib\libnx_min.a(rwlock.o)
 .debug_str     0x0000000000000000      0x346 S:/UltimateEnvironment/code-mod-example/param-replace/code-mod-framework/lib/libnx_min/nx/lib\libnx_min.a(rwlock.o)
 .comment       0x0000000000000000       0x23 S:/UltimateEnvironment/code-mod-example/param-replace/code-mod-framework/lib/libnx_min/nx/lib\libnx_min.a(rwlock.o)
 .text          0x0000000000000000        0x0 S:/UltimateEnvironment/code-mod-example/param-replace/code-mod-framework/lib/libnx_min/nx/lib\libnx_min.a(wait.o)
 .data          0x0000000000000000        0x0 S:/UltimateEnvironment/code-mod-example/param-replace/code-mod-framework/lib/libnx_min/nx/lib\libnx_min.a(wait.o)
 .bss           0x0000000000000000        0x0 S:/UltimateEnvironment/code-mod-example/param-replace/code-mod-framework/lib/libnx_min/nx/lib\libnx_min.a(wait.o)
 .debug_info    0x0000000000000000      0xe46 S:/UltimateEnvironment/code-mod-example/param-replace/code-mod-framework/lib/libnx_min/nx/lib\libnx_min.a(wait.o)
 .debug_abbrev  0x0000000000000000      0x35d S:/UltimateEnvironment/code-mod-example/param-replace/code-mod-framework/lib/libnx_min/nx/lib\libnx_min.a(wait.o)
 .debug_loc     0x0000000000000000      0xeb6 S:/UltimateEnvironment/code-mod-example/param-replace/code-mod-framework/lib/libnx_min/nx/lib\libnx_min.a(wait.o)
 .debug_aranges
                0x0000000000000000       0x60 S:/UltimateEnvironment/code-mod-example/param-replace/code-mod-framework/lib/libnx_min/nx/lib\libnx_min.a(wait.o)
 .debug_ranges  0x0000000000000000      0x290 S:/UltimateEnvironment/code-mod-example/param-replace/code-mod-framework/lib/libnx_min/nx/lib\libnx_min.a(wait.o)
 .debug_line    0x0000000000000000      0x7bb S:/UltimateEnvironment/code-mod-example/param-replace/code-mod-framework/lib/libnx_min/nx/lib\libnx_min.a(wait.o)
 .debug_str     0x0000000000000000      0xa07 S:/UltimateEnvironment/code-mod-example/param-replace/code-mod-framework/lib/libnx_min/nx/lib\libnx_min.a(wait.o)
 .comment       0x0000000000000000       0x23 S:/UltimateEnvironment/code-mod-example/param-replace/code-mod-framework/lib/libnx_min/nx/lib\libnx_min.a(wait.o)
 .text          0x0000000000000000        0x0 S:/UltimateEnvironment/code-mod-example/param-replace/code-mod-framework/lib/libnx_min/nx/lib\libnx_min.a(shmem.o)
 .data          0x0000000000000000        0x0 S:/UltimateEnvironment/code-mod-example/param-replace/code-mod-framework/lib/libnx_min/nx/lib\libnx_min.a(shmem.o)
 .bss           0x0000000000000000        0x0 S:/UltimateEnvironment/code-mod-example/param-replace/code-mod-framework/lib/libnx_min/nx/lib\libnx_min.a(shmem.o)
 .debug_info    0x0000000000000000      0xe91 S:/UltimateEnvironment/code-mod-example/param-replace/code-mod-framework/lib/libnx_min/nx/lib\libnx_min.a(shmem.o)
 .debug_abbrev  0x0000000000000000      0x377 S:/UltimateEnvironment/code-mod-example/param-replace/code-mod-framework/lib/libnx_min/nx/lib\libnx_min.a(shmem.o)
 .debug_loc     0x0000000000000000      0x442 S:/UltimateEnvironment/code-mod-example/param-replace/code-mod-framework/lib/libnx_min/nx/lib\libnx_min.a(shmem.o)
 .debug_aranges
                0x0000000000000000       0x70 S:/UltimateEnvironment/code-mod-example/param-replace/code-mod-framework/lib/libnx_min/nx/lib\libnx_min.a(shmem.o)
 .debug_ranges  0x0000000000000000       0xe0 S:/UltimateEnvironment/code-mod-example/param-replace/code-mod-framework/lib/libnx_min/nx/lib\libnx_min.a(shmem.o)
 .debug_line    0x0000000000000000      0x401 S:/UltimateEnvironment/code-mod-example/param-replace/code-mod-framework/lib/libnx_min/nx/lib\libnx_min.a(shmem.o)
 .debug_str     0x0000000000000000      0xc9a S:/UltimateEnvironment/code-mod-example/param-replace/code-mod-framework/lib/libnx_min/nx/lib\libnx_min.a(shmem.o)
 .comment       0x0000000000000000       0x23 S:/UltimateEnvironment/code-mod-example/param-replace/code-mod-framework/lib/libnx_min/nx/lib\libnx_min.a(shmem.o)
 .text          0x0000000000000000        0x0 S:/UltimateEnvironment/code-mod-example/param-replace/code-mod-framework/lib/libnx_min/nx/lib\libnx_min.a(detect.o)
 .data          0x0000000000000000        0x0 S:/UltimateEnvironment/code-mod-example/param-replace/code-mod-framework/lib/libnx_min/nx/lib\libnx_min.a(detect.o)
 .bss           0x0000000000000000        0x0 S:/UltimateEnvironment/code-mod-example/param-replace/code-mod-framework/lib/libnx_min/nx/lib\libnx_min.a(detect.o)
 .debug_info    0x0000000000000000     0x103a S:/UltimateEnvironment/code-mod-example/param-replace/code-mod-framework/lib/libnx_min/nx/lib\libnx_min.a(detect.o)
 .debug_abbrev  0x0000000000000000      0x31e S:/UltimateEnvironment/code-mod-example/param-replace/code-mod-framework/lib/libnx_min/nx/lib\libnx_min.a(detect.o)
 .debug_loc     0x0000000000000000       0xb3 S:/UltimateEnvironment/code-mod-example/param-replace/code-mod-framework/lib/libnx_min/nx/lib\libnx_min.a(detect.o)
 .debug_aranges
                0x0000000000000000       0x60 S:/UltimateEnvironment/code-mod-example/param-replace/code-mod-framework/lib/libnx_min/nx/lib\libnx_min.a(detect.o)
 .debug_ranges  0x0000000000000000      0x130 S:/UltimateEnvironment/code-mod-example/param-replace/code-mod-framework/lib/libnx_min/nx/lib\libnx_min.a(detect.o)
 .debug_line    0x0000000000000000      0x48e S:/UltimateEnvironment/code-mod-example/param-replace/code-mod-framework/lib/libnx_min/nx/lib\libnx_min.a(detect.o)
 .debug_str     0x0000000000000000      0xea7 S:/UltimateEnvironment/code-mod-example/param-replace/code-mod-framework/lib/libnx_min/nx/lib\libnx_min.a(detect.o)
 .comment       0x0000000000000000       0x23 S:/UltimateEnvironment/code-mod-example/param-replace/code-mod-framework/lib/libnx_min/nx/lib\libnx_min.a(detect.o)
 .text          0x0000000000000000        0x0 S:/UltimateEnvironment/code-mod-example/param-replace/code-mod-framework/lib/libnx_min/nx/lib\libnx_min.a(apm.o)
 .data          0x0000000000000000        0x0 S:/UltimateEnvironment/code-mod-example/param-replace/code-mod-framework/lib/libnx_min/nx/lib\libnx_min.a(apm.o)
 .bss           0x0000000000000000        0x0 S:/UltimateEnvironment/code-mod-example/param-replace/code-mod-framework/lib/libnx_min/nx/lib\libnx_min.a(apm.o)
 .debug_info    0x0000000000000000     0x1b13 S:/UltimateEnvironment/code-mod-example/param-replace/code-mod-framework/lib/libnx_min/nx/lib\libnx_min.a(apm.o)
 .debug_abbrev  0x0000000000000000      0x442 S:/UltimateEnvironment/code-mod-example/param-replace/code-mod-framework/lib/libnx_min/nx/lib\libnx_min.a(apm.o)
 .debug_loc     0x0000000000000000     0x239a S:/UltimateEnvironment/code-mod-example/param-replace/code-mod-framework/lib/libnx_min/nx/lib\libnx_min.a(apm.o)
 .debug_aranges
                0x0000000000000000       0x80 S:/UltimateEnvironment/code-mod-example/param-replace/code-mod-framework/lib/libnx_min/nx/lib\libnx_min.a(apm.o)
 .debug_ranges  0x0000000000000000      0x630 S:/UltimateEnvironment/code-mod-example/param-replace/code-mod-framework/lib/libnx_min/nx/lib\libnx_min.a(apm.o)
 .debug_line    0x0000000000000000      0xbdc S:/UltimateEnvironment/code-mod-example/param-replace/code-mod-framework/lib/libnx_min/nx/lib\libnx_min.a(apm.o)
 .debug_str     0x0000000000000000      0xa22 S:/UltimateEnvironment/code-mod-example/param-replace/code-mod-framework/lib/libnx_min/nx/lib\libnx_min.a(apm.o)
 .comment       0x0000000000000000       0x23 S:/UltimateEnvironment/code-mod-example/param-replace/code-mod-framework/lib/libnx_min/nx/lib\libnx_min.a(apm.o)
 .text          0x0000000000000000        0x0 c:/devkitpro/devkita64/bin/../lib/gcc/aarch64-none-elf/8.3.0/../../../../aarch64-none-elf/lib/pic\libg.a(lib_a-bsearch.o)
 .data          0x0000000000000000        0x0 c:/devkitpro/devkita64/bin/../lib/gcc/aarch64-none-elf/8.3.0/../../../../aarch64-none-elf/lib/pic\libg.a(lib_a-bsearch.o)
 .bss           0x0000000000000000        0x0 c:/devkitpro/devkita64/bin/../lib/gcc/aarch64-none-elf/8.3.0/../../../../aarch64-none-elf/lib/pic\libg.a(lib_a-bsearch.o)
 .comment       0x0000000000000000       0x23 c:/devkitpro/devkita64/bin/../lib/gcc/aarch64-none-elf/8.3.0/../../../../aarch64-none-elf/lib/pic\libg.a(lib_a-bsearch.o)
 .text          0x0000000000000000        0x0 c:/devkitpro/devkita64/bin/../lib/gcc/aarch64-none-elf/8.3.0/../../../../aarch64-none-elf/lib/pic\libg.a(lib_a-ctype_.o)
 .data          0x0000000000000000        0x0 c:/devkitpro/devkita64/bin/../lib/gcc/aarch64-none-elf/8.3.0/../../../../aarch64-none-elf/lib/pic\libg.a(lib_a-ctype_.o)
 .bss           0x0000000000000000        0x0 c:/devkitpro/devkita64/bin/../lib/gcc/aarch64-none-elf/8.3.0/../../../../aarch64-none-elf/lib/pic\libg.a(lib_a-ctype_.o)
 .comment       0x0000000000000000       0x23 c:/devkitpro/devkita64/bin/../lib/gcc/aarch64-none-elf/8.3.0/../../../../aarch64-none-elf/lib/pic\libg.a(lib_a-ctype_.o)
 .text          0x0000000000000000        0x0 c:/devkitpro/devkita64/bin/../lib/gcc/aarch64-none-elf/8.3.0/../../../../aarch64-none-elf/lib/pic\libg.a(lib_a-errno.o)
 .data          0x0000000000000000        0x0 c:/devkitpro/devkita64/bin/../lib/gcc/aarch64-none-elf/8.3.0/../../../../aarch64-none-elf/lib/pic\libg.a(lib_a-errno.o)
 .bss           0x0000000000000000        0x0 c:/devkitpro/devkita64/bin/../lib/gcc/aarch64-none-elf/8.3.0/../../../../aarch64-none-elf/lib/pic\libg.a(lib_a-errno.o)
 .comment       0x0000000000000000       0x23 c:/devkitpro/devkita64/bin/../lib/gcc/aarch64-none-elf/8.3.0/../../../../aarch64-none-elf/lib/pic\libg.a(lib_a-errno.o)
 .text          0x0000000000000000        0x0 c:/devkitpro/devkita64/bin/../lib/gcc/aarch64-none-elf/8.3.0/../../../../aarch64-none-elf/lib/pic\libg.a(lib_a-exit.o)
 .data          0x0000000000000000        0x0 c:/devkitpro/devkita64/bin/../lib/gcc/aarch64-none-elf/8.3.0/../../../../aarch64-none-elf/lib/pic\libg.a(lib_a-exit.o)
 .bss           0x0000000000000000        0x0 c:/devkitpro/devkita64/bin/../lib/gcc/aarch64-none-elf/8.3.0/../../../../aarch64-none-elf/lib/pic\libg.a(lib_a-exit.o)
 .comment       0x0000000000000000       0x23 c:/devkitpro/devkita64/bin/../lib/gcc/aarch64-none-elf/8.3.0/../../../../aarch64-none-elf/lib/pic\libg.a(lib_a-exit.o)
 .text          0x0000000000000000        0x0 c:/devkitpro/devkita64/bin/../lib/gcc/aarch64-none-elf/8.3.0/../../../../aarch64-none-elf/lib/pic\libg.a(lib_a-fini.o)
 .data          0x0000000000000000        0x0 c:/devkitpro/devkita64/bin/../lib/gcc/aarch64-none-elf/8.3.0/../../../../aarch64-none-elf/lib/pic\libg.a(lib_a-fini.o)
 .bss           0x0000000000000000        0x0 c:/devkitpro/devkita64/bin/../lib/gcc/aarch64-none-elf/8.3.0/../../../../aarch64-none-elf/lib/pic\libg.a(lib_a-fini.o)
 .comment       0x0000000000000000       0x23 c:/devkitpro/devkita64/bin/../lib/gcc/aarch64-none-elf/8.3.0/../../../../aarch64-none-elf/lib/pic\libg.a(lib_a-fini.o)
 .text          0x0000000000000000        0x0 c:/devkitpro/devkita64/bin/../lib/gcc/aarch64-none-elf/8.3.0/../../../../aarch64-none-elf/lib/pic\libg.a(lib_a-impure.o)
 .data          0x0000000000000000        0x0 c:/devkitpro/devkita64/bin/../lib/gcc/aarch64-none-elf/8.3.0/../../../../aarch64-none-elf/lib/pic\libg.a(lib_a-impure.o)
 .bss           0x0000000000000000        0x0 c:/devkitpro/devkita64/bin/../lib/gcc/aarch64-none-elf/8.3.0/../../../../aarch64-none-elf/lib/pic\libg.a(lib_a-impure.o)
 .comment       0x0000000000000000       0x23 c:/devkitpro/devkita64/bin/../lib/gcc/aarch64-none-elf/8.3.0/../../../../aarch64-none-elf/lib/pic\libg.a(lib_a-impure.o)
 .text          0x0000000000000000        0x0 c:/devkitpro/devkita64/bin/../lib/gcc/aarch64-none-elf/8.3.0/../../../../aarch64-none-elf/lib/pic\libg.a(lib_a-init.o)
 .data          0x0000000000000000        0x0 c:/devkitpro/devkita64/bin/../lib/gcc/aarch64-none-elf/8.3.0/../../../../aarch64-none-elf/lib/pic\libg.a(lib_a-init.o)
 .bss           0x0000000000000000        0x0 c:/devkitpro/devkita64/bin/../lib/gcc/aarch64-none-elf/8.3.0/../../../../aarch64-none-elf/lib/pic\libg.a(lib_a-init.o)
 .comment       0x0000000000000000       0x23 c:/devkitpro/devkita64/bin/../lib/gcc/aarch64-none-elf/8.3.0/../../../../aarch64-none-elf/lib/pic\libg.a(lib_a-init.o)
 .text          0x0000000000000000        0x0 c:/devkitpro/devkita64/bin/../lib/gcc/aarch64-none-elf/8.3.0/../../../../aarch64-none-elf/lib/pic\libg.a(lib_a-malign.o)
 .data          0x0000000000000000        0x0 c:/devkitpro/devkita64/bin/../lib/gcc/aarch64-none-elf/8.3.0/../../../../aarch64-none-elf/lib/pic\libg.a(lib_a-malign.o)
 .bss           0x0000000000000000        0x0 c:/devkitpro/devkita64/bin/../lib/gcc/aarch64-none-elf/8.3.0/../../../../aarch64-none-elf/lib/pic\libg.a(lib_a-malign.o)
 .comment       0x0000000000000000       0x23 c:/devkitpro/devkita64/bin/../lib/gcc/aarch64-none-elf/8.3.0/../../../../aarch64-none-elf/lib/pic\libg.a(lib_a-malign.o)
 .text          0x0000000000000000        0x0 c:/devkitpro/devkita64/bin/../lib/gcc/aarch64-none-elf/8.3.0/../../../../aarch64-none-elf/lib/pic\libg.a(lib_a-malignr.o)
 .data          0x0000000000000000        0x0 c:/devkitpro/devkita64/bin/../lib/gcc/aarch64-none-elf/8.3.0/../../../../aarch64-none-elf/lib/pic\libg.a(lib_a-malignr.o)
 .bss           0x0000000000000000        0x0 c:/devkitpro/devkita64/bin/../lib/gcc/aarch64-none-elf/8.3.0/../../../../aarch64-none-elf/lib/pic\libg.a(lib_a-malignr.o)
 .comment       0x0000000000000000       0x23 c:/devkitpro/devkita64/bin/../lib/gcc/aarch64-none-elf/8.3.0/../../../../aarch64-none-elf/lib/pic\libg.a(lib_a-malignr.o)
 .text          0x0000000000000000        0x0 c:/devkitpro/devkita64/bin/../lib/gcc/aarch64-none-elf/8.3.0/../../../../aarch64-none-elf/lib/pic\libg.a(lib_a-malloc.o)
 .data          0x0000000000000000        0x0 c:/devkitpro/devkita64/bin/../lib/gcc/aarch64-none-elf/8.3.0/../../../../aarch64-none-elf/lib/pic\libg.a(lib_a-malloc.o)
 .bss           0x0000000000000000        0x0 c:/devkitpro/devkita64/bin/../lib/gcc/aarch64-none-elf/8.3.0/../../../../aarch64-none-elf/lib/pic\libg.a(lib_a-malloc.o)
 .comment       0x0000000000000000       0x23 c:/devkitpro/devkita64/bin/../lib/gcc/aarch64-none-elf/8.3.0/../../../../aarch64-none-elf/lib/pic\libg.a(lib_a-malloc.o)
 .text          0x0000000000000000        0x0 c:/devkitpro/devkita64/bin/../lib/gcc/aarch64-none-elf/8.3.0/../../../../aarch64-none-elf/lib/pic\libg.a(lib_a-mallocr.o)
 .data          0x0000000000000000        0x0 c:/devkitpro/devkita64/bin/../lib/gcc/aarch64-none-elf/8.3.0/../../../../aarch64-none-elf/lib/pic\libg.a(lib_a-mallocr.o)
 .bss           0x0000000000000000        0x0 c:/devkitpro/devkita64/bin/../lib/gcc/aarch64-none-elf/8.3.0/../../../../aarch64-none-elf/lib/pic\libg.a(lib_a-mallocr.o)
 .comment       0x0000000000000000       0x23 c:/devkitpro/devkita64/bin/../lib/gcc/aarch64-none-elf/8.3.0/../../../../aarch64-none-elf/lib/pic\libg.a(lib_a-mallocr.o)
 .data          0x0000000000000000        0x0 c:/devkitpro/devkita64/bin/../lib/gcc/aarch64-none-elf/8.3.0/../../../../aarch64-none-elf/lib/pic\libg.a(lib_a-memcpy.o)
 .bss           0x0000000000000000        0x0 c:/devkitpro/devkita64/bin/../lib/gcc/aarch64-none-elf/8.3.0/../../../../aarch64-none-elf/lib/pic\libg.a(lib_a-memcpy.o)
 .data          0x0000000000000000        0x0 c:/devkitpro/devkita64/bin/../lib/gcc/aarch64-none-elf/8.3.0/../../../../aarch64-none-elf/lib/pic\libg.a(lib_a-memset.o)
 .bss           0x0000000000000000        0x0 c:/devkitpro/devkita64/bin/../lib/gcc/aarch64-none-elf/8.3.0/../../../../aarch64-none-elf/lib/pic\libg.a(lib_a-memset.o)
 .text          0x0000000000000000        0x0 c:/devkitpro/devkita64/bin/../lib/gcc/aarch64-none-elf/8.3.0/../../../../aarch64-none-elf/lib/pic\libg.a(lib_a-mlock.o)
 .data          0x0000000000000000        0x0 c:/devkitpro/devkita64/bin/../lib/gcc/aarch64-none-elf/8.3.0/../../../../aarch64-none-elf/lib/pic\libg.a(lib_a-mlock.o)
 .bss           0x0000000000000000        0x0 c:/devkitpro/devkita64/bin/../lib/gcc/aarch64-none-elf/8.3.0/../../../../aarch64-none-elf/lib/pic\libg.a(lib_a-mlock.o)
 .comment       0x0000000000000000       0x23 c:/devkitpro/devkita64/bin/../lib/gcc/aarch64-none-elf/8.3.0/../../../../aarch64-none-elf/lib/pic\libg.a(lib_a-mlock.o)
 .text          0x0000000000000000        0x0 c:/devkitpro/devkita64/bin/../lib/gcc/aarch64-none-elf/8.3.0/../../../../aarch64-none-elf/lib/pic\libg.a(lib_a-setenv.o)
 .data          0x0000000000000000        0x0 c:/devkitpro/devkita64/bin/../lib/gcc/aarch64-none-elf/8.3.0/../../../../aarch64-none-elf/lib/pic\libg.a(lib_a-setenv.o)
 .bss           0x0000000000000000        0x0 c:/devkitpro/devkita64/bin/../lib/gcc/aarch64-none-elf/8.3.0/../../../../aarch64-none-elf/lib/pic\libg.a(lib_a-setenv.o)
 .comment       0x0000000000000000       0x23 c:/devkitpro/devkita64/bin/../lib/gcc/aarch64-none-elf/8.3.0/../../../../aarch64-none-elf/lib/pic\libg.a(lib_a-setenv.o)
 .text          0x0000000000000000        0x0 c:/devkitpro/devkita64/bin/../lib/gcc/aarch64-none-elf/8.3.0/../../../../aarch64-none-elf/lib/pic\libg.a(lib_a-setenv_r.o)
 .data          0x0000000000000000        0x0 c:/devkitpro/devkita64/bin/../lib/gcc/aarch64-none-elf/8.3.0/../../../../aarch64-none-elf/lib/pic\libg.a(lib_a-setenv_r.o)
 .bss           0x0000000000000000        0x0 c:/devkitpro/devkita64/bin/../lib/gcc/aarch64-none-elf/8.3.0/../../../../aarch64-none-elf/lib/pic\libg.a(lib_a-setenv_r.o)
 .comment       0x0000000000000000       0x23 c:/devkitpro/devkita64/bin/../lib/gcc/aarch64-none-elf/8.3.0/../../../../aarch64-none-elf/lib/pic\libg.a(lib_a-setenv_r.o)
 .data          0x0000000000000000        0x0 c:/devkitpro/devkita64/bin/../lib/gcc/aarch64-none-elf/8.3.0/../../../../aarch64-none-elf/lib/pic\libg.a(lib_a-strchr.o)
 .bss           0x0000000000000000        0x0 c:/devkitpro/devkita64/bin/../lib/gcc/aarch64-none-elf/8.3.0/../../../../aarch64-none-elf/lib/pic\libg.a(lib_a-strchr.o)
 .data          0x0000000000000000        0x0 c:/devkitpro/devkita64/bin/../lib/gcc/aarch64-none-elf/8.3.0/../../../../aarch64-none-elf/lib/pic\libg.a(lib_a-strcpy.o)
 .bss           0x0000000000000000        0x0 c:/devkitpro/devkita64/bin/../lib/gcc/aarch64-none-elf/8.3.0/../../../../aarch64-none-elf/lib/pic\libg.a(lib_a-strcpy.o)
 .data          0x0000000000000000        0x0 c:/devkitpro/devkita64/bin/../lib/gcc/aarch64-none-elf/8.3.0/../../../../aarch64-none-elf/lib/pic\libg.a(lib_a-strlen.o)
 .bss           0x0000000000000000        0x0 c:/devkitpro/devkita64/bin/../lib/gcc/aarch64-none-elf/8.3.0/../../../../aarch64-none-elf/lib/pic\libg.a(lib_a-strlen.o)
 .text          0x0000000000000000        0x0 c:/devkitpro/devkita64/bin/../lib/gcc/aarch64-none-elf/8.3.0/../../../../aarch64-none-elf/lib/pic\libg.a(lib_a-strncat.o)
 .data          0x0000000000000000        0x0 c:/devkitpro/devkita64/bin/../lib/gcc/aarch64-none-elf/8.3.0/../../../../aarch64-none-elf/lib/pic\libg.a(lib_a-strncat.o)
 .bss           0x0000000000000000        0x0 c:/devkitpro/devkita64/bin/../lib/gcc/aarch64-none-elf/8.3.0/../../../../aarch64-none-elf/lib/pic\libg.a(lib_a-strncat.o)
 .comment       0x0000000000000000       0x23 c:/devkitpro/devkita64/bin/../lib/gcc/aarch64-none-elf/8.3.0/../../../../aarch64-none-elf/lib/pic\libg.a(lib_a-strncat.o)
 .data          0x0000000000000000        0x0 c:/devkitpro/devkita64/bin/../lib/gcc/aarch64-none-elf/8.3.0/../../../../aarch64-none-elf/lib/pic\libg.a(lib_a-strncmp.o)
 .bss           0x0000000000000000        0x0 c:/devkitpro/devkita64/bin/../lib/gcc/aarch64-none-elf/8.3.0/../../../../aarch64-none-elf/lib/pic\libg.a(lib_a-strncmp.o)
 .text          0x0000000000000000        0x0 c:/devkitpro/devkita64/bin/../lib/gcc/aarch64-none-elf/8.3.0/../../../../aarch64-none-elf/lib/pic\libg.a(lib_a-strncpy.o)
 .data          0x0000000000000000        0x0 c:/devkitpro/devkita64/bin/../lib/gcc/aarch64-none-elf/8.3.0/../../../../aarch64-none-elf/lib/pic\libg.a(lib_a-strncpy.o)
 .bss           0x0000000000000000        0x0 c:/devkitpro/devkita64/bin/../lib/gcc/aarch64-none-elf/8.3.0/../../../../aarch64-none-elf/lib/pic\libg.a(lib_a-strncpy.o)
 .comment       0x0000000000000000       0x23 c:/devkitpro/devkita64/bin/../lib/gcc/aarch64-none-elf/8.3.0/../../../../aarch64-none-elf/lib/pic\libg.a(lib_a-strncpy.o)
 .data          0x0000000000000000        0x0 c:/devkitpro/devkita64/bin/../lib/gcc/aarch64-none-elf/8.3.0/../../../../aarch64-none-elf/lib/pic\libg.a(lib_a-strnlen.o)
 .bss           0x0000000000000000        0x0 c:/devkitpro/devkita64/bin/../lib/gcc/aarch64-none-elf/8.3.0/../../../../aarch64-none-elf/lib/pic\libg.a(lib_a-strnlen.o)
 .text          0x0000000000000000        0x0 c:/devkitpro/devkita64/bin/../lib/gcc/aarch64-none-elf/8.3.0/../../../../aarch64-none-elf/lib/pic\libg.a(lib_a-toupper.o)
 .data          0x0000000000000000        0x0 c:/devkitpro/devkita64/bin/../lib/gcc/aarch64-none-elf/8.3.0/../../../../aarch64-none-elf/lib/pic\libg.a(lib_a-toupper.o)
 .bss           0x0000000000000000        0x0 c:/devkitpro/devkita64/bin/../lib/gcc/aarch64-none-elf/8.3.0/../../../../aarch64-none-elf/lib/pic\libg.a(lib_a-toupper.o)
 .comment       0x0000000000000000       0x23 c:/devkitpro/devkita64/bin/../lib/gcc/aarch64-none-elf/8.3.0/../../../../aarch64-none-elf/lib/pic\libg.a(lib_a-toupper.o)
 .text          0x0000000000000000        0x0 c:/devkitpro/devkita64/bin/../lib/gcc/aarch64-none-elf/8.3.0/../../../../aarch64-none-elf/lib/pic\libg.a(lib_a-vsnprintf.o)
 .data          0x0000000000000000        0x0 c:/devkitpro/devkita64/bin/../lib/gcc/aarch64-none-elf/8.3.0/../../../../aarch64-none-elf/lib/pic\libg.a(lib_a-vsnprintf.o)
 .bss           0x0000000000000000        0x0 c:/devkitpro/devkita64/bin/../lib/gcc/aarch64-none-elf/8.3.0/../../../../aarch64-none-elf/lib/pic\libg.a(lib_a-vsnprintf.o)
 .comment       0x0000000000000000       0x23 c:/devkitpro/devkita64/bin/../lib/gcc/aarch64-none-elf/8.3.0/../../../../aarch64-none-elf/lib/pic\libg.a(lib_a-vsnprintf.o)
 .text          0x0000000000000000        0x0 c:/devkitpro/devkita64/bin/../lib/gcc/aarch64-none-elf/8.3.0/../../../../aarch64-none-elf/lib/pic\libg.a(lib_a-__call_atexit.o)
 .data          0x0000000000000000        0x0 c:/devkitpro/devkita64/bin/../lib/gcc/aarch64-none-elf/8.3.0/../../../../aarch64-none-elf/lib/pic\libg.a(lib_a-__call_atexit.o)
 .bss           0x0000000000000000        0x0 c:/devkitpro/devkita64/bin/../lib/gcc/aarch64-none-elf/8.3.0/../../../../aarch64-none-elf/lib/pic\libg.a(lib_a-__call_atexit.o)
 .comment       0x0000000000000000       0x23 c:/devkitpro/devkita64/bin/../lib/gcc/aarch64-none-elf/8.3.0/../../../../aarch64-none-elf/lib/pic\libg.a(lib_a-__call_atexit.o)
 .text          0x0000000000000000        0x0 c:/devkitpro/devkita64/bin/../lib/gcc/aarch64-none-elf/8.3.0/../../../../aarch64-none-elf/lib/pic\libg.a(lib_a-environ.o)
 .data          0x0000000000000000        0x0 c:/devkitpro/devkita64/bin/../lib/gcc/aarch64-none-elf/8.3.0/../../../../aarch64-none-elf/lib/pic\libg.a(lib_a-environ.o)
 .bss           0x0000000000000000        0x0 c:/devkitpro/devkita64/bin/../lib/gcc/aarch64-none-elf/8.3.0/../../../../aarch64-none-elf/lib/pic\libg.a(lib_a-environ.o)
 .comment       0x0000000000000000       0x23 c:/devkitpro/devkita64/bin/../lib/gcc/aarch64-none-elf/8.3.0/../../../../aarch64-none-elf/lib/pic\libg.a(lib_a-environ.o)
 .text          0x0000000000000000        0x0 c:/devkitpro/devkita64/bin/../lib/gcc/aarch64-none-elf/8.3.0/../../../../aarch64-none-elf/lib/pic\libg.a(lib_a-envlock.o)
 .data          0x0000000000000000        0x0 c:/devkitpro/devkita64/bin/../lib/gcc/aarch64-none-elf/8.3.0/../../../../aarch64-none-elf/lib/pic\libg.a(lib_a-envlock.o)
 .bss           0x0000000000000000        0x0 c:/devkitpro/devkita64/bin/../lib/gcc/aarch64-none-elf/8.3.0/../../../../aarch64-none-elf/lib/pic\libg.a(lib_a-envlock.o)
 .comment       0x0000000000000000       0x23 c:/devkitpro/devkita64/bin/../lib/gcc/aarch64-none-elf/8.3.0/../../../../aarch64-none-elf/lib/pic\libg.a(lib_a-envlock.o)
 .text          0x0000000000000000        0x0 c:/devkitpro/devkita64/bin/../lib/gcc/aarch64-none-elf/8.3.0/../../../../aarch64-none-elf/lib/pic\libg.a(lib_a-freer.o)
 .data          0x0000000000000000        0x0 c:/devkitpro/devkita64/bin/../lib/gcc/aarch64-none-elf/8.3.0/../../../../aarch64-none-elf/lib/pic\libg.a(lib_a-freer.o)
 .bss           0x0000000000000000        0x0 c:/devkitpro/devkita64/bin/../lib/gcc/aarch64-none-elf/8.3.0/../../../../aarch64-none-elf/lib/pic\libg.a(lib_a-freer.o)
 .comment       0x0000000000000000       0x23 c:/devkitpro/devkita64/bin/../lib/gcc/aarch64-none-elf/8.3.0/../../../../aarch64-none-elf/lib/pic\libg.a(lib_a-freer.o)
 .text          0x0000000000000000        0x0 c:/devkitpro/devkita64/bin/../lib/gcc/aarch64-none-elf/8.3.0/../../../../aarch64-none-elf/lib/pic\libg.a(lib_a-getenv_r.o)
 .data          0x0000000000000000        0x0 c:/devkitpro/devkita64/bin/../lib/gcc/aarch64-none-elf/8.3.0/../../../../aarch64-none-elf/lib/pic\libg.a(lib_a-getenv_r.o)
 .bss           0x0000000000000000        0x0 c:/devkitpro/devkita64/bin/../lib/gcc/aarch64-none-elf/8.3.0/../../../../aarch64-none-elf/lib/pic\libg.a(lib_a-getenv_r.o)
 .comment       0x0000000000000000       0x23 c:/devkitpro/devkita64/bin/../lib/gcc/aarch64-none-elf/8.3.0/../../../../aarch64-none-elf/lib/pic\libg.a(lib_a-getenv_r.o)
 .text          0x0000000000000000        0x0 c:/devkitpro/devkita64/bin/../lib/gcc/aarch64-none-elf/8.3.0/../../../../aarch64-none-elf/lib/pic\libg.a(lib_a-reallocr.o)
 .data          0x0000000000000000        0x0 c:/devkitpro/devkita64/bin/../lib/gcc/aarch64-none-elf/8.3.0/../../../../aarch64-none-elf/lib/pic\libg.a(lib_a-reallocr.o)
 .bss           0x0000000000000000        0x0 c:/devkitpro/devkita64/bin/../lib/gcc/aarch64-none-elf/8.3.0/../../../../aarch64-none-elf/lib/pic\libg.a(lib_a-reallocr.o)
 .comment       0x0000000000000000       0x23 c:/devkitpro/devkita64/bin/../lib/gcc/aarch64-none-elf/8.3.0/../../../../aarch64-none-elf/lib/pic\libg.a(lib_a-reallocr.o)
 .text          0x0000000000000000        0x0 c:/devkitpro/devkita64/bin/../lib/gcc/aarch64-none-elf/8.3.0/../../../../aarch64-none-elf/lib/pic\libg.a(lib_a-svfprintf.o)
 .data          0x0000000000000000        0x0 c:/devkitpro/devkita64/bin/../lib/gcc/aarch64-none-elf/8.3.0/../../../../aarch64-none-elf/lib/pic\libg.a(lib_a-svfprintf.o)
 .bss           0x0000000000000000        0x0 c:/devkitpro/devkita64/bin/../lib/gcc/aarch64-none-elf/8.3.0/../../../../aarch64-none-elf/lib/pic\libg.a(lib_a-svfprintf.o)
 .comment       0x0000000000000000       0x23 c:/devkitpro/devkita64/bin/../lib/gcc/aarch64-none-elf/8.3.0/../../../../aarch64-none-elf/lib/pic\libg.a(lib_a-svfprintf.o)
 .text          0x0000000000000000        0x0 c:/devkitpro/devkita64/bin/../lib/gcc/aarch64-none-elf/8.3.0/../../../../aarch64-none-elf/lib/pic\libg.a(lib_a-wcrtomb.o)
 .data          0x0000000000000000        0x0 c:/devkitpro/devkita64/bin/../lib/gcc/aarch64-none-elf/8.3.0/../../../../aarch64-none-elf/lib/pic\libg.a(lib_a-wcrtomb.o)
 .bss           0x0000000000000000        0x0 c:/devkitpro/devkita64/bin/../lib/gcc/aarch64-none-elf/8.3.0/../../../../aarch64-none-elf/lib/pic\libg.a(lib_a-wcrtomb.o)
 .comment       0x0000000000000000       0x23 c:/devkitpro/devkita64/bin/../lib/gcc/aarch64-none-elf/8.3.0/../../../../aarch64-none-elf/lib/pic\libg.a(lib_a-wcrtomb.o)
 .text          0x0000000000000000        0x0 c:/devkitpro/devkita64/bin/../lib/gcc/aarch64-none-elf/8.3.0/../../../../aarch64-none-elf/lib/pic\libg.a(lib_a-wcsrtombs.o)
 .data          0x0000000000000000        0x0 c:/devkitpro/devkita64/bin/../lib/gcc/aarch64-none-elf/8.3.0/../../../../aarch64-none-elf/lib/pic\libg.a(lib_a-wcsrtombs.o)
 .bss           0x0000000000000000        0x0 c:/devkitpro/devkita64/bin/../lib/gcc/aarch64-none-elf/8.3.0/../../../../aarch64-none-elf/lib/pic\libg.a(lib_a-wcsrtombs.o)
 .comment       0x0000000000000000       0x23 c:/devkitpro/devkita64/bin/../lib/gcc/aarch64-none-elf/8.3.0/../../../../aarch64-none-elf/lib/pic\libg.a(lib_a-wcsrtombs.o)
 .text          0x0000000000000000        0x0 c:/devkitpro/devkita64/bin/../lib/gcc/aarch64-none-elf/8.3.0/../../../../aarch64-none-elf/lib/pic\libg.a(lib_a-dtoa.o)
 .data          0x0000000000000000        0x0 c:/devkitpro/devkita64/bin/../lib/gcc/aarch64-none-elf/8.3.0/../../../../aarch64-none-elf/lib/pic\libg.a(lib_a-dtoa.o)
 .bss           0x0000000000000000        0x0 c:/devkitpro/devkita64/bin/../lib/gcc/aarch64-none-elf/8.3.0/../../../../aarch64-none-elf/lib/pic\libg.a(lib_a-dtoa.o)
 .comment       0x0000000000000000       0x23 c:/devkitpro/devkita64/bin/../lib/gcc/aarch64-none-elf/8.3.0/../../../../aarch64-none-elf/lib/pic\libg.a(lib_a-dtoa.o)
 .text          0x0000000000000000        0x0 c:/devkitpro/devkita64/bin/../lib/gcc/aarch64-none-elf/8.3.0/../../../../aarch64-none-elf/lib/pic\libg.a(lib_a-localeconv.o)
 .data          0x0000000000000000        0x0 c:/devkitpro/devkita64/bin/../lib/gcc/aarch64-none-elf/8.3.0/../../../../aarch64-none-elf/lib/pic\libg.a(lib_a-localeconv.o)
 .bss           0x0000000000000000        0x0 c:/devkitpro/devkita64/bin/../lib/gcc/aarch64-none-elf/8.3.0/../../../../aarch64-none-elf/lib/pic\libg.a(lib_a-localeconv.o)
 .comment       0x0000000000000000       0x23 c:/devkitpro/devkita64/bin/../lib/gcc/aarch64-none-elf/8.3.0/../../../../aarch64-none-elf/lib/pic\libg.a(lib_a-localeconv.o)
 .text          0x0000000000000000        0x0 c:/devkitpro/devkita64/bin/../lib/gcc/aarch64-none-elf/8.3.0/../../../../aarch64-none-elf/lib/pic\libg.a(lib_a-locale.o)
 .data          0x0000000000000000        0x0 c:/devkitpro/devkita64/bin/../lib/gcc/aarch64-none-elf/8.3.0/../../../../aarch64-none-elf/lib/pic\libg.a(lib_a-locale.o)
 .bss           0x0000000000000000        0x0 c:/devkitpro/devkita64/bin/../lib/gcc/aarch64-none-elf/8.3.0/../../../../aarch64-none-elf/lib/pic\libg.a(lib_a-locale.o)
 .comment       0x0000000000000000       0x23 c:/devkitpro/devkita64/bin/../lib/gcc/aarch64-none-elf/8.3.0/../../../../aarch64-none-elf/lib/pic\libg.a(lib_a-locale.o)
 .text          0x0000000000000000        0x0 c:/devkitpro/devkita64/bin/../lib/gcc/aarch64-none-elf/8.3.0/../../../../aarch64-none-elf/lib/pic\libg.a(lib_a-mbtowc_r.o)
 .data          0x0000000000000000        0x0 c:/devkitpro/devkita64/bin/../lib/gcc/aarch64-none-elf/8.3.0/../../../../aarch64-none-elf/lib/pic\libg.a(lib_a-mbtowc_r.o)
 .bss           0x0000000000000000        0x0 c:/devkitpro/devkita64/bin/../lib/gcc/aarch64-none-elf/8.3.0/../../../../aarch64-none-elf/lib/pic\libg.a(lib_a-mbtowc_r.o)
 .comment       0x0000000000000000       0x23 c:/devkitpro/devkita64/bin/../lib/gcc/aarch64-none-elf/8.3.0/../../../../aarch64-none-elf/lib/pic\libg.a(lib_a-mbtowc_r.o)
 .data          0x0000000000000000        0x0 c:/devkitpro/devkita64/bin/../lib/gcc/aarch64-none-elf/8.3.0/../../../../aarch64-none-elf/lib/pic\libg.a(lib_a-memchr.o)
 .bss           0x0000000000000000        0x0 c:/devkitpro/devkita64/bin/../lib/gcc/aarch64-none-elf/8.3.0/../../../../aarch64-none-elf/lib/pic\libg.a(lib_a-memchr.o)
 .data          0x0000000000000000        0x0 c:/devkitpro/devkita64/bin/../lib/gcc/aarch64-none-elf/8.3.0/../../../../aarch64-none-elf/lib/pic\libg.a(lib_a-memmove.o)
 .bss           0x0000000000000000        0x0 c:/devkitpro/devkita64/bin/../lib/gcc/aarch64-none-elf/8.3.0/../../../../aarch64-none-elf/lib/pic\libg.a(lib_a-memmove.o)
 .text          0x0000000000000000        0x0 c:/devkitpro/devkita64/bin/../lib/gcc/aarch64-none-elf/8.3.0/../../../../aarch64-none-elf/lib/pic\libg.a(lib_a-mprec.o)
 .data          0x0000000000000000        0x0 c:/devkitpro/devkita64/bin/../lib/gcc/aarch64-none-elf/8.3.0/../../../../aarch64-none-elf/lib/pic\libg.a(lib_a-mprec.o)
 .bss           0x0000000000000000        0x0 c:/devkitpro/devkita64/bin/../lib/gcc/aarch64-none-elf/8.3.0/../../../../aarch64-none-elf/lib/pic\libg.a(lib_a-mprec.o)
 .comment       0x0000000000000000       0x23 c:/devkitpro/devkita64/bin/../lib/gcc/aarch64-none-elf/8.3.0/../../../../aarch64-none-elf/lib/pic\libg.a(lib_a-mprec.o)
 .text          0x0000000000000000        0x0 c:/devkitpro/devkita64/bin/../lib/gcc/aarch64-none-elf/8.3.0/../../../../aarch64-none-elf/lib/pic\libg.a(lib_a-s_frexp.o)
 .data          0x0000000000000000        0x0 c:/devkitpro/devkita64/bin/../lib/gcc/aarch64-none-elf/8.3.0/../../../../aarch64-none-elf/lib/pic\libg.a(lib_a-s_frexp.o)
 .bss           0x0000000000000000        0x0 c:/devkitpro/devkita64/bin/../lib/gcc/aarch64-none-elf/8.3.0/../../../../aarch64-none-elf/lib/pic\libg.a(lib_a-s_frexp.o)
 .comment       0x0000000000000000       0x23 c:/devkitpro/devkita64/bin/../lib/gcc/aarch64-none-elf/8.3.0/../../../../aarch64-none-elf/lib/pic\libg.a(lib_a-s_frexp.o)
 .text          0x0000000000000000        0x0 c:/devkitpro/devkita64/bin/../lib/gcc/aarch64-none-elf/8.3.0/../../../../aarch64-none-elf/lib/pic\libg.a(lib_a-strcasecmp.o)
 .data          0x0000000000000000        0x0 c:/devkitpro/devkita64/bin/../lib/gcc/aarch64-none-elf/8.3.0/../../../../aarch64-none-elf/lib/pic\libg.a(lib_a-strcasecmp.o)
 .bss           0x0000000000000000        0x0 c:/devkitpro/devkita64/bin/../lib/gcc/aarch64-none-elf/8.3.0/../../../../aarch64-none-elf/lib/pic\libg.a(lib_a-strcasecmp.o)
 .comment       0x0000000000000000       0x23 c:/devkitpro/devkita64/bin/../lib/gcc/aarch64-none-elf/8.3.0/../../../../aarch64-none-elf/lib/pic\libg.a(lib_a-strcasecmp.o)
 .text          0x0000000000000000        0x0 c:/devkitpro/devkita64/bin/../lib/gcc/aarch64-none-elf/8.3.0/../../../../aarch64-none-elf/lib/pic\libg.a(lib_a-strcat.o)
 .data          0x0000000000000000        0x0 c:/devkitpro/devkita64/bin/../lib/gcc/aarch64-none-elf/8.3.0/../../../../aarch64-none-elf/lib/pic\libg.a(lib_a-strcat.o)
 .bss           0x0000000000000000        0x0 c:/devkitpro/devkita64/bin/../lib/gcc/aarch64-none-elf/8.3.0/../../../../aarch64-none-elf/lib/pic\libg.a(lib_a-strcat.o)
 .comment       0x0000000000000000       0x23 c:/devkitpro/devkita64/bin/../lib/gcc/aarch64-none-elf/8.3.0/../../../../aarch64-none-elf/lib/pic\libg.a(lib_a-strcat.o)
 .data          0x0000000000000000        0x0 c:/devkitpro/devkita64/bin/../lib/gcc/aarch64-none-elf/8.3.0/../../../../aarch64-none-elf/lib/pic\libg.a(lib_a-strcmp.o)
 .bss           0x0000000000000000        0x0 c:/devkitpro/devkita64/bin/../lib/gcc/aarch64-none-elf/8.3.0/../../../../aarch64-none-elf/lib/pic\libg.a(lib_a-strcmp.o)
 .text          0x0000000000000000        0x0 c:/devkitpro/devkita64/bin/../lib/gcc/aarch64-none-elf/8.3.0/../../../../aarch64-none-elf/lib/pic\libg.a(lib_a-strlcpy.o)
 .data          0x0000000000000000        0x0 c:/devkitpro/devkita64/bin/../lib/gcc/aarch64-none-elf/8.3.0/../../../../aarch64-none-elf/lib/pic\libg.a(lib_a-strlcpy.o)
 .bss           0x0000000000000000        0x0 c:/devkitpro/devkita64/bin/../lib/gcc/aarch64-none-elf/8.3.0/../../../../aarch64-none-elf/lib/pic\libg.a(lib_a-strlcpy.o)
 .comment       0x0000000000000000       0x23 c:/devkitpro/devkita64/bin/../lib/gcc/aarch64-none-elf/8.3.0/../../../../aarch64-none-elf/lib/pic\libg.a(lib_a-strlcpy.o)
 .text          0x0000000000000000        0x0 c:/devkitpro/devkita64/bin/../lib/gcc/aarch64-none-elf/8.3.0/../../../../aarch64-none-elf/lib/pic\libg.a(lib_a-strncasecmp.o)
 .data          0x0000000000000000        0x0 c:/devkitpro/devkita64/bin/../lib/gcc/aarch64-none-elf/8.3.0/../../../../aarch64-none-elf/lib/pic\libg.a(lib_a-strncasecmp.o)
 .bss           0x0000000000000000        0x0 c:/devkitpro/devkita64/bin/../lib/gcc/aarch64-none-elf/8.3.0/../../../../aarch64-none-elf/lib/pic\libg.a(lib_a-strncasecmp.o)
 .comment       0x0000000000000000       0x23 c:/devkitpro/devkita64/bin/../lib/gcc/aarch64-none-elf/8.3.0/../../../../aarch64-none-elf/lib/pic\libg.a(lib_a-strncasecmp.o)
 .text          0x0000000000000000        0x0 c:/devkitpro/devkita64/bin/../lib/gcc/aarch64-none-elf/8.3.0/../../../../aarch64-none-elf/lib/pic\libg.a(lib_a-strtol.o)
 .data          0x0000000000000000        0x0 c:/devkitpro/devkita64/bin/../lib/gcc/aarch64-none-elf/8.3.0/../../../../aarch64-none-elf/lib/pic\libg.a(lib_a-strtol.o)
 .bss           0x0000000000000000        0x0 c:/devkitpro/devkita64/bin/../lib/gcc/aarch64-none-elf/8.3.0/../../../../aarch64-none-elf/lib/pic\libg.a(lib_a-strtol.o)
 .comment       0x0000000000000000       0x23 c:/devkitpro/devkita64/bin/../lib/gcc/aarch64-none-elf/8.3.0/../../../../aarch64-none-elf/lib/pic\libg.a(lib_a-strtol.o)
 .text          0x0000000000000000        0x0 c:/devkitpro/devkita64/bin/../lib/gcc/aarch64-none-elf/8.3.0/../../../../aarch64-none-elf/lib/pic\libg.a(lib_a-svfiprintf.o)
 .data          0x0000000000000000        0x0 c:/devkitpro/devkita64/bin/../lib/gcc/aarch64-none-elf/8.3.0/../../../../aarch64-none-elf/lib/pic\libg.a(lib_a-svfiprintf.o)
 .bss           0x0000000000000000        0x0 c:/devkitpro/devkita64/bin/../lib/gcc/aarch64-none-elf/8.3.0/../../../../aarch64-none-elf/lib/pic\libg.a(lib_a-svfiprintf.o)
 .comment       0x0000000000000000       0x23 c:/devkitpro/devkita64/bin/../lib/gcc/aarch64-none-elf/8.3.0/../../../../aarch64-none-elf/lib/pic\libg.a(lib_a-svfiprintf.o)
 .text          0x0000000000000000        0x0 c:/devkitpro/devkita64/bin/../lib/gcc/aarch64-none-elf/8.3.0/../../../../aarch64-none-elf/lib/pic\libg.a(lib_a-wcsnrtombs.o)
 .data          0x0000000000000000        0x0 c:/devkitpro/devkita64/bin/../lib/gcc/aarch64-none-elf/8.3.0/../../../../aarch64-none-elf/lib/pic\libg.a(lib_a-wcsnrtombs.o)
 .bss           0x0000000000000000        0x0 c:/devkitpro/devkita64/bin/../lib/gcc/aarch64-none-elf/8.3.0/../../../../aarch64-none-elf/lib/pic\libg.a(lib_a-wcsnrtombs.o)
 .comment       0x0000000000000000       0x23 c:/devkitpro/devkita64/bin/../lib/gcc/aarch64-none-elf/8.3.0/../../../../aarch64-none-elf/lib/pic\libg.a(lib_a-wcsnrtombs.o)
 .text          0x0000000000000000        0x0 c:/devkitpro/devkita64/bin/../lib/gcc/aarch64-none-elf/8.3.0/../../../../aarch64-none-elf/lib/pic\libg.a(lib_a-wctomb_r.o)
 .data          0x0000000000000000        0x0 c:/devkitpro/devkita64/bin/../lib/gcc/aarch64-none-elf/8.3.0/../../../../aarch64-none-elf/lib/pic\libg.a(lib_a-wctomb_r.o)
 .bss           0x0000000000000000        0x0 c:/devkitpro/devkita64/bin/../lib/gcc/aarch64-none-elf/8.3.0/../../../../aarch64-none-elf/lib/pic\libg.a(lib_a-wctomb_r.o)
 .comment       0x0000000000000000       0x23 c:/devkitpro/devkita64/bin/../lib/gcc/aarch64-none-elf/8.3.0/../../../../aarch64-none-elf/lib/pic\libg.a(lib_a-wctomb_r.o)
 .text          0x0000000000000000        0x0 c:/devkitpro/devkita64/bin/../lib/gcc/aarch64-none-elf/8.3.0/../../../../aarch64-none-elf/lib/pic\libg.a(lib_a-callocr.o)
 .data          0x0000000000000000        0x0 c:/devkitpro/devkita64/bin/../lib/gcc/aarch64-none-elf/8.3.0/../../../../aarch64-none-elf/lib/pic\libg.a(lib_a-callocr.o)
 .bss           0x0000000000000000        0x0 c:/devkitpro/devkita64/bin/../lib/gcc/aarch64-none-elf/8.3.0/../../../../aarch64-none-elf/lib/pic\libg.a(lib_a-callocr.o)
 .comment       0x0000000000000000       0x23 c:/devkitpro/devkita64/bin/../lib/gcc/aarch64-none-elf/8.3.0/../../../../aarch64-none-elf/lib/pic\libg.a(lib_a-callocr.o)
 .text          0x0000000000000000        0x0 c:/devkitpro/devkita64/bin/../lib/gcc/aarch64-none-elf/8.3.0/../../../../aarch64-none-elf/lib/pic\libsysbase.a(iosupport.o)
 .data          0x0000000000000000        0x0 c:/devkitpro/devkita64/bin/../lib/gcc/aarch64-none-elf/8.3.0/../../../../aarch64-none-elf/lib/pic\libsysbase.a(iosupport.o)
 .bss           0x0000000000000000        0x0 c:/devkitpro/devkita64/bin/../lib/gcc/aarch64-none-elf/8.3.0/../../../../aarch64-none-elf/lib/pic\libsysbase.a(iosupport.o)
 .comment       0x0000000000000000       0x23 c:/devkitpro/devkita64/bin/../lib/gcc/aarch64-none-elf/8.3.0/../../../../aarch64-none-elf/lib/pic\libsysbase.a(iosupport.o)
 .text          0x0000000000000000        0x0 c:/devkitpro/devkita64/bin/../lib/gcc/aarch64-none-elf/8.3.0/../../../../aarch64-none-elf/lib/pic\libsysbase.a(sbrk.o)
 .data          0x0000000000000000        0x0 c:/devkitpro/devkita64/bin/../lib/gcc/aarch64-none-elf/8.3.0/../../../../aarch64-none-elf/lib/pic\libsysbase.a(sbrk.o)
 .bss           0x0000000000000000        0x0 c:/devkitpro/devkita64/bin/../lib/gcc/aarch64-none-elf/8.3.0/../../../../aarch64-none-elf/lib/pic\libsysbase.a(sbrk.o)
 .comment       0x0000000000000000       0x23 c:/devkitpro/devkita64/bin/../lib/gcc/aarch64-none-elf/8.3.0/../../../../aarch64-none-elf/lib/pic\libsysbase.a(sbrk.o)
 .text          0x0000000000000000        0x0 c:/devkitpro/devkita64/bin/../lib/gcc/aarch64-none-elf/8.3.0/../../../../aarch64-none-elf/lib/pic\libsysbase.a(_exit.o)
 .data          0x0000000000000000        0x0 c:/devkitpro/devkita64/bin/../lib/gcc/aarch64-none-elf/8.3.0/../../../../aarch64-none-elf/lib/pic\libsysbase.a(_exit.o)
 .bss           0x0000000000000000        0x0 c:/devkitpro/devkita64/bin/../lib/gcc/aarch64-none-elf/8.3.0/../../../../aarch64-none-elf/lib/pic\libsysbase.a(_exit.o)
 .comment       0x0000000000000000       0x23 c:/devkitpro/devkita64/bin/../lib/gcc/aarch64-none-elf/8.3.0/../../../../aarch64-none-elf/lib/pic\libsysbase.a(_exit.o)
 .text          0x0000000000000000        0x0 c:/devkitpro/devkita64/bin/../lib/gcc/aarch64-none-elf/8.3.0/../../../../aarch64-none-elf/lib/pic\libsysbase.a(malloc_vars.o)
 .data          0x0000000000000000        0x0 c:/devkitpro/devkita64/bin/../lib/gcc/aarch64-none-elf/8.3.0/../../../../aarch64-none-elf/lib/pic\libsysbase.a(malloc_vars.o)
 .bss           0x0000000000000000        0x0 c:/devkitpro/devkita64/bin/../lib/gcc/aarch64-none-elf/8.3.0/../../../../aarch64-none-elf/lib/pic\libsysbase.a(malloc_vars.o)
 .comment       0x0000000000000000       0x23 c:/devkitpro/devkita64/bin/../lib/gcc/aarch64-none-elf/8.3.0/../../../../aarch64-none-elf/lib/pic\libsysbase.a(malloc_vars.o)
 .text          0x0000000000000000        0x0 c:/devkitpro/devkita64/bin/../lib/gcc/aarch64-none-elf/8.3.0/../../../../aarch64-none-elf/lib/pic\libsysbase.a(chdir.o)
 .data          0x0000000000000000        0x0 c:/devkitpro/devkita64/bin/../lib/gcc/aarch64-none-elf/8.3.0/../../../../aarch64-none-elf/lib/pic\libsysbase.a(chdir.o)
 .bss           0x0000000000000000        0x0 c:/devkitpro/devkita64/bin/../lib/gcc/aarch64-none-elf/8.3.0/../../../../aarch64-none-elf/lib/pic\libsysbase.a(chdir.o)
 .comment       0x0000000000000000       0x23 c:/devkitpro/devkita64/bin/../lib/gcc/aarch64-none-elf/8.3.0/../../../../aarch64-none-elf/lib/pic\libsysbase.a(chdir.o)
 .text          0x0000000000000000        0x0 c:/devkitpro/devkita64/bin/../lib/gcc/aarch64-none-elf/8.3.0/../../../../aarch64-none-elf/lib/pic\libsysbase.a(locks.o)
 .data          0x0000000000000000        0x0 c:/devkitpro/devkita64/bin/../lib/gcc/aarch64-none-elf/8.3.0/../../../../aarch64-none-elf/lib/pic\libsysbase.a(locks.o)
 .bss           0x0000000000000000        0x0 c:/devkitpro/devkita64/bin/../lib/gcc/aarch64-none-elf/8.3.0/../../../../aarch64-none-elf/lib/pic\libsysbase.a(locks.o)
 .comment       0x0000000000000000       0x23 c:/devkitpro/devkita64/bin/../lib/gcc/aarch64-none-elf/8.3.0/../../../../aarch64-none-elf/lib/pic\libsysbase.a(locks.o)
 .text          0x0000000000000000        0x0 c:/devkitpro/devkita64/bin/../lib/gcc/aarch64-none-elf/8.3.0/../../../../aarch64-none-elf/lib/pic\libsysbase.a(getreent.o)
 .data          0x0000000000000000        0x0 c:/devkitpro/devkita64/bin/../lib/gcc/aarch64-none-elf/8.3.0/../../../../aarch64-none-elf/lib/pic\libsysbase.a(getreent.o)
 .bss           0x0000000000000000        0x0 c:/devkitpro/devkita64/bin/../lib/gcc/aarch64-none-elf/8.3.0/../../../../aarch64-none-elf/lib/pic\libsysbase.a(getreent.o)
 .comment       0x0000000000000000       0x23 c:/devkitpro/devkita64/bin/../lib/gcc/aarch64-none-elf/8.3.0/../../../../aarch64-none-elf/lib/pic\libsysbase.a(getreent.o)
 .text          0x0000000000000000        0x0 c:/devkitpro/devkita64/bin/../lib/gcc/aarch64-none-elf/8.3.0/../../../../aarch64-none-elf/lib/pic\libsysbase.a(clocks.o)
 .data          0x0000000000000000        0x0 c:/devkitpro/devkita64/bin/../lib/gcc/aarch64-none-elf/8.3.0/../../../../aarch64-none-elf/lib/pic\libsysbase.a(clocks.o)
 .bss           0x0000000000000000        0x0 c:/devkitpro/devkita64/bin/../lib/gcc/aarch64-none-elf/8.3.0/../../../../aarch64-none-elf/lib/pic\libsysbase.a(clocks.o)
 .comment       0x0000000000000000       0x23 c:/devkitpro/devkita64/bin/../lib/gcc/aarch64-none-elf/8.3.0/../../../../aarch64-none-elf/lib/pic\libsysbase.a(clocks.o)
 .text          0x0000000000000000        0x0 c:/devkitpro/devkita64/bin/../lib/gcc/aarch64-none-elf/8.3.0/pic\libgcc.a(trunctfdf2.o)
 .data          0x0000000000000000        0x0 c:/devkitpro/devkita64/bin/../lib/gcc/aarch64-none-elf/8.3.0/pic\libgcc.a(trunctfdf2.o)
 .bss           0x0000000000000000        0x0 c:/devkitpro/devkita64/bin/../lib/gcc/aarch64-none-elf/8.3.0/pic\libgcc.a(trunctfdf2.o)
 .comment       0x0000000000000000       0x23 c:/devkitpro/devkita64/bin/../lib/gcc/aarch64-none-elf/8.3.0/pic\libgcc.a(trunctfdf2.o)
 .text          0x0000000000000000        0x0 c:/devkitpro/devkita64/bin/../lib/gcc/aarch64-none-elf/8.3.0/pic\libgcc.a(sfp-exceptions.o)
 .data          0x0000000000000000        0x0 c:/devkitpro/devkita64/bin/../lib/gcc/aarch64-none-elf/8.3.0/pic\libgcc.a(sfp-exceptions.o)
 .bss           0x0000000000000000        0x0 c:/devkitpro/devkita64/bin/../lib/gcc/aarch64-none-elf/8.3.0/pic\libgcc.a(sfp-exceptions.o)
 .comment       0x0000000000000000       0x23 c:/devkitpro/devkita64/bin/../lib/gcc/aarch64-none-elf/8.3.0/pic\libgcc.a(sfp-exceptions.o)
 .data          0x0000000000000000        0x0 c:/devkitpro/devkita64/bin/../lib/gcc/aarch64-none-elf/8.3.0/../../../../aarch64-none-elf/lib/pic\libg.a(lib_a-strrchr.o)
 .bss           0x0000000000000000        0x0 c:/devkitpro/devkita64/bin/../lib/gcc/aarch64-none-elf/8.3.0/../../../../aarch64-none-elf/lib/pic\libg.a(lib_a-strrchr.o)
 .text          0x0000000000000000        0x0 c:/devkitpro/devkita64/bin/../lib/gcc/aarch64-none-elf/8.3.0/pic/crtend.o
 .data          0x0000000000000000        0x0 c:/devkitpro/devkita64/bin/../lib/gcc/aarch64-none-elf/8.3.0/pic/crtend.o
 .bss           0x0000000000000000        0x0 c:/devkitpro/devkita64/bin/../lib/gcc/aarch64-none-elf/8.3.0/pic/crtend.o
 .comment       0x0000000000000000       0x23 c:/devkitpro/devkita64/bin/../lib/gcc/aarch64-none-elf/8.3.0/pic/crtend.o
 .text          0x0000000000000000        0x0 c:/devkitpro/devkita64/bin/../lib/gcc/aarch64-none-elf/8.3.0/pic/crtn.o
 .data          0x0000000000000000        0x0 c:/devkitpro/devkita64/bin/../lib/gcc/aarch64-none-elf/8.3.0/pic/crtn.o
 .bss           0x0000000000000000        0x0 c:/devkitpro/devkita64/bin/../lib/gcc/aarch64-none-elf/8.3.0/pic/crtn.o

Memory Configuration

Name             Origin             Length             Attributes
*default*        0x0000000000000000 0xffffffffffffffff

Linker script and memory map

                0x0000000000000000                PROVIDE (__start__ = 0x0)
                0x0000000000000000                . = __start__

.crt0           0x0000000000000000      0x158
 *(.crt0)
 .crt0          0x0000000000000000      0x158 S:/UltimateEnvironment/code-mod-example/param-replace/code-mod-framework/lib/libnx_min/nx/lib\libnx_min.a(switch_crt0.o)
                0x0000000000000000                _start
                0x0000000000000120                __nx_exit
                0x0000000000000130                __nx_mod0
                0x0000000000000158                . = ALIGN (0x8)

.init           0x0000000000000158       0x38
 *(.init)
 .init          0x0000000000000158       0x18 c:/devkitpro/devkita64/bin/../lib/gcc/aarch64-none-elf/8.3.0/pic/crti.o
                0x0000000000000158                _init
 .init          0x0000000000000170       0x1c c:/devkitpro/devkita64/bin/../lib/gcc/aarch64-none-elf/8.3.0/pic/crtn.o
                0x0000000000000190                . = ALIGN (0x8)
 *fill*         0x000000000000018c        0x4 

.plt            0x0000000000000190       0xa0
 *(.plt)
 .plt           0x0000000000000190       0xa0 c:/devkitpro/devkita64/bin/../lib/gcc/aarch64-none-elf/8.3.0/pic/crti.o
 *(.iplt)
                0x0000000000000230                . = ALIGN (0x8)

.text           0x0000000000000240    0x2a9c8
 *(.text.unlikely .text.*_unlikely .text.unlikely.*)
 *(.text.exit .text.exit.*)
 .text.exit     0x0000000000000240       0x38 c:/devkitpro/devkita64/bin/../lib/gcc/aarch64-none-elf/8.3.0/../../../../aarch64-none-elf/lib/pic\libg.a(lib_a-exit.o)
                0x0000000000000240                exit
 *(.text.startup .text.startup.*)
 *fill*         0x0000000000000278        0x8 
 .text.startup  0x0000000000000280       0x78 main.o
                0x0000000000000280                main
 *(.text.hot .text.hot.*)
 *(.text .stub .text.* .gnu.linkonce.t.*)
 .text.deregister_tm_clones
                0x00000000000002f8       0x2c c:/devkitpro/devkita64/bin/../lib/gcc/aarch64-none-elf/8.3.0/pic/crtbegin.o
 *fill*         0x0000000000000324        0x4 
 .text.register_tm_clones
                0x0000000000000328       0x38 c:/devkitpro/devkita64/bin/../lib/gcc/aarch64-none-elf/8.3.0/pic/crtbegin.o
 .text.__do_global_dtors_aux
                0x0000000000000360       0x48 c:/devkitpro/devkita64/bin/../lib/gcc/aarch64-none-elf/8.3.0/pic/crtbegin.o
 .text.frame_dummy
                0x00000000000003a8       0x34 c:/devkitpro/devkita64/bin/../lib/gcc/aarch64-none-elf/8.3.0/pic/crtbegin.o
 *fill*         0x00000000000003dc        0x4 
 .text          0x00000000000003e0     0x1b70 main.o
                0x00000000000003e0                end_shieldbreakfly_replace(unsigned long, unsigned long)
                0x00000000000004a0                LoadModule_intercept(nn::ro::Module*, void const*, void*, unsigned long, int)
                0x0000000000000500                __init_settings(unsigned long, unsigned long, int, unsigned long, unsigned long, bool, int, int, int, int)
                0x0000000000000620                shine_replace(lib::L2CAgent*, void*)
                0x0000000000000d40                squirtle_utilt(lib::L2CAgent*, void*)
                0x00000000000011a0                ivy_upsmash(lib::L2CAgent*, void*)
                0x00000000000016c0                get_param_float_replace(unsigned long, unsigned long, unsigned long)
                0x0000000000001ce0                replace_scripts(lib::L2CAgent*, unsigned char, int)
                0x0000000000001d40                sv_get_status_func(unsigned long, int, unsigned long)
                0x0000000000001d90                sv_replace_status_func(unsigned long, int, unsigned long, void*)
                0x0000000000001dd0                clear_lua_stack_replace(lib::L2CAgent*)
                0x0000000000001e60                script_replacement()
                0x0000000000001eb0                __libnx_init
                0x0000000000001f00                __libnx_exit
 .text          0x0000000000001f50      0x8c8 acmd_wrapper.o
                0x0000000000001f50                is_before_frame(unsigned long, float)
                0x0000000000001f80                load_module(unsigned long, unsigned long)
                0x0000000000001f90                load_module_impl(unsigned long, unsigned long)
                0x0000000000001fa0                ACMD::ACMD(lib::L2CAgent*)
                0x0000000000001fa0                ACMD::ACMD(lib::L2CAgent*)
                0x0000000000001fe0                ACMD::frame(float)
                0x0000000000002070                ACMD::_frame(float)
                0x0000000000002160                ACMD::wait(float)
                0x00000000000021f0                ACMD::is_excute()
                0x0000000000002290                ACMD::wrap(unsigned long (*)(unsigned long), std::initializer_list<lib::L2CValue>)
                0x0000000000002330                ACMD::ATTACK(unsigned long, unsigned long, unsigned long, float, unsigned long, unsigned long, unsigned long, unsigned long, float, float, float, float, float, float, unsigned long, unsigned long, unsigned long, unsigned long, float, unsigned long, unsigned long, unsigned long, unsigned long, unsigned long, unsigned long, unsigned long, unsigned long, unsigned long, unsigned long, unsigned long, unsigned long, unsigned long, unsigned long)
                0x00000000000025b0                ACMD::ATTACK(unsigned long, unsigned long, unsigned long, float, unsigned long, unsigned long, unsigned long, unsigned long, float, float, float, float, float, float, float, float, float, unsigned long, unsigned long, unsigned long, unsigned long, float, unsigned long, unsigned long, unsigned long, unsigned long, unsigned long, unsigned long, unsigned long, unsigned long, unsigned long, unsigned long, unsigned long, unsigned long, unsigned long, unsigned long)
 *fill*         0x0000000000002818        0x8 
 .text          0x0000000000002820       0x94 saltysd_helper.o
                0x0000000000002820                SaltySD_function_replace(unsigned long, unsigned long)
                0x0000000000002890                SaltySD_function_replace_sym(char*, unsigned long)
 *fill*         0x00000000000028b4        0xc 
 .text          0x00000000000028c0      0x350 lua_bind_hash.o
                0x00000000000028c0                lua_bind_hash(void const*, unsigned long)
                0x0000000000002be0                lua_bind_hash_str(char const*)
 .text          0x0000000000002c10      0x128 l2c_imports.o
                0x0000000000002c10                lib::lua_const(char const*)
                0x0000000000002c50                lib::L2CValue::L2CValue()
                0x0000000000002c50                lib::L2CValue::L2CValue()
                0x0000000000002c60                lib::L2CValue::L2CValue(bool)
                0x0000000000002c60                lib::L2CValue::L2CValue(bool)
                0x0000000000002c80                lib::L2CValue::L2CValue(int)
                0x0000000000002c80                lib::L2CValue::L2CValue(int)
                0x0000000000002ca0                lib::L2CValue::L2CValue(unsigned long)
                0x0000000000002ca0                lib::L2CValue::L2CValue(unsigned long)
                0x0000000000002cb0                lib::L2CValue::L2CValue(float)
                0x0000000000002cb0                lib::L2CValue::L2CValue(float)
                0x0000000000002cc0                lib::L2CValue::L2CValue(double)
                0x0000000000002cc0                lib::L2CValue::L2CValue(double)
                0x0000000000002ce0                lib::L2CValue::L2CValue(char const*)
                0x0000000000002ce0                lib::L2CValue::L2CValue(char const*)
                0x0000000000002cf0                lib::L2CAgent::get_lua_stack(int, lib::L2CValue*)
                0x0000000000002d00                lib::L2CAgent::_clear_lua_stack()
 *fill*         0x0000000000002d38        0x8 
 .text          0x0000000000002d40      0x500 raygun_printer.o
                0x0000000000002d40                show_segment(unsigned long, float, float, float, float, float)
                0x0000000000002e10                alphabet_index(char)
                0x0000000000002e80                print_char(unsigned long, char, int, float, float)
                0x0000000000002fe0                print_string(unsigned long, char const*, ...)
 .text.__libnx_exception_entry
                0x0000000000003240      0x1c0 S:/UltimateEnvironment/code-mod-example/param-replace/code-mod-framework/lib/libnx_min/nx/lib\libnx_min.a(exception.o)
                0x0000000000003240                __libnx_exception_entry
 .text.__libnx_exception_returnentry
                0x0000000000003400       0x18 S:/UltimateEnvironment/code-mod-example/param-replace/code-mod-framework/lib/libnx_min/nx/lib\libnx_min.a(exception.o)
                0x0000000000003400                __libnx_exception_returnentry
 *fill*         0x0000000000003418        0x8 
 .text.argvSetup
                0x0000000000003420      0x318 S:/UltimateEnvironment/code-mod-example/param-replace/code-mod-framework/lib/libnx_min/nx/lib\libnx_min.a(argv.o)
                0x0000000000003420                argvSetup
 *fill*         0x0000000000003738        0x8 
 .text.envSetup
                0x0000000000003740      0x208 S:/UltimateEnvironment/code-mod-example/param-replace/code-mod-framework/lib/libnx_min/nx/lib\libnx_min.a(env.o)
                0x0000000000003740                envSetup
 *fill*         0x0000000000003948        0x8 
 .text.envGetMainThreadHandle
                0x0000000000003950       0x20 S:/UltimateEnvironment/code-mod-example/param-replace/code-mod-framework/lib/libnx_min/nx/lib\libnx_min.a(env.o)
                0x0000000000003950                envGetMainThreadHandle
 .text.envIsNso
                0x0000000000003970        0xc S:/UltimateEnvironment/code-mod-example/param-replace/code-mod-framework/lib/libnx_min/nx/lib\libnx_min.a(env.o)
                0x0000000000003970                envIsNso
 *fill*         0x000000000000397c        0x4 
 .text.envHasHeapOverride
                0x0000000000003980       0x14 S:/UltimateEnvironment/code-mod-example/param-replace/code-mod-framework/lib/libnx_min/nx/lib\libnx_min.a(env.o)
                0x0000000000003980                envHasHeapOverride
 *fill*         0x0000000000003994        0xc 
 .text.envGetHeapOverrideAddr
                0x00000000000039a0        0xc S:/UltimateEnvironment/code-mod-example/param-replace/code-mod-framework/lib/libnx_min/nx/lib\libnx_min.a(env.o)
                0x00000000000039a0                envGetHeapOverrideAddr
 *fill*         0x00000000000039ac        0x4 
 .text.envGetHeapOverrideSize
                0x00000000000039b0        0xc S:/UltimateEnvironment/code-mod-example/param-replace/code-mod-framework/lib/libnx_min/nx/lib\libnx_min.a(env.o)
                0x00000000000039b0                envGetHeapOverrideSize
 *fill*         0x00000000000039bc        0x4 
 .text.envHasArgv
                0x00000000000039c0       0x14 S:/UltimateEnvironment/code-mod-example/param-replace/code-mod-framework/lib/libnx_min/nx/lib\libnx_min.a(env.o)
                0x00000000000039c0                envHasArgv
 *fill*         0x00000000000039d4        0xc 
 .text.envGetArgv
                0x00000000000039e0        0xc S:/UltimateEnvironment/code-mod-example/param-replace/code-mod-framework/lib/libnx_min/nx/lib\libnx_min.a(env.o)
                0x00000000000039e0                envGetArgv
 *fill*         0x00000000000039ec        0x4 
 .text.envIsSyscallHinted
                0x00000000000039f0       0x20 S:/UltimateEnvironment/code-mod-example/param-replace/code-mod-framework/lib/libnx_min/nx/lib\libnx_min.a(env.o)
                0x00000000000039f0                envIsSyscallHinted
 .text.envGetOwnProcessHandle
                0x0000000000003a10        0xc S:/UltimateEnvironment/code-mod-example/param-replace/code-mod-framework/lib/libnx_min/nx/lib\libnx_min.a(env.o)
                0x0000000000003a10                envGetOwnProcessHandle
 *fill*         0x0000000000003a1c        0x4 
 .text.envGetExitFuncPtr
                0x0000000000003a20        0xc S:/UltimateEnvironment/code-mod-example/param-replace/code-mod-framework/lib/libnx_min/nx/lib\libnx_min.a(env.o)
                0x0000000000003a20                envGetExitFuncPtr
 *fill*         0x0000000000003a2c        0x4 
 .text.envSetExitFuncPtr
                0x0000000000003a30        0xc S:/UltimateEnvironment/code-mod-example/param-replace/code-mod-framework/lib/libnx_min/nx/lib\libnx_min.a(env.o)
                0x0000000000003a30                envSetExitFuncPtr
 *fill*         0x0000000000003a3c        0x4 
 .text.envSetNextLoad
                0x0000000000003a40       0x7c S:/UltimateEnvironment/code-mod-example/param-replace/code-mod-framework/lib/libnx_min/nx/lib\libnx_min.a(env.o)
                0x0000000000003a40                envSetNextLoad
 *fill*         0x0000000000003abc        0x4 
 .text.envHasNextLoad
                0x0000000000003ac0       0x14 S:/UltimateEnvironment/code-mod-example/param-replace/code-mod-framework/lib/libnx_min/nx/lib\libnx_min.a(env.o)
                0x0000000000003ac0                envHasNextLoad
 *fill*         0x0000000000003ad4        0xc 
 .text.envGetLastLoadResult
                0x0000000000003ae0        0xc S:/UltimateEnvironment/code-mod-example/param-replace/code-mod-framework/lib/libnx_min/nx/lib\libnx_min.a(env.o)
                0x0000000000003ae0                envGetLastLoadResult
 *fill*         0x0000000000003aec        0x4 
 .text.envHasRandomSeed
                0x0000000000003af0        0xc S:/UltimateEnvironment/code-mod-example/param-replace/code-mod-framework/lib/libnx_min/nx/lib\libnx_min.a(env.o)
                0x0000000000003af0                envHasRandomSeed
 *fill*         0x0000000000003afc        0x4 
 .text.envGetRandomSeed
                0x0000000000003b00       0x18 S:/UltimateEnvironment/code-mod-example/param-replace/code-mod-framework/lib/libnx_min/nx/lib\libnx_min.a(env.o)
                0x0000000000003b00                envGetRandomSeed
 *fill*         0x0000000000003b18        0x8 
 .text.__libnx_initheap
                0x0000000000003b20       0xd8 S:/UltimateEnvironment/code-mod-example/param-replace/code-mod-framework/lib/libnx_min/nx/lib\libnx_min.a(init.o)
                0x0000000000003b20                __libnx_initheap
 *fill*         0x0000000000003bf8        0x8 
 .text.__appInit
                0x0000000000003c00       0xdc S:/UltimateEnvironment/code-mod-example/param-replace/code-mod-framework/lib/libnx_min/nx/lib\libnx_min.a(init.o)
                0x0000000000003c00                __appInit
 *fill*         0x0000000000003cdc        0x4 
 .text.__appExit
                0x0000000000003ce0       0x44 S:/UltimateEnvironment/code-mod-example/param-replace/code-mod-framework/lib/libnx_min/nx/lib\libnx_min.a(init.o)
                0x0000000000003ce0                __appExit
 *fill*         0x0000000000003d24        0xc 
 .text.hosversionGet
                0x0000000000003d30       0x10 S:/UltimateEnvironment/code-mod-example/param-replace/code-mod-framework/lib/libnx_min/nx/lib\libnx_min.a(hosversion.o)
                0x0000000000003d30                hosversionGet
 .text.hosversionSet
                0x0000000000003d40       0x10 S:/UltimateEnvironment/code-mod-example/param-replace/code-mod-framework/lib/libnx_min/nx/lib\libnx_min.a(hosversion.o)
                0x0000000000003d40                hosversionSet
 .text.__nx_dynamic
                0x0000000000003d50       0xa0 S:/UltimateEnvironment/code-mod-example/param-replace/code-mod-framework/lib/libnx_min/nx/lib\libnx_min.a(dynamic.o)
                0x0000000000003d50                __nx_dynamic
 .text.fsdev_link
                0x0000000000003df0       0x10 S:/UltimateEnvironment/code-mod-example/param-replace/code-mod-framework/lib/libnx_min/nx/lib\libnx_min.a(fs_dev.o)
 .text.fsdev_dirreset
                0x0000000000003e00       0x10 S:/UltimateEnvironment/code-mod-example/param-replace/code-mod-framework/lib/libnx_min/nx/lib\libnx_min.a(fs_dev.o)
 .text.fsdev_chmod
                0x0000000000003e10       0x10 S:/UltimateEnvironment/code-mod-example/param-replace/code-mod-framework/lib/libnx_min/nx/lib\libnx_min.a(fs_dev.o)
 .text.error_cmp
                0x0000000000003e20       0x1c S:/UltimateEnvironment/code-mod-example/param-replace/code-mod-framework/lib/libnx_min/nx/lib\libnx_min.a(fs_dev.o)
 *fill*         0x0000000000003e3c        0x4 
 .text.fsdev_translate_error
                0x0000000000003e40       0x5c S:/UltimateEnvironment/code-mod-example/param-replace/code-mod-framework/lib/libnx_min/nx/lib\libnx_min.a(fs_dev.o)
 *fill*         0x0000000000003e9c        0x4 
 .text.fsdev_fsync
                0x0000000000003ea0       0x40 S:/UltimateEnvironment/code-mod-example/param-replace/code-mod-framework/lib/libnx_min/nx/lib\libnx_min.a(fs_dev.o)
 .text.fsdev_ftruncate
                0x0000000000003ee0       0x60 S:/UltimateEnvironment/code-mod-example/param-replace/code-mod-framework/lib/libnx_min/nx/lib\libnx_min.a(fs_dev.o)
 .text.fsdev_dirclose
                0x0000000000003f40       0x20 S:/UltimateEnvironment/code-mod-example/param-replace/code-mod-framework/lib/libnx_min/nx/lib\libnx_min.a(fs_dev.o)
 .text.fsdev_dirnext
                0x0000000000003f60      0x16c S:/UltimateEnvironment/code-mod-example/param-replace/code-mod-framework/lib/libnx_min/nx/lib\libnx_min.a(fs_dev.o)
 *fill*         0x00000000000040cc        0x4 
 .text.fsdev_close
                0x00000000000040d0       0x1c S:/UltimateEnvironment/code-mod-example/param-replace/code-mod-framework/lib/libnx_min/nx/lib\libnx_min.a(fs_dev.o)
 *fill*         0x00000000000040ec        0x4 
 .text.fsdev_fstat
                0x00000000000040f0       0xa4 S:/UltimateEnvironment/code-mod-example/param-replace/code-mod-framework/lib/libnx_min/nx/lib\libnx_min.a(fs_dev.o)
 *fill*         0x0000000000004194        0xc 
 .text.fsdev_seek
                0x00000000000041a0       0xb0 S:/UltimateEnvironment/code-mod-example/param-replace/code-mod-framework/lib/libnx_min/nx/lib\libnx_min.a(fs_dev.o)
 .text.fsdev_read
                0x0000000000004250      0x1a0 S:/UltimateEnvironment/code-mod-example/param-replace/code-mod-framework/lib/libnx_min/nx/lib\libnx_min.a(fs_dev.o)
 .text.fsdev_write
                0x00000000000043f0      0x1a8 S:/UltimateEnvironment/code-mod-example/param-replace/code-mod-framework/lib/libnx_min/nx/lib\libnx_min.a(fs_dev.o)
 *fill*         0x0000000000004598        0x8 
 .text.fsdevFindDevice
                0x00000000000045a0      0x120 S:/UltimateEnvironment/code-mod-example/param-replace/code-mod-framework/lib/libnx_min/nx/lib\libnx_min.a(fs_dev.o)
 .text._fsdevMountDevice
                0x00000000000046c0      0x140 S:/UltimateEnvironment/code-mod-example/param-replace/code-mod-framework/lib/libnx_min/nx/lib\libnx_min.a(fs_dev.o)
 .text.fsdev_getfspath
                0x0000000000004800      0x1fc S:/UltimateEnvironment/code-mod-example/param-replace/code-mod-framework/lib/libnx_min/nx/lib\libnx_min.a(fs_dev.o)
 *fill*         0x00000000000049fc        0x4 
 .text.fsdev_rmdir
                0x0000000000004a00       0x70 S:/UltimateEnvironment/code-mod-example/param-replace/code-mod-framework/lib/libnx_min/nx/lib\libnx_min.a(fs_dev.o)
 .text.fsdev_statvfs
                0x0000000000004a70       0xd4 S:/UltimateEnvironment/code-mod-example/param-replace/code-mod-framework/lib/libnx_min/nx/lib\libnx_min.a(fs_dev.o)
 *fill*         0x0000000000004b44        0xc 
 .text.fsdev_diropen
                0x0000000000004b50       0xec S:/UltimateEnvironment/code-mod-example/param-replace/code-mod-framework/lib/libnx_min/nx/lib\libnx_min.a(fs_dev.o)
 *fill*         0x0000000000004c3c        0x4 
 .text.fsdev_mkdir
                0x0000000000004c40       0x70 S:/UltimateEnvironment/code-mod-example/param-replace/code-mod-framework/lib/libnx_min/nx/lib\libnx_min.a(fs_dev.o)
 .text.fsdev_rename
                0x0000000000004cb0      0x114 S:/UltimateEnvironment/code-mod-example/param-replace/code-mod-framework/lib/libnx_min/nx/lib\libnx_min.a(fs_dev.o)
 *fill*         0x0000000000004dc4        0xc 
 .text.fsdev_chdir
                0x0000000000004dd0       0xe8 S:/UltimateEnvironment/code-mod-example/param-replace/code-mod-framework/lib/libnx_min/nx/lib\libnx_min.a(fs_dev.o)
 *fill*         0x0000000000004eb8        0x8 
 .text.fsdev_unlink
                0x0000000000004ec0       0x70 S:/UltimateEnvironment/code-mod-example/param-replace/code-mod-framework/lib/libnx_min/nx/lib\libnx_min.a(fs_dev.o)
 .text.fsdev_stat
                0x0000000000004f30      0x1bc S:/UltimateEnvironment/code-mod-example/param-replace/code-mod-framework/lib/libnx_min/nx/lib\libnx_min.a(fs_dev.o)
 *fill*         0x00000000000050ec        0x4 
 .text.fsdev_open
                0x00000000000050f0      0x19c S:/UltimateEnvironment/code-mod-example/param-replace/code-mod-framework/lib/libnx_min/nx/lib\libnx_min.a(fs_dev.o)
 *fill*         0x000000000000528c        0x4 
 .text._fsdevUnmountDeviceStruct.part.4
                0x0000000000005290       0xb8 S:/UltimateEnvironment/code-mod-example/param-replace/code-mod-framework/lib/libnx_min/nx/lib\libnx_min.a(fs_dev.o)
 *fill*         0x0000000000005348        0x8 
 .text.fsdev_fchmod
                0x0000000000005350       0x10 S:/UltimateEnvironment/code-mod-example/param-replace/code-mod-framework/lib/libnx_min/nx/lib\libnx_min.a(fs_dev.o)
 .text.fsdevMountDevice
                0x0000000000005360       0x14 S:/UltimateEnvironment/code-mod-example/param-replace/code-mod-framework/lib/libnx_min/nx/lib\libnx_min.a(fs_dev.o)
                0x0000000000005360                fsdevMountDevice
 *fill*         0x0000000000005374        0xc 
 .text.fsdevUnmountDevice
                0x0000000000005380       0x3c S:/UltimateEnvironment/code-mod-example/param-replace/code-mod-framework/lib/libnx_min/nx/lib\libnx_min.a(fs_dev.o)
                0x0000000000005380                fsdevUnmountDevice
 *fill*         0x00000000000053bc        0x4 
 .text.fsdevCommitDevice
                0x00000000000053c0       0x28 S:/UltimateEnvironment/code-mod-example/param-replace/code-mod-framework/lib/libnx_min/nx/lib\libnx_min.a(fs_dev.o)
                0x00000000000053c0                fsdevCommitDevice
 *fill*         0x00000000000053e8        0x8 
 .text.fsdevSetArchiveBit
                0x00000000000053f0       0x68 S:/UltimateEnvironment/code-mod-example/param-replace/code-mod-framework/lib/libnx_min/nx/lib\libnx_min.a(fs_dev.o)
                0x00000000000053f0                fsdevSetArchiveBit
 *fill*         0x0000000000005458        0x8 
 .text.fsdevCreateFile
                0x0000000000005460       0x88 S:/UltimateEnvironment/code-mod-example/param-replace/code-mod-framework/lib/libnx_min/nx/lib\libnx_min.a(fs_dev.o)
                0x0000000000005460                fsdevCreateFile
 *fill*         0x00000000000054e8        0x8 
 .text.fsdevDeleteDirectoryRecursively
                0x00000000000054f0       0x68 S:/UltimateEnvironment/code-mod-example/param-replace/code-mod-framework/lib/libnx_min/nx/lib\libnx_min.a(fs_dev.o)
                0x00000000000054f0                fsdevDeleteDirectoryRecursively
 *fill*         0x0000000000005558        0x8 
 .text.fsdevMountSdmc
                0x0000000000005560      0x170 S:/UltimateEnvironment/code-mod-example/param-replace/code-mod-framework/lib/libnx_min/nx/lib\libnx_min.a(fs_dev.o)
                0x0000000000005560                fsdevMountSdmc
 .text.fsdevUnmountAll
                0x00000000000056d0       0x64 S:/UltimateEnvironment/code-mod-example/param-replace/code-mod-framework/lib/libnx_min/nx/lib\libnx_min.a(fs_dev.o)
                0x00000000000056d0                fsdevUnmountAll
 *fill*         0x0000000000005734        0xc 
 .text.fsdevGetDeviceFileSystem
                0x0000000000005740       0x20 S:/UltimateEnvironment/code-mod-example/param-replace/code-mod-framework/lib/libnx_min/nx/lib\libnx_min.a(fs_dev.o)
                0x0000000000005740                fsdevGetDeviceFileSystem
 .text.fsdevGetDefaultFileSystem
                0x0000000000005760       0x40 S:/UltimateEnvironment/code-mod-example/param-replace/code-mod-framework/lib/libnx_min/nx/lib\libnx_min.a(fs_dev.o)
                0x0000000000005760                fsdevGetDefaultFileSystem
 .text.fsdevTranslatePath
                0x00000000000057a0       0x58 S:/UltimateEnvironment/code-mod-example/param-replace/code-mod-framework/lib/libnx_min/nx/lib\libnx_min.a(fs_dev.o)
                0x00000000000057a0                fsdevTranslatePath
 *fill*         0x00000000000057f8        0x8 
 .text.fsdev_getmtime
                0x0000000000005800       0x20 S:/UltimateEnvironment/code-mod-example/param-replace/code-mod-framework/lib/libnx_min/nx/lib\libnx_min.a(fs_dev.o)
                0x0000000000005800                fsdev_getmtime
 .text.fsdevGetLastResult
                0x0000000000005820       0x20 S:/UltimateEnvironment/code-mod-example/param-replace/code-mod-framework/lib/libnx_min/nx/lib\libnx_min.a(fs_dev.o)
                0x0000000000005820                fsdevGetLastResult
 .text.decode_utf8
                0x0000000000005840      0x12c S:/UltimateEnvironment/code-mod-example/param-replace/code-mod-framework/lib/libnx_min/nx/lib\libnx_min.a(decode_utf8.o)
                0x0000000000005840                decode_utf8
 .text.svcSetHeapSize
                0x000000000000596c       0x14 S:/UltimateEnvironment/code-mod-example/param-replace/code-mod-framework/lib/libnx_min/nx/lib\libnx_min.a(svc.o)
                0x000000000000596c                svcSetHeapSize
 .text.svcSetMemoryPermission
                0x0000000000005980        0x8 S:/UltimateEnvironment/code-mod-example/param-replace/code-mod-framework/lib/libnx_min/nx/lib\libnx_min.a(svc.o)
                0x0000000000005980                svcSetMemoryPermission
 .text.svcSetMemoryAttribute
                0x0000000000005988        0x8 S:/UltimateEnvironment/code-mod-example/param-replace/code-mod-framework/lib/libnx_min/nx/lib\libnx_min.a(svc.o)
                0x0000000000005988                svcSetMemoryAttribute
 .text.svcMapMemory
                0x0000000000005990        0x8 S:/UltimateEnvironment/code-mod-example/param-replace/code-mod-framework/lib/libnx_min/nx/lib\libnx_min.a(svc.o)
                0x0000000000005990                svcMapMemory
 .text.svcUnmapMemory
                0x0000000000005998        0x8 S:/UltimateEnvironment/code-mod-example/param-replace/code-mod-framework/lib/libnx_min/nx/lib\libnx_min.a(svc.o)
                0x0000000000005998                svcUnmapMemory
 .text.svcQueryMemory
                0x00000000000059a0       0x14 S:/UltimateEnvironment/code-mod-example/param-replace/code-mod-framework/lib/libnx_min/nx/lib\libnx_min.a(svc.o)
                0x00000000000059a0                svcQueryMemory
 .text.svcExitProcess
                0x00000000000059b4        0x8 S:/UltimateEnvironment/code-mod-example/param-replace/code-mod-framework/lib/libnx_min/nx/lib\libnx_min.a(svc.o)
                0x00000000000059b4                svcExitProcess
 .text.svcCreateThread
                0x00000000000059bc       0x14 S:/UltimateEnvironment/code-mod-example/param-replace/code-mod-framework/lib/libnx_min/nx/lib\libnx_min.a(svc.o)
                0x00000000000059bc                svcCreateThread
 .text.svcStartThread
                0x00000000000059d0        0x8 S:/UltimateEnvironment/code-mod-example/param-replace/code-mod-framework/lib/libnx_min/nx/lib\libnx_min.a(svc.o)
                0x00000000000059d0                svcStartThread
 .text.svcExitThread
                0x00000000000059d8        0x8 S:/UltimateEnvironment/code-mod-example/param-replace/code-mod-framework/lib/libnx_min/nx/lib\libnx_min.a(svc.o)
                0x00000000000059d8                svcExitThread
 .text.svcSleepThread
                0x00000000000059e0        0x8 S:/UltimateEnvironment/code-mod-example/param-replace/code-mod-framework/lib/libnx_min/nx/lib\libnx_min.a(svc.o)
                0x00000000000059e0                svcSleepThread
 .text.svcGetThreadPriority
                0x00000000000059e8       0x14 S:/UltimateEnvironment/code-mod-example/param-replace/code-mod-framework/lib/libnx_min/nx/lib\libnx_min.a(svc.o)
                0x00000000000059e8                svcGetThreadPriority
 .text.svcSetThreadPriority
                0x00000000000059fc        0x8 S:/UltimateEnvironment/code-mod-example/param-replace/code-mod-framework/lib/libnx_min/nx/lib\libnx_min.a(svc.o)
                0x00000000000059fc                svcSetThreadPriority
 .text.svcGetThreadCoreMask
                0x0000000000005a04       0x18 S:/UltimateEnvironment/code-mod-example/param-replace/code-mod-framework/lib/libnx_min/nx/lib\libnx_min.a(svc.o)
                0x0000000000005a04                svcGetThreadCoreMask
 .text.svcSetThreadCoreMask
                0x0000000000005a1c        0x8 S:/UltimateEnvironment/code-mod-example/param-replace/code-mod-framework/lib/libnx_min/nx/lib\libnx_min.a(svc.o)
                0x0000000000005a1c                svcSetThreadCoreMask
 .text.svcGetCurrentProcessorNumber
                0x0000000000005a24        0x8 S:/UltimateEnvironment/code-mod-example/param-replace/code-mod-framework/lib/libnx_min/nx/lib\libnx_min.a(svc.o)
                0x0000000000005a24                svcGetCurrentProcessorNumber
 .text.svcSignalEvent
                0x0000000000005a2c        0x8 S:/UltimateEnvironment/code-mod-example/param-replace/code-mod-framework/lib/libnx_min/nx/lib\libnx_min.a(svc.o)
                0x0000000000005a2c                svcSignalEvent
 .text.svcClearEvent
                0x0000000000005a34        0x8 S:/UltimateEnvironment/code-mod-example/param-replace/code-mod-framework/lib/libnx_min/nx/lib\libnx_min.a(svc.o)
                0x0000000000005a34                svcClearEvent
 .text.svcMapSharedMemory
                0x0000000000005a3c        0x8 S:/UltimateEnvironment/code-mod-example/param-replace/code-mod-framework/lib/libnx_min/nx/lib\libnx_min.a(svc.o)
                0x0000000000005a3c                svcMapSharedMemory
 .text.svcUnmapSharedMemory
                0x0000000000005a44        0x8 S:/UltimateEnvironment/code-mod-example/param-replace/code-mod-framework/lib/libnx_min/nx/lib\libnx_min.a(svc.o)
                0x0000000000005a44                svcUnmapSharedMemory
 .text.svcCreateTransferMemory
                0x0000000000005a4c       0x14 S:/UltimateEnvironment/code-mod-example/param-replace/code-mod-framework/lib/libnx_min/nx/lib\libnx_min.a(svc.o)
                0x0000000000005a4c                svcCreateTransferMemory
 .text.svcCloseHandle
                0x0000000000005a60        0x8 S:/UltimateEnvironment/code-mod-example/param-replace/code-mod-framework/lib/libnx_min/nx/lib\libnx_min.a(svc.o)
                0x0000000000005a60                svcCloseHandle
 .text.svcResetSignal
                0x0000000000005a68        0x8 S:/UltimateEnvironment/code-mod-example/param-replace/code-mod-framework/lib/libnx_min/nx/lib\libnx_min.a(svc.o)
                0x0000000000005a68                svcResetSignal
 .text.svcWaitSynchronization
                0x0000000000005a70       0x14 S:/UltimateEnvironment/code-mod-example/param-replace/code-mod-framework/lib/libnx_min/nx/lib\libnx_min.a(svc.o)
                0x0000000000005a70                svcWaitSynchronization
 .text.svcCancelSynchronization
                0x0000000000005a84        0x8 S:/UltimateEnvironment/code-mod-example/param-replace/code-mod-framework/lib/libnx_min/nx/lib\libnx_min.a(svc.o)
                0x0000000000005a84                svcCancelSynchronization
 .text.svcArbitrateLock
                0x0000000000005a8c        0x8 S:/UltimateEnvironment/code-mod-example/param-replace/code-mod-framework/lib/libnx_min/nx/lib\libnx_min.a(svc.o)
                0x0000000000005a8c                svcArbitrateLock
 .text.svcArbitrateUnlock
                0x0000000000005a94        0x8 S:/UltimateEnvironment/code-mod-example/param-replace/code-mod-framework/lib/libnx_min/nx/lib\libnx_min.a(svc.o)
                0x0000000000005a94                svcArbitrateUnlock
 .text.svcWaitProcessWideKeyAtomic
                0x0000000000005a9c        0x8 S:/UltimateEnvironment/code-mod-example/param-replace/code-mod-framework/lib/libnx_min/nx/lib\libnx_min.a(svc.o)
                0x0000000000005a9c                svcWaitProcessWideKeyAtomic
 .text.svcSignalProcessWideKey
                0x0000000000005aa4        0x8 S:/UltimateEnvironment/code-mod-example/param-replace/code-mod-framework/lib/libnx_min/nx/lib\libnx_min.a(svc.o)
                0x0000000000005aa4                svcSignalProcessWideKey
 .text.svcGetSystemTick
                0x0000000000005aac        0x8 S:/UltimateEnvironment/code-mod-example/param-replace/code-mod-framework/lib/libnx_min/nx/lib\libnx_min.a(svc.o)
                0x0000000000005aac                svcGetSystemTick
 .text.svcConnectToNamedPort
                0x0000000000005ab4       0x14 S:/UltimateEnvironment/code-mod-example/param-replace/code-mod-framework/lib/libnx_min/nx/lib\libnx_min.a(svc.o)
                0x0000000000005ab4                svcConnectToNamedPort
 .text.svcSendSyncRequest
                0x0000000000005ac8        0x8 S:/UltimateEnvironment/code-mod-example/param-replace/code-mod-framework/lib/libnx_min/nx/lib\libnx_min.a(svc.o)
                0x0000000000005ac8                svcSendSyncRequest
 .text.svcSendSyncRequestWithUserBuffer
                0x0000000000005ad0        0x8 S:/UltimateEnvironment/code-mod-example/param-replace/code-mod-framework/lib/libnx_min/nx/lib\libnx_min.a(svc.o)
                0x0000000000005ad0                svcSendSyncRequestWithUserBuffer
 .text.svcSendAsyncRequestWithUserBuffer
                0x0000000000005ad8       0x14 S:/UltimateEnvironment/code-mod-example/param-replace/code-mod-framework/lib/libnx_min/nx/lib\libnx_min.a(svc.o)
                0x0000000000005ad8                svcSendAsyncRequestWithUserBuffer
 .text.svcGetProcessId
                0x0000000000005aec       0x14 S:/UltimateEnvironment/code-mod-example/param-replace/code-mod-framework/lib/libnx_min/nx/lib\libnx_min.a(svc.o)
                0x0000000000005aec                svcGetProcessId
 .text.svcGetThreadId
                0x0000000000005b00       0x14 S:/UltimateEnvironment/code-mod-example/param-replace/code-mod-framework/lib/libnx_min/nx/lib\libnx_min.a(svc.o)
                0x0000000000005b00                svcGetThreadId
 .text.svcBreak
                0x0000000000005b14        0x8 S:/UltimateEnvironment/code-mod-example/param-replace/code-mod-framework/lib/libnx_min/nx/lib\libnx_min.a(svc.o)
                0x0000000000005b14                svcBreak
 .text.svcOutputDebugString
                0x0000000000005b1c        0x8 S:/UltimateEnvironment/code-mod-example/param-replace/code-mod-framework/lib/libnx_min/nx/lib\libnx_min.a(svc.o)
                0x0000000000005b1c                svcOutputDebugString
 .text.svcReturnFromException
                0x0000000000005b24        0x8 S:/UltimateEnvironment/code-mod-example/param-replace/code-mod-framework/lib/libnx_min/nx/lib\libnx_min.a(svc.o)
                0x0000000000005b24                svcReturnFromException
 .text.svcGetInfo
                0x0000000000005b2c       0x14 S:/UltimateEnvironment/code-mod-example/param-replace/code-mod-framework/lib/libnx_min/nx/lib\libnx_min.a(svc.o)
                0x0000000000005b2c                svcGetInfo
 .text.svcMapPhysicalMemory
                0x0000000000005b40        0x8 S:/UltimateEnvironment/code-mod-example/param-replace/code-mod-framework/lib/libnx_min/nx/lib\libnx_min.a(svc.o)
                0x0000000000005b40                svcMapPhysicalMemory
 .text.svcUnmapPhysicalMemory
                0x0000000000005b48        0x8 S:/UltimateEnvironment/code-mod-example/param-replace/code-mod-framework/lib/libnx_min/nx/lib\libnx_min.a(svc.o)
                0x0000000000005b48                svcUnmapPhysicalMemory
 .text.svcGetResourceLimitLimitValue
                0x0000000000005b50       0x14 S:/UltimateEnvironment/code-mod-example/param-replace/code-mod-framework/lib/libnx_min/nx/lib\libnx_min.a(svc.o)
                0x0000000000005b50                svcGetResourceLimitLimitValue
 .text.svcGetResourceLimitCurrentValue
                0x0000000000005b64       0x14 S:/UltimateEnvironment/code-mod-example/param-replace/code-mod-framework/lib/libnx_min/nx/lib\libnx_min.a(svc.o)
                0x0000000000005b64                svcGetResourceLimitCurrentValue
 .text.svcSetThreadActivity
                0x0000000000005b78        0x8 S:/UltimateEnvironment/code-mod-example/param-replace/code-mod-framework/lib/libnx_min/nx/lib\libnx_min.a(svc.o)
                0x0000000000005b78                svcSetThreadActivity
 .text.svcGetThreadContext3
                0x0000000000005b80        0x8 S:/UltimateEnvironment/code-mod-example/param-replace/code-mod-framework/lib/libnx_min/nx/lib\libnx_min.a(svc.o)
                0x0000000000005b80                svcGetThreadContext3
 .text.svcCreateSession
                0x0000000000005b88       0x18 S:/UltimateEnvironment/code-mod-example/param-replace/code-mod-framework/lib/libnx_min/nx/lib\libnx_min.a(svc.o)
                0x0000000000005b88                svcCreateSession
 .text.svcAcceptSession
                0x0000000000005ba0       0x14 S:/UltimateEnvironment/code-mod-example/param-replace/code-mod-framework/lib/libnx_min/nx/lib\libnx_min.a(svc.o)
                0x0000000000005ba0                svcAcceptSession
 .text.svcReplyAndReceive
                0x0000000000005bb4       0x14 S:/UltimateEnvironment/code-mod-example/param-replace/code-mod-framework/lib/libnx_min/nx/lib\libnx_min.a(svc.o)
                0x0000000000005bb4                svcReplyAndReceive
 .text.svcReplyAndReceiveWithUserBuffer
                0x0000000000005bc8       0x14 S:/UltimateEnvironment/code-mod-example/param-replace/code-mod-framework/lib/libnx_min/nx/lib\libnx_min.a(svc.o)
                0x0000000000005bc8                svcReplyAndReceiveWithUserBuffer
 .text.svcCreateEvent
                0x0000000000005bdc       0x18 S:/UltimateEnvironment/code-mod-example/param-replace/code-mod-framework/lib/libnx_min/nx/lib\libnx_min.a(svc.o)
                0x0000000000005bdc                svcCreateEvent
 .text.svcMapPhysicalMemoryUnsafe
                0x0000000000005bf4        0x8 S:/UltimateEnvironment/code-mod-example/param-replace/code-mod-framework/lib/libnx_min/nx/lib\libnx_min.a(svc.o)
                0x0000000000005bf4                svcMapPhysicalMemoryUnsafe
 .text.svcUnmapPhysicalMemoryUnsafe
                0x0000000000005bfc        0x8 S:/UltimateEnvironment/code-mod-example/param-replace/code-mod-framework/lib/libnx_min/nx/lib\libnx_min.a(svc.o)
                0x0000000000005bfc                svcUnmapPhysicalMemoryUnsafe
 .text.svcSetUnsafeLimit
                0x0000000000005c04        0x8 S:/UltimateEnvironment/code-mod-example/param-replace/code-mod-framework/lib/libnx_min/nx/lib\libnx_min.a(svc.o)
                0x0000000000005c04                svcSetUnsafeLimit
 .text.svcCreateCodeMemory
                0x0000000000005c0c       0x14 S:/UltimateEnvironment/code-mod-example/param-replace/code-mod-framework/lib/libnx_min/nx/lib\libnx_min.a(svc.o)
                0x0000000000005c0c                svcCreateCodeMemory
 .text.svcControlCodeMemory
                0x0000000000005c20        0x8 S:/UltimateEnvironment/code-mod-example/param-replace/code-mod-framework/lib/libnx_min/nx/lib\libnx_min.a(svc.o)
                0x0000000000005c20                svcControlCodeMemory
 .text.svcReadWriteRegister
                0x0000000000005c28       0x14 S:/UltimateEnvironment/code-mod-example/param-replace/code-mod-framework/lib/libnx_min/nx/lib\libnx_min.a(svc.o)
                0x0000000000005c28                svcReadWriteRegister
 .text.svcCreateSharedMemory
                0x0000000000005c3c       0x14 S:/UltimateEnvironment/code-mod-example/param-replace/code-mod-framework/lib/libnx_min/nx/lib\libnx_min.a(svc.o)
                0x0000000000005c3c                svcCreateSharedMemory
 .text.svcMapTransferMemory
                0x0000000000005c50        0x8 S:/UltimateEnvironment/code-mod-example/param-replace/code-mod-framework/lib/libnx_min/nx/lib\libnx_min.a(svc.o)
                0x0000000000005c50                svcMapTransferMemory
 .text.svcUnmapTransferMemory
                0x0000000000005c58        0x8 S:/UltimateEnvironment/code-mod-example/param-replace/code-mod-framework/lib/libnx_min/nx/lib\libnx_min.a(svc.o)
                0x0000000000005c58                svcUnmapTransferMemory
 .text.svcCreateInterruptEvent
                0x0000000000005c60       0x14 S:/UltimateEnvironment/code-mod-example/param-replace/code-mod-framework/lib/libnx_min/nx/lib\libnx_min.a(svc.o)
                0x0000000000005c60                svcCreateInterruptEvent
 .text.svcQueryPhysicalAddress
                0x0000000000005c74       0x18 S:/UltimateEnvironment/code-mod-example/param-replace/code-mod-framework/lib/libnx_min/nx/lib\libnx_min.a(svc.o)
                0x0000000000005c74                svcQueryPhysicalAddress
 .text.svcQueryIoMapping
                0x0000000000005c8c       0x14 S:/UltimateEnvironment/code-mod-example/param-replace/code-mod-framework/lib/libnx_min/nx/lib\libnx_min.a(svc.o)
                0x0000000000005c8c                svcQueryIoMapping
 .text.svcCreateDeviceAddressSpace
                0x0000000000005ca0       0x14 S:/UltimateEnvironment/code-mod-example/param-replace/code-mod-framework/lib/libnx_min/nx/lib\libnx_min.a(svc.o)
                0x0000000000005ca0                svcCreateDeviceAddressSpace
 .text.svcAttachDeviceAddressSpace
                0x0000000000005cb4        0x8 S:/UltimateEnvironment/code-mod-example/param-replace/code-mod-framework/lib/libnx_min/nx/lib\libnx_min.a(svc.o)
                0x0000000000005cb4                svcAttachDeviceAddressSpace
 .text.svcDetachDeviceAddressSpace
                0x0000000000005cbc        0x8 S:/UltimateEnvironment/code-mod-example/param-replace/code-mod-framework/lib/libnx_min/nx/lib\libnx_min.a(svc.o)
                0x0000000000005cbc                svcDetachDeviceAddressSpace
 .text.svcMapDeviceAddressSpaceByForce
                0x0000000000005cc4        0x8 S:/UltimateEnvironment/code-mod-example/param-replace/code-mod-framework/lib/libnx_min/nx/lib\libnx_min.a(svc.o)
                0x0000000000005cc4                svcMapDeviceAddressSpaceByForce
 .text.svcMapDeviceAddressSpaceAligned
                0x0000000000005ccc        0x8 S:/UltimateEnvironment/code-mod-example/param-replace/code-mod-framework/lib/libnx_min/nx/lib\libnx_min.a(svc.o)
                0x0000000000005ccc                svcMapDeviceAddressSpaceAligned
 .text.svcUnmapDeviceAddressSpace
                0x0000000000005cd4        0x8 S:/UltimateEnvironment/code-mod-example/param-replace/code-mod-framework/lib/libnx_min/nx/lib\libnx_min.a(svc.o)
                0x0000000000005cd4                svcUnmapDeviceAddressSpace
 .text.svcDebugActiveProcess
                0x0000000000005cdc       0x14 S:/UltimateEnvironment/code-mod-example/param-replace/code-mod-framework/lib/libnx_min/nx/lib\libnx_min.a(svc.o)
                0x0000000000005cdc                svcDebugActiveProcess
 .text.svcBreakDebugProcess
                0x0000000000005cf0        0x8 S:/UltimateEnvironment/code-mod-example/param-replace/code-mod-framework/lib/libnx_min/nx/lib\libnx_min.a(svc.o)
                0x0000000000005cf0                svcBreakDebugProcess
 .text.svcTerminateDebugProcess
                0x0000000000005cf8        0x8 S:/UltimateEnvironment/code-mod-example/param-replace/code-mod-framework/lib/libnx_min/nx/lib\libnx_min.a(svc.o)
                0x0000000000005cf8                svcTerminateDebugProcess
 .text.svcGetDebugEvent
                0x0000000000005d00        0x8 S:/UltimateEnvironment/code-mod-example/param-replace/code-mod-framework/lib/libnx_min/nx/lib\libnx_min.a(svc.o)
                0x0000000000005d00                svcGetDebugEvent
 .text.svcLegacyContinueDebugEvent
                0x0000000000005d08        0x8 S:/UltimateEnvironment/code-mod-example/param-replace/code-mod-framework/lib/libnx_min/nx/lib\libnx_min.a(svc.o)
                0x0000000000005d08                svcLegacyContinueDebugEvent
 .text.svcContinueDebugEvent
                0x0000000000005d10        0x8 S:/UltimateEnvironment/code-mod-example/param-replace/code-mod-framework/lib/libnx_min/nx/lib\libnx_min.a(svc.o)
                0x0000000000005d10                svcContinueDebugEvent
 .text.svcGetProcessList
                0x0000000000005d18       0x14 S:/UltimateEnvironment/code-mod-example/param-replace/code-mod-framework/lib/libnx_min/nx/lib\libnx_min.a(svc.o)
                0x0000000000005d18                svcGetProcessList
 .text.svcGetThreadList
                0x0000000000005d2c       0x14 S:/UltimateEnvironment/code-mod-example/param-replace/code-mod-framework/lib/libnx_min/nx/lib\libnx_min.a(svc.o)
                0x0000000000005d2c                svcGetThreadList
 .text.svcGetDebugThreadContext
                0x0000000000005d40        0x8 S:/UltimateEnvironment/code-mod-example/param-replace/code-mod-framework/lib/libnx_min/nx/lib\libnx_min.a(svc.o)
                0x0000000000005d40                svcGetDebugThreadContext
 .text.svcSetDebugThreadContext
                0x0000000000005d48        0x8 S:/UltimateEnvironment/code-mod-example/param-replace/code-mod-framework/lib/libnx_min/nx/lib\libnx_min.a(svc.o)
                0x0000000000005d48                svcSetDebugThreadContext
 .text.svcQueryDebugProcessMemory
                0x0000000000005d50       0x14 S:/UltimateEnvironment/code-mod-example/param-replace/code-mod-framework/lib/libnx_min/nx/lib\libnx_min.a(svc.o)
                0x0000000000005d50                svcQueryDebugProcessMemory
 .text.svcReadDebugProcessMemory
                0x0000000000005d64        0x8 S:/UltimateEnvironment/code-mod-example/param-replace/code-mod-framework/lib/libnx_min/nx/lib\libnx_min.a(svc.o)
                0x0000000000005d64                svcReadDebugProcessMemory
 .text.svcWriteDebugProcessMemory
                0x0000000000005d6c        0x8 S:/UltimateEnvironment/code-mod-example/param-replace/code-mod-framework/lib/libnx_min/nx/lib\libnx_min.a(svc.o)
                0x0000000000005d6c                svcWriteDebugProcessMemory
 .text.svcGetDebugThreadParam
                0x0000000000005d74       0x18 S:/UltimateEnvironment/code-mod-example/param-replace/code-mod-framework/lib/libnx_min/nx/lib\libnx_min.a(svc.o)
                0x0000000000005d74                svcGetDebugThreadParam
 .text.svcGetSystemInfo
                0x0000000000005d8c       0x14 S:/UltimateEnvironment/code-mod-example/param-replace/code-mod-framework/lib/libnx_min/nx/lib\libnx_min.a(svc.o)
                0x0000000000005d8c                svcGetSystemInfo
 .text.svcCreatePort
                0x0000000000005da0       0x18 S:/UltimateEnvironment/code-mod-example/param-replace/code-mod-framework/lib/libnx_min/nx/lib\libnx_min.a(svc.o)
                0x0000000000005da0                svcCreatePort
 .text.svcManageNamedPort
                0x0000000000005db8       0x14 S:/UltimateEnvironment/code-mod-example/param-replace/code-mod-framework/lib/libnx_min/nx/lib\libnx_min.a(svc.o)
                0x0000000000005db8                svcManageNamedPort
 .text.svcConnectToPort
                0x0000000000005dcc       0x14 S:/UltimateEnvironment/code-mod-example/param-replace/code-mod-framework/lib/libnx_min/nx/lib\libnx_min.a(svc.o)
                0x0000000000005dcc                svcConnectToPort
 .text.svcSetProcessMemoryPermission
                0x0000000000005de0        0x8 S:/UltimateEnvironment/code-mod-example/param-replace/code-mod-framework/lib/libnx_min/nx/lib\libnx_min.a(svc.o)
                0x0000000000005de0                svcSetProcessMemoryPermission
 .text.svcMapProcessMemory
                0x0000000000005de8        0x8 S:/UltimateEnvironment/code-mod-example/param-replace/code-mod-framework/lib/libnx_min/nx/lib\libnx_min.a(svc.o)
                0x0000000000005de8                svcMapProcessMemory
 .text.svcUnmapProcessMemory
                0x0000000000005df0        0x8 S:/UltimateEnvironment/code-mod-example/param-replace/code-mod-framework/lib/libnx_min/nx/lib\libnx_min.a(svc.o)
                0x0000000000005df0                svcUnmapProcessMemory
 .text.svcQueryProcessMemory
                0x0000000000005df8       0x14 S:/UltimateEnvironment/code-mod-example/param-replace/code-mod-framework/lib/libnx_min/nx/lib\libnx_min.a(svc.o)
                0x0000000000005df8                svcQueryProcessMemory
 .text.svcMapProcessCodeMemory
                0x0000000000005e0c        0x8 S:/UltimateEnvironment/code-mod-example/param-replace/code-mod-framework/lib/libnx_min/nx/lib\libnx_min.a(svc.o)
                0x0000000000005e0c                svcMapProcessCodeMemory
 .text.svcUnmapProcessCodeMemory
                0x0000000000005e14        0x8 S:/UltimateEnvironment/code-mod-example/param-replace/code-mod-framework/lib/libnx_min/nx/lib\libnx_min.a(svc.o)
                0x0000000000005e14                svcUnmapProcessCodeMemory
 .text.svcCreateProcess
                0x0000000000005e1c       0x14 S:/UltimateEnvironment/code-mod-example/param-replace/code-mod-framework/lib/libnx_min/nx/lib\libnx_min.a(svc.o)
                0x0000000000005e1c                svcCreateProcess
 .text.svcStartProcess
                0x0000000000005e30        0x8 S:/UltimateEnvironment/code-mod-example/param-replace/code-mod-framework/lib/libnx_min/nx/lib\libnx_min.a(svc.o)
                0x0000000000005e30                svcStartProcess
 .text.svcTerminateProcess
                0x0000000000005e38        0x8 S:/UltimateEnvironment/code-mod-example/param-replace/code-mod-framework/lib/libnx_min/nx/lib\libnx_min.a(svc.o)
                0x0000000000005e38                svcTerminateProcess
 .text.svcGetProcessInfo
                0x0000000000005e40       0x14 S:/UltimateEnvironment/code-mod-example/param-replace/code-mod-framework/lib/libnx_min/nx/lib\libnx_min.a(svc.o)
                0x0000000000005e40                svcGetProcessInfo
 .text.svcCreateResourceLimit
                0x0000000000005e54       0x14 S:/UltimateEnvironment/code-mod-example/param-replace/code-mod-framework/lib/libnx_min/nx/lib\libnx_min.a(svc.o)
                0x0000000000005e54                svcCreateResourceLimit
 .text.svcSetResourceLimitLimitValue
                0x0000000000005e68        0x8 S:/UltimateEnvironment/code-mod-example/param-replace/code-mod-framework/lib/libnx_min/nx/lib\libnx_min.a(svc.o)
                0x0000000000005e68                svcSetResourceLimitLimitValue
 .text.svcCallSecureMonitor
                0x0000000000005e70       0x34 S:/UltimateEnvironment/code-mod-example/param-replace/code-mod-framework/lib/libnx_min/nx/lib\libnx_min.a(svc.o)
                0x0000000000005e70                svcCallSecureMonitor
 .text.__aarch64_read_tp
                0x0000000000005ea4        0xc S:/UltimateEnvironment/code-mod-example/param-replace/code-mod-framework/lib/libnx_min/nx/lib\libnx_min.a(readtp.o)
                0x0000000000005ea4                __aarch64_read_tp
 .text._GetRegionFromInfo.isra.1
                0x0000000000005eb0       0x7c S:/UltimateEnvironment/code-mod-example/param-replace/code-mod-framework/lib/libnx_min/nx/lib\libnx_min.a(virtmem.o)
 *fill*         0x0000000000005f2c        0x4 
 .text.virtmemSetup
                0x0000000000005f30      0x114 S:/UltimateEnvironment/code-mod-example/param-replace/code-mod-framework/lib/libnx_min/nx/lib\libnx_min.a(virtmem.o)
                0x0000000000005f30                virtmemSetup
 *fill*         0x0000000000006044        0xc 
 .text.virtmemReserve
                0x0000000000006050      0x13c S:/UltimateEnvironment/code-mod-example/param-replace/code-mod-framework/lib/libnx_min/nx/lib\libnx_min.a(virtmem.o)
                0x0000000000006050                virtmemReserve
 *fill*         0x000000000000618c        0x4 
 .text.virtmemFree
                0x0000000000006190        0x4 S:/UltimateEnvironment/code-mod-example/param-replace/code-mod-framework/lib/libnx_min/nx/lib\libnx_min.a(virtmem.o)
                0x0000000000006190                virtmemFree
 *fill*         0x0000000000006194        0xc 
 .text.virtmemReserveStack
                0x00000000000061a0       0xc8 S:/UltimateEnvironment/code-mod-example/param-replace/code-mod-framework/lib/libnx_min/nx/lib\libnx_min.a(virtmem.o)
                0x00000000000061a0                virtmemReserveStack
 *fill*         0x0000000000006268        0x8 
 .text.virtmemFreeStack
                0x0000000000006270        0x4 S:/UltimateEnvironment/code-mod-example/param-replace/code-mod-framework/lib/libnx_min/nx/lib\libnx_min.a(virtmem.o)
                0x0000000000006270                virtmemFreeStack
 *fill*         0x0000000000006274        0xc 
 .text.mutexLock
                0x0000000000006280       0x8c S:/UltimateEnvironment/code-mod-example/param-replace/code-mod-framework/lib/libnx_min/nx/lib\libnx_min.a(mutex.o)
                0x0000000000006280                mutexLock
 *fill*         0x000000000000630c        0x4 
 .text.mutexTryLock
                0x0000000000006310       0x34 S:/UltimateEnvironment/code-mod-example/param-replace/code-mod-framework/lib/libnx_min/nx/lib\libnx_min.a(mutex.o)
                0x0000000000006310                mutexTryLock
 *fill*         0x0000000000006344        0xc 
 .text.mutexUnlock
                0x0000000000006350       0x30 S:/UltimateEnvironment/code-mod-example/param-replace/code-mod-framework/lib/libnx_min/nx/lib\libnx_min.a(mutex.o)
                0x0000000000006350                mutexUnlock
 .text.rmutexLock
                0x0000000000006380       0x4c S:/UltimateEnvironment/code-mod-example/param-replace/code-mod-framework/lib/libnx_min/nx/lib\libnx_min.a(mutex.o)
                0x0000000000006380                rmutexLock
 *fill*         0x00000000000063cc        0x4 
 .text.rmutexTryLock
                0x00000000000063d0       0x5c S:/UltimateEnvironment/code-mod-example/param-replace/code-mod-framework/lib/libnx_min/nx/lib\libnx_min.a(mutex.o)
                0x00000000000063d0                rmutexTryLock
 *fill*         0x000000000000642c        0x4 
 .text.rmutexUnlock
                0x0000000000006430       0x1c S:/UltimateEnvironment/code-mod-example/param-replace/code-mod-framework/lib/libnx_min/nx/lib\libnx_min.a(mutex.o)
                0x0000000000006430                rmutexUnlock
 *fill*         0x000000000000644c        0x4 
 .text.ipcPrepareHeader
                0x0000000000006450      0x220 S:/UltimateEnvironment/code-mod-example/param-replace/code-mod-framework/lib/libnx_min/nx/lib\libnx_min.a(fs.o)
 .text.ipcParse
                0x0000000000006670      0x22c S:/UltimateEnvironment/code-mod-example/param-replace/code-mod-framework/lib/libnx_min/nx/lib\libnx_min.a(fs.o)
 *fill*         0x000000000000689c        0x4 
 .text.serviceIpcParse
                0x00000000000068a0       0xb0 S:/UltimateEnvironment/code-mod-example/param-replace/code-mod-framework/lib/libnx_min/nx/lib\libnx_min.a(fs.o)
 .text.ipcCloseObjectById
                0x0000000000006950       0x34 S:/UltimateEnvironment/code-mod-example/param-replace/code-mod-framework/lib/libnx_min/nx/lib\libnx_min.a(fs.o)
 *fill*         0x0000000000006984        0xc 
 .text._fsDeviceOperatorCheckInserted
                0x0000000000006990      0x19c S:/UltimateEnvironment/code-mod-example/param-replace/code-mod-framework/lib/libnx_min/nx/lib\libnx_min.a(fs.o)
 *fill*         0x0000000000006b2c        0x4 
 .text.fsFsQueryEntry.part.12
                0x0000000000006b30      0x274 S:/UltimateEnvironment/code-mod-example/param-replace/code-mod-framework/lib/libnx_min/nx/lib\libnx_min.a(fs.o)
 *fill*         0x0000000000006da4        0xc 
 .text.fsInitialize
                0x0000000000006db0      0x200 S:/UltimateEnvironment/code-mod-example/param-replace/code-mod-framework/lib/libnx_min/nx/lib\libnx_min.a(fs.o)
                0x0000000000006db0                fsInitialize
 .text.fsExit   0x0000000000006fb0       0x9c S:/UltimateEnvironment/code-mod-example/param-replace/code-mod-framework/lib/libnx_min/nx/lib\libnx_min.a(fs.o)
                0x0000000000006fb0                fsExit
 *fill*         0x000000000000704c        0x4 
 .text.fsGetServiceSession
                0x0000000000007050        0xc S:/UltimateEnvironment/code-mod-example/param-replace/code-mod-framework/lib/libnx_min/nx/lib\libnx_min.a(fs.o)
                0x0000000000007050                fsGetServiceSession
 *fill*         0x000000000000705c        0x4 
 .text.fsOpenBisStorage
                0x0000000000007060      0x1ec S:/UltimateEnvironment/code-mod-example/param-replace/code-mod-framework/lib/libnx_min/nx/lib\libnx_min.a(fs.o)
                0x0000000000007060                fsOpenBisStorage
 *fill*         0x000000000000724c        0x4 
 .text.fsOpenBisFileSystem
                0x0000000000007250      0x170 S:/UltimateEnvironment/code-mod-example/param-replace/code-mod-framework/lib/libnx_min/nx/lib\libnx_min.a(fs.o)
                0x0000000000007250                fsOpenBisFileSystem
 .text.fsMountSdcard
                0x00000000000073c0      0x1cc S:/UltimateEnvironment/code-mod-example/param-replace/code-mod-framework/lib/libnx_min/nx/lib\libnx_min.a(fs.o)
                0x00000000000073c0                fsMountSdcard
 *fill*         0x000000000000758c        0x4 
 .text.fsMountSaveData
                0x0000000000007590      0x208 S:/UltimateEnvironment/code-mod-example/param-replace/code-mod-framework/lib/libnx_min/nx/lib\libnx_min.a(fs.o)
                0x0000000000007590                fsMountSaveData
 *fill*         0x0000000000007798        0x8 
 .text.fsMountSystemSaveData
                0x00000000000077a0      0x208 S:/UltimateEnvironment/code-mod-example/param-replace/code-mod-framework/lib/libnx_min/nx/lib\libnx_min.a(fs.o)
                0x00000000000077a0                fsMountSystemSaveData
 *fill*         0x00000000000079a8        0x8 
 .text.fsOpenSaveDataIterator
                0x00000000000079b0      0x1e0 S:/UltimateEnvironment/code-mod-example/param-replace/code-mod-framework/lib/libnx_min/nx/lib\libnx_min.a(fs.o)
                0x00000000000079b0                fsOpenSaveDataIterator
 .text.fsOpenContentStorageFileSystem
                0x0000000000007b90      0x1d4 S:/UltimateEnvironment/code-mod-example/param-replace/code-mod-framework/lib/libnx_min/nx/lib\libnx_min.a(fs.o)
                0x0000000000007b90                fsOpenContentStorageFileSystem
 *fill*         0x0000000000007d64        0xc 
 .text.fsOpenDataStorageByCurrentProcess
                0x0000000000007d70      0x1cc S:/UltimateEnvironment/code-mod-example/param-replace/code-mod-framework/lib/libnx_min/nx/lib\libnx_min.a(fs.o)
                0x0000000000007d70                fsOpenDataStorageByCurrentProcess
 *fill*         0x0000000000007f3c        0x4 
 .text.fsOpenDataStorageByDataId
                0x0000000000007f40      0x200 S:/UltimateEnvironment/code-mod-example/param-replace/code-mod-framework/lib/libnx_min/nx/lib\libnx_min.a(fs.o)
                0x0000000000007f40                fsOpenDataStorageByDataId
 .text.fsOpenDeviceOperator
                0x0000000000008140      0x1cc S:/UltimateEnvironment/code-mod-example/param-replace/code-mod-framework/lib/libnx_min/nx/lib\libnx_min.a(fs.o)
                0x0000000000008140                fsOpenDeviceOperator
 *fill*         0x000000000000830c        0x4 
 .text.fsOpenSdCardDetectionEventNotifier
                0x0000000000008310      0x1cc S:/UltimateEnvironment/code-mod-example/param-replace/code-mod-framework/lib/libnx_min/nx/lib\libnx_min.a(fs.o)
                0x0000000000008310                fsOpenSdCardDetectionEventNotifier
 *fill*         0x00000000000084dc        0x4 
 .text.fsGetRightsIdByPath
                0x00000000000084e0      0x174 S:/UltimateEnvironment/code-mod-example/param-replace/code-mod-framework/lib/libnx_min/nx/lib\libnx_min.a(fs.o)
                0x00000000000084e0                fsGetRightsIdByPath
 *fill*         0x0000000000008654        0xc 
 .text.fsGetRightsIdAndKeyGenerationByPath
                0x0000000000008660      0x184 S:/UltimateEnvironment/code-mod-example/param-replace/code-mod-framework/lib/libnx_min/nx/lib\libnx_min.a(fs.o)
                0x0000000000008660                fsGetRightsIdAndKeyGenerationByPath
 *fill*         0x00000000000087e4        0xc 
 .text.fsIsExFatSupported
                0x00000000000087f0      0x138 S:/UltimateEnvironment/code-mod-example/param-replace/code-mod-framework/lib/libnx_min/nx/lib\libnx_min.a(fs.o)
                0x00000000000087f0                fsIsExFatSupported
 *fill*         0x0000000000008928        0x8 
 .text.fsMount_SaveData
                0x0000000000008930       0x3c S:/UltimateEnvironment/code-mod-example/param-replace/code-mod-framework/lib/libnx_min/nx/lib\libnx_min.a(fs.o)
                0x0000000000008930                fsMount_SaveData
 *fill*         0x000000000000896c        0x4 
 .text.fsMount_SystemSaveData
                0x0000000000008970       0x30 S:/UltimateEnvironment/code-mod-example/param-replace/code-mod-framework/lib/libnx_min/nx/lib\libnx_min.a(fs.o)
                0x0000000000008970                fsMount_SystemSaveData
 .text.fsOpenFileSystemWithId
                0x00000000000089a0      0x248 S:/UltimateEnvironment/code-mod-example/param-replace/code-mod-framework/lib/libnx_min/nx/lib\libnx_min.a(fs.o)
                0x00000000000089a0                fsOpenFileSystemWithId
 *fill*         0x0000000000008be8        0x8 
 .text.fsOpenFileSystem
                0x0000000000008bf0       0x10 S:/UltimateEnvironment/code-mod-example/param-replace/code-mod-framework/lib/libnx_min/nx/lib\libnx_min.a(fs.o)
                0x0000000000008bf0                fsOpenFileSystem
 .text.fsOpenFileSystemWithPatch
                0x0000000000008c00      0x184 S:/UltimateEnvironment/code-mod-example/param-replace/code-mod-framework/lib/libnx_min/nx/lib\libnx_min.a(fs.o)
                0x0000000000008c00                fsOpenFileSystemWithPatch
 *fill*         0x0000000000008d84        0xc 
 .text.fsFsCreateFile
                0x0000000000008d90      0x1a4 S:/UltimateEnvironment/code-mod-example/param-replace/code-mod-framework/lib/libnx_min/nx/lib\libnx_min.a(fs.o)
                0x0000000000008d90                fsFsCreateFile
 *fill*         0x0000000000008f34        0xc 
 .text.fsFsDeleteFile
                0x0000000000008f40      0x19c S:/UltimateEnvironment/code-mod-example/param-replace/code-mod-framework/lib/libnx_min/nx/lib\libnx_min.a(fs.o)
                0x0000000000008f40                fsFsDeleteFile
 *fill*         0x00000000000090dc        0x4 
 .text.fsFsCreateDirectory
                0x00000000000090e0      0x19c S:/UltimateEnvironment/code-mod-example/param-replace/code-mod-framework/lib/libnx_min/nx/lib\libnx_min.a(fs.o)
                0x00000000000090e0                fsFsCreateDirectory
 *fill*         0x000000000000927c        0x4 
 .text.fsFsDeleteDirectory
                0x0000000000009280      0x19c S:/UltimateEnvironment/code-mod-example/param-replace/code-mod-framework/lib/libnx_min/nx/lib\libnx_min.a(fs.o)
                0x0000000000009280                fsFsDeleteDirectory
 *fill*         0x000000000000941c        0x4 
 .text.fsFsDeleteDirectoryRecursively
                0x0000000000009420      0x19c S:/UltimateEnvironment/code-mod-example/param-replace/code-mod-framework/lib/libnx_min/nx/lib\libnx_min.a(fs.o)
                0x0000000000009420                fsFsDeleteDirectoryRecursively
 *fill*         0x00000000000095bc        0x4 
 .text.fsFsRenameFile
                0x00000000000095c0      0x214 S:/UltimateEnvironment/code-mod-example/param-replace/code-mod-framework/lib/libnx_min/nx/lib\libnx_min.a(fs.o)
                0x00000000000095c0                fsFsRenameFile
 *fill*         0x00000000000097d4        0xc 
 .text.fsFsRenameDirectory
                0x00000000000097e0      0x214 S:/UltimateEnvironment/code-mod-example/param-replace/code-mod-framework/lib/libnx_min/nx/lib\libnx_min.a(fs.o)
                0x00000000000097e0                fsFsRenameDirectory
 *fill*         0x00000000000099f4        0xc 
 .text.fsFsGetEntryType
                0x0000000000009a00      0x1b0 S:/UltimateEnvironment/code-mod-example/param-replace/code-mod-framework/lib/libnx_min/nx/lib\libnx_min.a(fs.o)
                0x0000000000009a00                fsFsGetEntryType
 .text.fsFsOpenFile
                0x0000000000009bb0      0x1e4 S:/UltimateEnvironment/code-mod-example/param-replace/code-mod-framework/lib/libnx_min/nx/lib\libnx_min.a(fs.o)
                0x0000000000009bb0                fsFsOpenFile
 *fill*         0x0000000000009d94        0xc 
 .text.fsFsOpenDirectory
                0x0000000000009da0      0x1f8 S:/UltimateEnvironment/code-mod-example/param-replace/code-mod-framework/lib/libnx_min/nx/lib\libnx_min.a(fs.o)
                0x0000000000009da0                fsFsOpenDirectory
 *fill*         0x0000000000009f98        0x8 
 .text.fsFsCommit
                0x0000000000009fa0      0x17c S:/UltimateEnvironment/code-mod-example/param-replace/code-mod-framework/lib/libnx_min/nx/lib\libnx_min.a(fs.o)
                0x0000000000009fa0                fsFsCommit
 *fill*         0x000000000000a11c        0x4 
 .text.fsFsGetFreeSpace
                0x000000000000a120      0x1b0 S:/UltimateEnvironment/code-mod-example/param-replace/code-mod-framework/lib/libnx_min/nx/lib\libnx_min.a(fs.o)
                0x000000000000a120                fsFsGetFreeSpace
 .text.fsFsGetTotalSpace
                0x000000000000a2d0      0x1b0 S:/UltimateEnvironment/code-mod-example/param-replace/code-mod-framework/lib/libnx_min/nx/lib\libnx_min.a(fs.o)
                0x000000000000a2d0                fsFsGetTotalSpace
 .text.fsFsCleanDirectoryRecursively
                0x000000000000a480      0x140 S:/UltimateEnvironment/code-mod-example/param-replace/code-mod-framework/lib/libnx_min/nx/lib\libnx_min.a(fs.o)
                0x000000000000a480                fsFsCleanDirectoryRecursively
 .text.fsFsGetFileTimeStampRaw
                0x000000000000a5c0      0x194 S:/UltimateEnvironment/code-mod-example/param-replace/code-mod-framework/lib/libnx_min/nx/lib\libnx_min.a(fs.o)
                0x000000000000a5c0                fsFsGetFileTimeStampRaw
 *fill*         0x000000000000a754        0xc 
 .text.fsFsQueryEntry
                0x000000000000a760       0x60 S:/UltimateEnvironment/code-mod-example/param-replace/code-mod-framework/lib/libnx_min/nx/lib\libnx_min.a(fs.o)
                0x000000000000a760                fsFsQueryEntry
 .text.fsFsSetArchiveBit
                0x000000000000a7c0       0x1c S:/UltimateEnvironment/code-mod-example/param-replace/code-mod-framework/lib/libnx_min/nx/lib\libnx_min.a(fs.o)
                0x000000000000a7c0                fsFsSetArchiveBit
 *fill*         0x000000000000a7dc        0x4 
 .text.fsFsClose
                0x000000000000a7e0       0x6c S:/UltimateEnvironment/code-mod-example/param-replace/code-mod-framework/lib/libnx_min/nx/lib\libnx_min.a(fs.o)
                0x000000000000a7e0                fsFsClose
 *fill*         0x000000000000a84c        0x4 
 .text.fsFileRead
                0x000000000000a850      0x1f8 S:/UltimateEnvironment/code-mod-example/param-replace/code-mod-framework/lib/libnx_min/nx/lib\libnx_min.a(fs.o)
                0x000000000000a850                fsFileRead
 *fill*         0x000000000000aa48        0x8 
 .text.fsFileWrite
                0x000000000000aa50      0x1cc S:/UltimateEnvironment/code-mod-example/param-replace/code-mod-framework/lib/libnx_min/nx/lib\libnx_min.a(fs.o)
                0x000000000000aa50                fsFileWrite
 *fill*         0x000000000000ac1c        0x4 
 .text.fsFileFlush
                0x000000000000ac20      0x17c S:/UltimateEnvironment/code-mod-example/param-replace/code-mod-framework/lib/libnx_min/nx/lib\libnx_min.a(fs.o)
                0x000000000000ac20                fsFileFlush
 *fill*         0x000000000000ad9c        0x4 
 .text.fsFileSetSize
                0x000000000000ada0      0x18c S:/UltimateEnvironment/code-mod-example/param-replace/code-mod-framework/lib/libnx_min/nx/lib\libnx_min.a(fs.o)
                0x000000000000ada0                fsFileSetSize
 *fill*         0x000000000000af2c        0x4 
 .text.fsFileGetSize
                0x000000000000af30      0x194 S:/UltimateEnvironment/code-mod-example/param-replace/code-mod-framework/lib/libnx_min/nx/lib\libnx_min.a(fs.o)
                0x000000000000af30                fsFileGetSize
 *fill*         0x000000000000b0c4        0xc 
 .text.fsFileOperateRange
                0x000000000000b0d0      0x180 S:/UltimateEnvironment/code-mod-example/param-replace/code-mod-framework/lib/libnx_min/nx/lib\libnx_min.a(fs.o)
                0x000000000000b0d0                fsFileOperateRange
 .text.fsFileClose
                0x000000000000b250       0x6c S:/UltimateEnvironment/code-mod-example/param-replace/code-mod-framework/lib/libnx_min/nx/lib\libnx_min.a(fs.o)
                0x000000000000b250                fsFileClose
 *fill*         0x000000000000b2bc        0x4 
 .text.fsDirClose
                0x000000000000b2c0       0x6c S:/UltimateEnvironment/code-mod-example/param-replace/code-mod-framework/lib/libnx_min/nx/lib\libnx_min.a(fs.o)
                0x000000000000b2c0                fsDirClose
 *fill*         0x000000000000b32c        0x4 
 .text.fsDirRead
                0x000000000000b330      0x1ec S:/UltimateEnvironment/code-mod-example/param-replace/code-mod-framework/lib/libnx_min/nx/lib\libnx_min.a(fs.o)
                0x000000000000b330                fsDirRead
 *fill*         0x000000000000b51c        0x4 
 .text.fsDirGetEntryCount
                0x000000000000b520      0x198 S:/UltimateEnvironment/code-mod-example/param-replace/code-mod-framework/lib/libnx_min/nx/lib\libnx_min.a(fs.o)
                0x000000000000b520                fsDirGetEntryCount
 *fill*         0x000000000000b6b8        0x8 
 .text.fsStorageRead
                0x000000000000b6c0      0x1d0 S:/UltimateEnvironment/code-mod-example/param-replace/code-mod-framework/lib/libnx_min/nx/lib\libnx_min.a(fs.o)
                0x000000000000b6c0                fsStorageRead
 .text.fsStorageWrite
                0x000000000000b890      0x1d0 S:/UltimateEnvironment/code-mod-example/param-replace/code-mod-framework/lib/libnx_min/nx/lib\libnx_min.a(fs.o)
                0x000000000000b890                fsStorageWrite
 .text.fsStorageFlush
                0x000000000000ba60      0x17c S:/UltimateEnvironment/code-mod-example/param-replace/code-mod-framework/lib/libnx_min/nx/lib\libnx_min.a(fs.o)
                0x000000000000ba60                fsStorageFlush
 *fill*         0x000000000000bbdc        0x4 
 .text.fsStorageSetSize
                0x000000000000bbe0      0x18c S:/UltimateEnvironment/code-mod-example/param-replace/code-mod-framework/lib/libnx_min/nx/lib\libnx_min.a(fs.o)
                0x000000000000bbe0                fsStorageSetSize
 *fill*         0x000000000000bd6c        0x4 
 .text.fsStorageGetSize
                0x000000000000bd70      0x194 S:/UltimateEnvironment/code-mod-example/param-replace/code-mod-framework/lib/libnx_min/nx/lib\libnx_min.a(fs.o)
                0x000000000000bd70                fsStorageGetSize
 *fill*         0x000000000000bf04        0xc 
 .text.fsStorageOperateRange
                0x000000000000bf10      0x180 S:/UltimateEnvironment/code-mod-example/param-replace/code-mod-framework/lib/libnx_min/nx/lib\libnx_min.a(fs.o)
                0x000000000000bf10                fsStorageOperateRange
 .text.fsStorageClose
                0x000000000000c090       0x6c S:/UltimateEnvironment/code-mod-example/param-replace/code-mod-framework/lib/libnx_min/nx/lib\libnx_min.a(fs.o)
                0x000000000000c090                fsStorageClose
 *fill*         0x000000000000c0fc        0x4 
 .text.fsSaveDataIteratorRead
                0x000000000000c100      0x1d0 S:/UltimateEnvironment/code-mod-example/param-replace/code-mod-framework/lib/libnx_min/nx/lib\libnx_min.a(fs.o)
                0x000000000000c100                fsSaveDataIteratorRead
 .text.fsSaveDataIteratorClose
                0x000000000000c2d0       0x6c S:/UltimateEnvironment/code-mod-example/param-replace/code-mod-framework/lib/libnx_min/nx/lib\libnx_min.a(fs.o)
                0x000000000000c2d0                fsSaveDataIteratorClose
 *fill*         0x000000000000c33c        0x4 
 .text.fsEventNotifierGetEventHandle
                0x000000000000c340      0x188 S:/UltimateEnvironment/code-mod-example/param-replace/code-mod-framework/lib/libnx_min/nx/lib\libnx_min.a(fs.o)
                0x000000000000c340                fsEventNotifierGetEventHandle
 *fill*         0x000000000000c4c8        0x8 
 .text.fsEventNotifierClose
                0x000000000000c4d0       0x6c S:/UltimateEnvironment/code-mod-example/param-replace/code-mod-framework/lib/libnx_min/nx/lib\libnx_min.a(fs.o)
                0x000000000000c4d0                fsEventNotifierClose
 *fill*         0x000000000000c53c        0x4 
 .text.fsDeviceOperatorIsSdCardInserted
                0x000000000000c540        0xc S:/UltimateEnvironment/code-mod-example/param-replace/code-mod-framework/lib/libnx_min/nx/lib\libnx_min.a(fs.o)
                0x000000000000c540                fsDeviceOperatorIsSdCardInserted
 *fill*         0x000000000000c54c        0x4 
 .text.fsDeviceOperatorIsGameCardInserted
                0x000000000000c550        0xc S:/UltimateEnvironment/code-mod-example/param-replace/code-mod-framework/lib/libnx_min/nx/lib\libnx_min.a(fs.o)
                0x000000000000c550                fsDeviceOperatorIsGameCardInserted
 *fill*         0x000000000000c55c        0x4 
 .text.fsDeviceOperatorGetGameCardHandle
                0x000000000000c560      0x190 S:/UltimateEnvironment/code-mod-example/param-replace/code-mod-framework/lib/libnx_min/nx/lib\libnx_min.a(fs.o)
                0x000000000000c560                fsDeviceOperatorGetGameCardHandle
 .text.fsDeviceOperatorGetGameCardAttribute
                0x000000000000c6f0      0x18c S:/UltimateEnvironment/code-mod-example/param-replace/code-mod-framework/lib/libnx_min/nx/lib\libnx_min.a(fs.o)
                0x000000000000c6f0                fsDeviceOperatorGetGameCardAttribute
 *fill*         0x000000000000c87c        0x4 
 .text.fsDeviceOperatorClose
                0x000000000000c880       0x6c S:/UltimateEnvironment/code-mod-example/param-replace/code-mod-framework/lib/libnx_min/nx/lib\libnx_min.a(fs.o)
                0x000000000000c880                fsDeviceOperatorClose
 *fill*         0x000000000000c8ec        0x4 
 .text.ipcCloseObjectById
                0x000000000000c8f0       0x34 S:/UltimateEnvironment/code-mod-example/param-replace/code-mod-framework/lib/libnx_min/nx/lib\libnx_min.a(set.o)
 *fill*         0x000000000000c924        0xc 
 .text._setMakeLanguageCode
                0x000000000000c930       0xf4 S:/UltimateEnvironment/code-mod-example/param-replace/code-mod-framework/lib/libnx_min/nx/lib\libnx_min.a(set.o)
 *fill*         0x000000000000ca24        0xc 
 .text._setsysGetFirmwareVersionImpl
                0x000000000000ca30      0x1d4 S:/UltimateEnvironment/code-mod-example/param-replace/code-mod-framework/lib/libnx_min/nx/lib\libnx_min.a(set.o)
 *fill*         0x000000000000cc04        0xc 
 .text.setInitialize
                0x000000000000cc10       0x44 S:/UltimateEnvironment/code-mod-example/param-replace/code-mod-framework/lib/libnx_min/nx/lib\libnx_min.a(set.o)
                0x000000000000cc10                setInitialize
 *fill*         0x000000000000cc54        0xc 
 .text.setExit  0x000000000000cc60       0x9c S:/UltimateEnvironment/code-mod-example/param-replace/code-mod-framework/lib/libnx_min/nx/lib\libnx_min.a(set.o)
                0x000000000000cc60                setExit
 *fill*         0x000000000000ccfc        0x4 
 .text.setsysInitialize
                0x000000000000cd00       0x3c S:/UltimateEnvironment/code-mod-example/param-replace/code-mod-framework/lib/libnx_min/nx/lib\libnx_min.a(set.o)
                0x000000000000cd00                setsysInitialize
 *fill*         0x000000000000cd3c        0x4 
 .text.setsysExit
                0x000000000000cd40       0x9c S:/UltimateEnvironment/code-mod-example/param-replace/code-mod-framework/lib/libnx_min/nx/lib\libnx_min.a(set.o)
                0x000000000000cd40                setsysExit
 *fill*         0x000000000000cddc        0x4 
 .text.setGetLanguageCode
                0x000000000000cde0       0xec S:/UltimateEnvironment/code-mod-example/param-replace/code-mod-framework/lib/libnx_min/nx/lib\libnx_min.a(set.o)
                0x000000000000cde0                setGetLanguageCode
 *fill*         0x000000000000cecc        0x4 
 .text.setGetSystemLanguage
                0x000000000000ced0        0x4 S:/UltimateEnvironment/code-mod-example/param-replace/code-mod-framework/lib/libnx_min/nx/lib\libnx_min.a(set.o)
                0x000000000000ced0                setGetSystemLanguage
 *fill*         0x000000000000ced4        0xc 
 .text.setGetAvailableLanguageCodeCount
                0x000000000000cee0      0x10c S:/UltimateEnvironment/code-mod-example/param-replace/code-mod-framework/lib/libnx_min/nx/lib\libnx_min.a(set.o)
                0x000000000000cee0                setGetAvailableLanguageCodeCount
 *fill*         0x000000000000cfec        0x4 
 .text.setGetAvailableLanguageCodes
                0x000000000000cff0      0x1b4 S:/UltimateEnvironment/code-mod-example/param-replace/code-mod-framework/lib/libnx_min/nx/lib\libnx_min.a(set.o)
                0x000000000000cff0                setGetAvailableLanguageCodes
 *fill*         0x000000000000d1a4        0xc 
 .text.setInitializeLanguageCodesCache
                0x000000000000d1b0       0x70 S:/UltimateEnvironment/code-mod-example/param-replace/code-mod-framework/lib/libnx_min/nx/lib\libnx_min.a(set.o)
 .text.setMakeLanguage
                0x000000000000d220       0x8c S:/UltimateEnvironment/code-mod-example/param-replace/code-mod-framework/lib/libnx_min/nx/lib\libnx_min.a(set.o)
                0x000000000000d220                setMakeLanguage
 *fill*         0x000000000000d2ac        0x4 
 .text.setMakeLanguageCode
                0x000000000000d2b0       0x80 S:/UltimateEnvironment/code-mod-example/param-replace/code-mod-framework/lib/libnx_min/nx/lib\libnx_min.a(set.o)
                0x000000000000d2b0                setMakeLanguageCode
 .text.setGetRegionCode
                0x000000000000d330       0xf0 S:/UltimateEnvironment/code-mod-example/param-replace/code-mod-framework/lib/libnx_min/nx/lib\libnx_min.a(set.o)
                0x000000000000d330                setGetRegionCode
 .text.setsysGetColorSetId
                0x000000000000d420       0xe4 S:/UltimateEnvironment/code-mod-example/param-replace/code-mod-framework/lib/libnx_min/nx/lib\libnx_min.a(set.o)
                0x000000000000d420                setsysGetColorSetId
 *fill*         0x000000000000d504        0xc 
 .text.setsysSetColorSetId
                0x000000000000d510       0xd0 S:/UltimateEnvironment/code-mod-example/param-replace/code-mod-framework/lib/libnx_min/nx/lib\libnx_min.a(set.o)
                0x000000000000d510                setsysSetColorSetId
 .text.setsysGetSettingsItemValue
                0x000000000000d5e0      0x19c S:/UltimateEnvironment/code-mod-example/param-replace/code-mod-framework/lib/libnx_min/nx/lib\libnx_min.a(set.o)
                0x000000000000d5e0                setsysGetSettingsItemValue
 *fill*         0x000000000000d77c        0x4 
 .text.setsysGetSettingsItemValueSize
                0x000000000000d780      0x198 S:/UltimateEnvironment/code-mod-example/param-replace/code-mod-framework/lib/libnx_min/nx/lib\libnx_min.a(set.o)
                0x000000000000d780                setsysGetSettingsItemValueSize
 *fill*         0x000000000000d918        0x8 
 .text.setsysGetSerialNumber
                0x000000000000d920      0x108 S:/UltimateEnvironment/code-mod-example/param-replace/code-mod-framework/lib/libnx_min/nx/lib\libnx_min.a(set.o)
                0x000000000000d920                setsysGetSerialNumber
 *fill*         0x000000000000da28        0x8 
 .text.setsysGetFlag
                0x000000000000da30       0xec S:/UltimateEnvironment/code-mod-example/param-replace/code-mod-framework/lib/libnx_min/nx/lib\libnx_min.a(set.o)
                0x000000000000da30                setsysGetFlag
 *fill*         0x000000000000db1c        0x4 
 .text.setsysSetFlag
                0x000000000000db20       0xd0 S:/UltimateEnvironment/code-mod-example/param-replace/code-mod-framework/lib/libnx_min/nx/lib\libnx_min.a(set.o)
                0x000000000000db20                setsysSetFlag
 .text.setsysGetFirmwareVersion
                0x000000000000dbf0       0x44 S:/UltimateEnvironment/code-mod-example/param-replace/code-mod-framework/lib/libnx_min/nx/lib\libnx_min.a(set.o)
                0x000000000000dbf0                setsysGetFirmwareVersion
 *fill*         0x000000000000dc34        0xc 
 .text.setsysBindFatalDirtyFlagEvent
                0x000000000000dc40      0x13c S:/UltimateEnvironment/code-mod-example/param-replace/code-mod-framework/lib/libnx_min/nx/lib\libnx_min.a(set.o)
                0x000000000000dc40                setsysBindFatalDirtyFlagEvent
 *fill*         0x000000000000dd7c        0x4 
 .text.setsysGetFatalDirtyFlags
                0x000000000000dd80       0xf8 S:/UltimateEnvironment/code-mod-example/param-replace/code-mod-framework/lib/libnx_min/nx/lib\libnx_min.a(set.o)
                0x000000000000dd80                setsysGetFatalDirtyFlags
 *fill*         0x000000000000de78        0x8 
 .text.setsysGetDeviceNickname
                0x000000000000de80       0xf8 S:/UltimateEnvironment/code-mod-example/param-replace/code-mod-framework/lib/libnx_min/nx/lib\libnx_min.a(set.o)
                0x000000000000de80                setsysGetDeviceNickname
 *fill*         0x000000000000df78        0x8 
 .text.setsysSetDeviceNickname
                0x000000000000df80      0x134 S:/UltimateEnvironment/code-mod-example/param-replace/code-mod-framework/lib/libnx_min/nx/lib\libnx_min.a(set.o)
                0x000000000000df80                setsysSetDeviceNickname
 *fill*         0x000000000000e0b4        0xc 
 .text._fatalImpl
                0x000000000000e0c0      0x140 S:/UltimateEnvironment/code-mod-example/param-replace/code-mod-framework/lib/libnx_min/nx/lib\libnx_min.a(fatal.o)
 .text.fatalWithType
                0x000000000000e200       0x14 S:/UltimateEnvironment/code-mod-example/param-replace/code-mod-framework/lib/libnx_min/nx/lib\libnx_min.a(fatal.o)
                0x000000000000e200                fatalWithType
 *fill*         0x000000000000e214        0xc 
 .text.fatalSimple
                0x000000000000e220       0x14 S:/UltimateEnvironment/code-mod-example/param-replace/code-mod-framework/lib/libnx_min/nx/lib\libnx_min.a(fatal.o)
                0x000000000000e220                fatalSimple
 *fill*         0x000000000000e234        0xc 
 .text.fatalWithContext
                0x000000000000e240       0x14 S:/UltimateEnvironment/code-mod-example/param-replace/code-mod-framework/lib/libnx_min/nx/lib\libnx_min.a(fatal.o)
                0x000000000000e240                fatalWithContext
 *fill*         0x000000000000e254        0xc 
 .text.ipcCloseObjectById
                0x000000000000e260       0x34 S:/UltimateEnvironment/code-mod-example/param-replace/code-mod-framework/lib/libnx_min/nx/lib\libnx_min.a(sm.o)
 *fill*         0x000000000000e294        0xc 
 .text.smAddOverrideHandle
                0x000000000000e2a0       0x44 S:/UltimateEnvironment/code-mod-example/param-replace/code-mod-framework/lib/libnx_min/nx/lib\libnx_min.a(sm.o)
                0x000000000000e2a0                smAddOverrideHandle
 *fill*         0x000000000000e2e4        0xc 
 .text.smGetServiceOverride
                0x000000000000e2f0       0x60 S:/UltimateEnvironment/code-mod-example/param-replace/code-mod-framework/lib/libnx_min/nx/lib\libnx_min.a(sm.o)
                0x000000000000e2f0                smGetServiceOverride
 .text.smHasInitialized
                0x000000000000e350       0x14 S:/UltimateEnvironment/code-mod-example/param-replace/code-mod-framework/lib/libnx_min/nx/lib\libnx_min.a(sm.o)
                0x000000000000e350                smHasInitialized
 *fill*         0x000000000000e364        0xc 
 .text.smExit   0x000000000000e370       0x9c S:/UltimateEnvironment/code-mod-example/param-replace/code-mod-framework/lib/libnx_min/nx/lib\libnx_min.a(sm.o)
                0x000000000000e370                smExit
 *fill*         0x000000000000e40c        0x4 
 .text.smGetServiceSession
                0x000000000000e410        0xc S:/UltimateEnvironment/code-mod-example/param-replace/code-mod-framework/lib/libnx_min/nx/lib\libnx_min.a(sm.o)
                0x000000000000e410                smGetServiceSession
 *fill*         0x000000000000e41c        0x4 
 .text.smEncodeName
                0x000000000000e420       0x38 S:/UltimateEnvironment/code-mod-example/param-replace/code-mod-framework/lib/libnx_min/nx/lib\libnx_min.a(sm.o)
                0x000000000000e420                smEncodeName
 *fill*         0x000000000000e458        0x8 
 .text.smGetServiceOriginal
                0x000000000000e460      0x22c S:/UltimateEnvironment/code-mod-example/param-replace/code-mod-framework/lib/libnx_min/nx/lib\libnx_min.a(sm.o)
                0x000000000000e460                smGetServiceOriginal
 *fill*         0x000000000000e68c        0x4 
 .text.smInitialize
                0x000000000000e690      0x27c S:/UltimateEnvironment/code-mod-example/param-replace/code-mod-framework/lib/libnx_min/nx/lib\libnx_min.a(sm.o)
                0x000000000000e690                smInitialize
 *fill*         0x000000000000e90c        0x4 
 .text.smGetService
                0x000000000000e910       0x74 S:/UltimateEnvironment/code-mod-example/param-replace/code-mod-framework/lib/libnx_min/nx/lib\libnx_min.a(sm.o)
                0x000000000000e910                smGetService
 *fill*         0x000000000000e984        0xc 
 .text.smRegisterService
                0x000000000000e990      0x25c S:/UltimateEnvironment/code-mod-example/param-replace/code-mod-framework/lib/libnx_min/nx/lib\libnx_min.a(sm.o)
                0x000000000000e990                smRegisterService
 *fill*         0x000000000000ebec        0x4 
 .text.smUnregisterService
                0x000000000000ebf0      0x1ac S:/UltimateEnvironment/code-mod-example/param-replace/code-mod-framework/lib/libnx_min/nx/lib\libnx_min.a(sm.o)
                0x000000000000ebf0                smUnregisterService
 *fill*         0x000000000000ed9c        0x4 
 .text._hidGetDeviceHandles.part.7
                0x000000000000eda0       0xec S:/UltimateEnvironment/code-mod-example/param-replace/code-mod-framework/lib/libnx_min/nx/lib\libnx_min.a(hid.o)
 *fill*         0x000000000000ee8c        0x4 
 .text.ipcCloseObjectById
                0x000000000000ee90       0x34 S:/UltimateEnvironment/code-mod-example/param-replace/code-mod-framework/lib/libnx_min/nx/lib\libnx_min.a(hid.o)
 *fill*         0x000000000000eec4        0xc 
 .text._hidActivateVibrationDevice
                0x000000000000eed0       0xc8 S:/UltimateEnvironment/code-mod-example/param-replace/code-mod-framework/lib/libnx_min/nx/lib\libnx_min.a(hid.o)
 *fill*         0x000000000000ef98        0x8 
 .text._hidGetSharedMemoryHandle.constprop.17
                0x000000000000efa0      0x124 S:/UltimateEnvironment/code-mod-example/param-replace/code-mod-framework/lib/libnx_min/nx/lib\libnx_min.a(hid.o)
 *fill*         0x000000000000f0c4        0xc 
 .text._hidCreateActiveVibrationDeviceList
                0x000000000000f0d0      0x134 S:/UltimateEnvironment/code-mod-example/param-replace/code-mod-framework/lib/libnx_min/nx/lib\libnx_min.a(hid.o)
 *fill*         0x000000000000f204        0xc 
 .text._hidCmdWithNoInput
                0x000000000000f210      0x100 S:/UltimateEnvironment/code-mod-example/param-replace/code-mod-framework/lib/libnx_min/nx/lib\libnx_min.a(hid.o)
 .text._hidCreateAppletResource.constprop.16
                0x000000000000f310      0x134 S:/UltimateEnvironment/code-mod-example/param-replace/code-mod-framework/lib/libnx_min/nx/lib\libnx_min.a(hid.o)
 *fill*         0x000000000000f444        0xc 
 .text._hidCmdWithInputU32
                0x000000000000f450      0x10c S:/UltimateEnvironment/code-mod-example/param-replace/code-mod-framework/lib/libnx_min/nx/lib\libnx_min.a(hid.o)
 *fill*         0x000000000000f55c        0x4 
 .text._hidCmdWithInputU64.constprop.18
                0x000000000000f560      0x108 S:/UltimateEnvironment/code-mod-example/param-replace/code-mod-framework/lib/libnx_min/nx/lib\libnx_min.a(hid.o)
 *fill*         0x000000000000f668        0x8 
 .text._hidInitializeSevenSixAxisSensor.isra.11.constprop.19
                0x000000000000f670      0x1f8 S:/UltimateEnvironment/code-mod-example/param-replace/code-mod-framework/lib/libnx_min/nx/lib\libnx_min.a(hid.o)
 *fill*         0x000000000000f868        0x8 
 .text.hidReset
                0x000000000000f870      0x1f8 S:/UltimateEnvironment/code-mod-example/param-replace/code-mod-framework/lib/libnx_min/nx/lib\libnx_min.a(hid.o)
                0x000000000000f870                hidReset
 *fill*         0x000000000000fa68        0x8 
 .text.hidGetSessionService
                0x000000000000fa70        0xc S:/UltimateEnvironment/code-mod-example/param-replace/code-mod-framework/lib/libnx_min/nx/lib\libnx_min.a(hid.o)
                0x000000000000fa70                hidGetSessionService
 *fill*         0x000000000000fa7c        0x4 
 .text.hidGetSharedmemAddr
                0x000000000000fa80        0xc S:/UltimateEnvironment/code-mod-example/param-replace/code-mod-framework/lib/libnx_min/nx/lib\libnx_min.a(hid.o)
                0x000000000000fa80                hidGetSharedmemAddr
 *fill*         0x000000000000fa8c        0x4 
 .text.hidSetControllerLayout
                0x000000000000fa90       0x54 S:/UltimateEnvironment/code-mod-example/param-replace/code-mod-framework/lib/libnx_min/nx/lib\libnx_min.a(hid.o)
                0x000000000000fa90                hidSetControllerLayout
 *fill*         0x000000000000fae4        0xc 
 .text.hidGetControllerLayout
                0x000000000000faf0       0x50 S:/UltimateEnvironment/code-mod-example/param-replace/code-mod-framework/lib/libnx_min/nx/lib\libnx_min.a(hid.o)
                0x000000000000faf0                hidGetControllerLayout
 .text.hidGetControllerType
                0x000000000000fb40       0x78 S:/UltimateEnvironment/code-mod-example/param-replace/code-mod-framework/lib/libnx_min/nx/lib\libnx_min.a(hid.o)
                0x000000000000fb40                hidGetControllerType
 *fill*         0x000000000000fbb8        0x8 
 .text.hidGetControllerColors
                0x000000000000fbc0       0xd4 S:/UltimateEnvironment/code-mod-example/param-replace/code-mod-framework/lib/libnx_min/nx/lib\libnx_min.a(hid.o)
                0x000000000000fbc0                hidGetControllerColors
 *fill*         0x000000000000fc94        0xc 
 .text.hidIsControllerConnected
                0x000000000000fca0       0x7c S:/UltimateEnvironment/code-mod-example/param-replace/code-mod-framework/lib/libnx_min/nx/lib\libnx_min.a(hid.o)
                0x000000000000fca0                hidIsControllerConnected
 *fill*         0x000000000000fd1c        0x4 
 .text.hidGetControllerDeviceType
                0x000000000000fd20       0x70 S:/UltimateEnvironment/code-mod-example/param-replace/code-mod-framework/lib/libnx_min/nx/lib\libnx_min.a(hid.o)
                0x000000000000fd20                hidGetControllerDeviceType
 .text.hidGetControllerFlags
                0x000000000000fd90       0x90 S:/UltimateEnvironment/code-mod-example/param-replace/code-mod-framework/lib/libnx_min/nx/lib\libnx_min.a(hid.o)
                0x000000000000fd90                hidGetControllerFlags
 .text.hidGetControllerPowerInfo
                0x000000000000fe20      0x114 S:/UltimateEnvironment/code-mod-example/param-replace/code-mod-framework/lib/libnx_min/nx/lib\libnx_min.a(hid.o)
                0x000000000000fe20                hidGetControllerPowerInfo
 *fill*         0x000000000000ff34        0xc 
 .text.hidKeysHeld
                0x000000000000ff40       0x6c S:/UltimateEnvironment/code-mod-example/param-replace/code-mod-framework/lib/libnx_min/nx/lib\libnx_min.a(hid.o)
                0x000000000000ff40                hidKeysHeld
 *fill*         0x000000000000ffac        0x4 
 .text.hidKeysDown
                0x000000000000ffb0       0x6c S:/UltimateEnvironment/code-mod-example/param-replace/code-mod-framework/lib/libnx_min/nx/lib\libnx_min.a(hid.o)
                0x000000000000ffb0                hidKeysDown
 *fill*         0x000000000001001c        0x4 
 .text.hidKeysUp
                0x0000000000010020       0x6c S:/UltimateEnvironment/code-mod-example/param-replace/code-mod-framework/lib/libnx_min/nx/lib\libnx_min.a(hid.o)
                0x0000000000010020                hidKeysUp
 *fill*         0x000000000001008c        0x4 
 .text.hidMouseButtonsHeld
                0x0000000000010090       0x3c S:/UltimateEnvironment/code-mod-example/param-replace/code-mod-framework/lib/libnx_min/nx/lib\libnx_min.a(hid.o)
                0x0000000000010090                hidMouseButtonsHeld
 *fill*         0x00000000000100cc        0x4 
 .text.hidMouseButtonsDown
                0x00000000000100d0       0x3c S:/UltimateEnvironment/code-mod-example/param-replace/code-mod-framework/lib/libnx_min/nx/lib\libnx_min.a(hid.o)
                0x00000000000100d0                hidMouseButtonsDown
 *fill*         0x000000000001010c        0x4 
 .text.hidMouseButtonsUp
                0x0000000000010110       0x3c S:/UltimateEnvironment/code-mod-example/param-replace/code-mod-framework/lib/libnx_min/nx/lib\libnx_min.a(hid.o)
                0x0000000000010110                hidMouseButtonsUp
 *fill*         0x000000000001014c        0x4 
 .text.hidMouseRead
                0x0000000000010150       0x48 S:/UltimateEnvironment/code-mod-example/param-replace/code-mod-framework/lib/libnx_min/nx/lib\libnx_min.a(hid.o)
                0x0000000000010150                hidMouseRead
 *fill*         0x0000000000010198        0x8 
 .text.hidMouseMultiRead
                0x00000000000101a0      0x150 S:/UltimateEnvironment/code-mod-example/param-replace/code-mod-framework/lib/libnx_min/nx/lib\libnx_min.a(hid.o)
                0x00000000000101a0                hidMouseMultiRead
 .text.hidKeyboardModifierHeld
                0x00000000000102f0       0x48 S:/UltimateEnvironment/code-mod-example/param-replace/code-mod-framework/lib/libnx_min/nx/lib\libnx_min.a(hid.o)
                0x00000000000102f0                hidKeyboardModifierHeld
 *fill*         0x0000000000010338        0x8 
 .text.hidKeyboardModifierDown
                0x0000000000010340       0x48 S:/UltimateEnvironment/code-mod-example/param-replace/code-mod-framework/lib/libnx_min/nx/lib\libnx_min.a(hid.o)
                0x0000000000010340                hidKeyboardModifierDown
 *fill*         0x0000000000010388        0x8 
 .text.hidKeyboardModifierUp
                0x0000000000010390       0x48 S:/UltimateEnvironment/code-mod-example/param-replace/code-mod-framework/lib/libnx_min/nx/lib\libnx_min.a(hid.o)
                0x0000000000010390                hidKeyboardModifierUp
 *fill*         0x00000000000103d8        0x8 
 .text.hidKeyboardHeld
                0x00000000000103e0       0x60 S:/UltimateEnvironment/code-mod-example/param-replace/code-mod-framework/lib/libnx_min/nx/lib\libnx_min.a(hid.o)
                0x00000000000103e0                hidKeyboardHeld
 .text.hidKeyboardDown
                0x0000000000010440       0x60 S:/UltimateEnvironment/code-mod-example/param-replace/code-mod-framework/lib/libnx_min/nx/lib\libnx_min.a(hid.o)
                0x0000000000010440                hidKeyboardDown
 .text.hidKeyboardUp
                0x00000000000104a0       0x60 S:/UltimateEnvironment/code-mod-example/param-replace/code-mod-framework/lib/libnx_min/nx/lib\libnx_min.a(hid.o)
                0x00000000000104a0                hidKeyboardUp
 .text.hidTouchCount
                0x0000000000010500        0xc S:/UltimateEnvironment/code-mod-example/param-replace/code-mod-framework/lib/libnx_min/nx/lib\libnx_min.a(hid.o)
                0x0000000000010500                hidTouchCount
 *fill*         0x000000000001050c        0x4 
 .text.hidScanInput
                0x0000000000010510      0x598 S:/UltimateEnvironment/code-mod-example/param-replace/code-mod-framework/lib/libnx_min/nx/lib\libnx_min.a(hid.o)
                0x0000000000010510                hidScanInput
 *fill*         0x0000000000010aa8        0x8 
 .text.hidTouchRead
                0x0000000000010ab0       0x54 S:/UltimateEnvironment/code-mod-example/param-replace/code-mod-framework/lib/libnx_min/nx/lib\libnx_min.a(hid.o)
                0x0000000000010ab0                hidTouchRead
 *fill*         0x0000000000010b04        0xc 
 .text.hidJoystickRead
                0x0000000000010b10       0xac S:/UltimateEnvironment/code-mod-example/param-replace/code-mod-framework/lib/libnx_min/nx/lib\libnx_min.a(hid.o)
                0x0000000000010b10                hidJoystickRead
 *fill*         0x0000000000010bbc        0x4 
 .text.hidSixAxisSensorValuesRead
                0x0000000000010bc0      0x214 S:/UltimateEnvironment/code-mod-example/param-replace/code-mod-framework/lib/libnx_min/nx/lib\libnx_min.a(hid.o)
                0x0000000000010bc0                hidSixAxisSensorValuesRead
 *fill*         0x0000000000010dd4        0xc 
 .text.hidGetHandheldMode
                0x0000000000010de0       0x14 S:/UltimateEnvironment/code-mod-example/param-replace/code-mod-framework/lib/libnx_min/nx/lib\libnx_min.a(hid.o)
                0x0000000000010de0                hidGetHandheldMode
 *fill*         0x0000000000010df4        0xc 
 .text.hidSetSupportedNpadIdType
                0x0000000000010e00      0x198 S:/UltimateEnvironment/code-mod-example/param-replace/code-mod-framework/lib/libnx_min/nx/lib\libnx_min.a(hid.o)
                0x0000000000010e00                hidSetSupportedNpadIdType
 *fill*         0x0000000000010f98        0x8 
 .text.hidSetSupportedNpadStyleSet
                0x0000000000010fa0        0xc S:/UltimateEnvironment/code-mod-example/param-replace/code-mod-framework/lib/libnx_min/nx/lib\libnx_min.a(hid.o)
                0x0000000000010fa0                hidSetSupportedNpadStyleSet
 *fill*         0x0000000000010fac        0x4 
 .text.hidAcquireNpadStyleSetUpdateEventHandle
                0x0000000000010fb0      0x194 S:/UltimateEnvironment/code-mod-example/param-replace/code-mod-framework/lib/libnx_min/nx/lib\libnx_min.a(hid.o)
                0x0000000000010fb0                hidAcquireNpadStyleSetUpdateEventHandle
 *fill*         0x0000000000011144        0xc 
 .text.hidSetNpadJoyHoldType
                0x0000000000011150        0x8 S:/UltimateEnvironment/code-mod-example/param-replace/code-mod-framework/lib/libnx_min/nx/lib\libnx_min.a(hid.o)
                0x0000000000011150                hidSetNpadJoyHoldType
 *fill*         0x0000000000011158        0x8 
 .text.hidSetNpadJoyAssignmentModeSingleByDefault
                0x0000000000011160        0xc S:/UltimateEnvironment/code-mod-example/param-replace/code-mod-framework/lib/libnx_min/nx/lib\libnx_min.a(hid.o)
                0x0000000000011160                hidSetNpadJoyAssignmentModeSingleByDefault
 *fill*         0x000000000001116c        0x4 
 .text.hidSetNpadJoyAssignmentModeDual
                0x0000000000011170        0xc S:/UltimateEnvironment/code-mod-example/param-replace/code-mod-framework/lib/libnx_min/nx/lib\libnx_min.a(hid.o)
                0x0000000000011170                hidSetNpadJoyAssignmentModeDual
 *fill*         0x000000000001117c        0x4 
 .text.hidMergeSingleJoyAsDualJoy
                0x0000000000011180      0x110 S:/UltimateEnvironment/code-mod-example/param-replace/code-mod-framework/lib/libnx_min/nx/lib\libnx_min.a(hid.o)
                0x0000000000011180                hidMergeSingleJoyAsDualJoy
 .text.hidGetVibrationDeviceInfo
                0x0000000000011290       0xf8 S:/UltimateEnvironment/code-mod-example/param-replace/code-mod-framework/lib/libnx_min/nx/lib\libnx_min.a(hid.o)
                0x0000000000011290                hidGetVibrationDeviceInfo
 *fill*         0x0000000000011388        0x8 
 .text.hidSendVibrationValue
                0x0000000000011390      0x120 S:/UltimateEnvironment/code-mod-example/param-replace/code-mod-framework/lib/libnx_min/nx/lib\libnx_min.a(hid.o)
                0x0000000000011390                hidSendVibrationValue
 .text.hidGetActualVibrationValue
                0x00000000000114b0      0x128 S:/UltimateEnvironment/code-mod-example/param-replace/code-mod-framework/lib/libnx_min/nx/lib\libnx_min.a(hid.o)
                0x00000000000114b0                hidGetActualVibrationValue
 *fill*         0x00000000000115d8        0x8 
 .text.hidPermitVibration
                0x00000000000115e0       0xd0 S:/UltimateEnvironment/code-mod-example/param-replace/code-mod-framework/lib/libnx_min/nx/lib\libnx_min.a(hid.o)
                0x00000000000115e0                hidPermitVibration
 .text.hidIsVibrationPermitted
                0x00000000000116b0       0xf4 S:/UltimateEnvironment/code-mod-example/param-replace/code-mod-framework/lib/libnx_min/nx/lib\libnx_min.a(hid.o)
                0x00000000000116b0                hidIsVibrationPermitted
 *fill*         0x00000000000117a4        0xc 
 .text.hidSendVibrationValues
                0x00000000000117b0      0x144 S:/UltimateEnvironment/code-mod-example/param-replace/code-mod-framework/lib/libnx_min/nx/lib\libnx_min.a(hid.o)
                0x00000000000117b0                hidSendVibrationValues
 *fill*         0x00000000000118f4        0xc 
 .text.hidInitializeVibrationDevices
                0x0000000000011900      0x114 S:/UltimateEnvironment/code-mod-example/param-replace/code-mod-framework/lib/libnx_min/nx/lib\libnx_min.a(hid.o)
                0x0000000000011900                hidInitializeVibrationDevices
 *fill*         0x0000000000011a14        0xc 
 .text.hidGetSixAxisSensorHandles
                0x0000000000011a20       0x2c S:/UltimateEnvironment/code-mod-example/param-replace/code-mod-framework/lib/libnx_min/nx/lib\libnx_min.a(hid.o)
                0x0000000000011a20                hidGetSixAxisSensorHandles
 *fill*         0x0000000000011a4c        0x4 
 .text.hidStartSixAxisSensor
                0x0000000000011a50       0x84 S:/UltimateEnvironment/code-mod-example/param-replace/code-mod-framework/lib/libnx_min/nx/lib\libnx_min.a(hid.o)
                0x0000000000011a50                hidStartSixAxisSensor
 *fill*         0x0000000000011ad4        0xc 
 .text.hidStopSixAxisSensor
                0x0000000000011ae0       0x80 S:/UltimateEnvironment/code-mod-example/param-replace/code-mod-framework/lib/libnx_min/nx/lib\libnx_min.a(hid.o)
                0x0000000000011ae0                hidStopSixAxisSensor
 .text.hidStartSevenSixAxisSensor
                0x0000000000011b60       0x30 S:/UltimateEnvironment/code-mod-example/param-replace/code-mod-framework/lib/libnx_min/nx/lib\libnx_min.a(hid.o)
                0x0000000000011b60                hidStartSevenSixAxisSensor
 .text.hidStopSevenSixAxisSensor
                0x0000000000011b90       0x30 S:/UltimateEnvironment/code-mod-example/param-replace/code-mod-framework/lib/libnx_min/nx/lib\libnx_min.a(hid.o)
                0x0000000000011b90                hidStopSevenSixAxisSensor
 .text.hidFinalizeSevenSixAxisSensor
                0x0000000000011bc0       0x80 S:/UltimateEnvironment/code-mod-example/param-replace/code-mod-framework/lib/libnx_min/nx/lib\libnx_min.a(hid.o)
                0x0000000000011bc0                hidFinalizeSevenSixAxisSensor
 .text.hidExit  0x0000000000011c40      0x134 S:/UltimateEnvironment/code-mod-example/param-replace/code-mod-framework/lib/libnx_min/nx/lib\libnx_min.a(hid.o)
                0x0000000000011c40                hidExit
 *fill*         0x0000000000011d74        0xc 
 .text.hidInitialize
                0x0000000000011d80      0x168 S:/UltimateEnvironment/code-mod-example/param-replace/code-mod-framework/lib/libnx_min/nx/lib\libnx_min.a(hid.o)
                0x0000000000011d80                hidInitialize
 *fill*         0x0000000000011ee8        0x8 
 .text.hidInitializeSevenSixAxisSensor
                0x0000000000011ef0      0x130 S:/UltimateEnvironment/code-mod-example/param-replace/code-mod-framework/lib/libnx_min/nx/lib\libnx_min.a(hid.o)
                0x0000000000011ef0                hidInitializeSevenSixAxisSensor
 .text.hidSetSevenSixAxisSensorFusionStrength
                0x0000000000012020      0x1f8 S:/UltimateEnvironment/code-mod-example/param-replace/code-mod-framework/lib/libnx_min/nx/lib\libnx_min.a(hid.o)
                0x0000000000012020                hidSetSevenSixAxisSensorFusionStrength
 *fill*         0x0000000000012218        0x8 
 .text.hidGetSevenSixAxisSensorFusionStrength
                0x0000000000012220      0x1fc S:/UltimateEnvironment/code-mod-example/param-replace/code-mod-framework/lib/libnx_min/nx/lib\libnx_min.a(hid.o)
                0x0000000000012220                hidGetSevenSixAxisSensorFusionStrength
 *fill*         0x000000000001241c        0x4 
 .text.hidResetSevenSixAxisSensorTimestamp
                0x0000000000012420       0x30 S:/UltimateEnvironment/code-mod-example/param-replace/code-mod-framework/lib/libnx_min/nx/lib\libnx_min.a(hid.o)
                0x0000000000012420                hidResetSevenSixAxisSensorTimestamp
 .text.ipcCloseObjectById
                0x0000000000012450       0x34 S:/UltimateEnvironment/code-mod-example/param-replace/code-mod-framework/lib/libnx_min/nx/lib\libnx_min.a(time.o)
 *fill*         0x0000000000012484        0xc 
 .text._timeGetSession
                0x0000000000012490      0x12c S:/UltimateEnvironment/code-mod-example/param-replace/code-mod-framework/lib/libnx_min/nx/lib\libnx_min.a(time.o)
 *fill*         0x00000000000125bc        0x4 
 .text.timeExit
                0x00000000000125c0      0x1ec S:/UltimateEnvironment/code-mod-example/param-replace/code-mod-framework/lib/libnx_min/nx/lib\libnx_min.a(time.o)
                0x00000000000125c0                timeExit
 *fill*         0x00000000000127ac        0x4 
 .text.timeInitialize
                0x00000000000127b0       0xd8 S:/UltimateEnvironment/code-mod-example/param-replace/code-mod-framework/lib/libnx_min/nx/lib\libnx_min.a(time.o)
                0x00000000000127b0                timeInitialize
 *fill*         0x0000000000012888        0x8 
 .text.timeGetSessionService
                0x0000000000012890        0xc S:/UltimateEnvironment/code-mod-example/param-replace/code-mod-framework/lib/libnx_min/nx/lib\libnx_min.a(time.o)
                0x0000000000012890                timeGetSessionService
 *fill*         0x000000000001289c        0x4 
 .text.timeGetCurrentTime
                0x00000000000128a0      0x124 S:/UltimateEnvironment/code-mod-example/param-replace/code-mod-framework/lib/libnx_min/nx/lib\libnx_min.a(time.o)
                0x00000000000128a0                timeGetCurrentTime
 *fill*         0x00000000000129c4        0xc 
 .text.timeSetCurrentTime
                0x00000000000129d0      0x104 S:/UltimateEnvironment/code-mod-example/param-replace/code-mod-framework/lib/libnx_min/nx/lib\libnx_min.a(time.o)
                0x00000000000129d0                timeSetCurrentTime
 *fill*         0x0000000000012ad4        0xc 
 .text.timeToCalendarTimeWithMyRule
                0x0000000000012ae0      0x118 S:/UltimateEnvironment/code-mod-example/param-replace/code-mod-framework/lib/libnx_min/nx/lib\libnx_min.a(time.o)
                0x0000000000012ae0                timeToCalendarTimeWithMyRule
 *fill*         0x0000000000012bf8        0x8 
 .text.ipcPrepareHeader
                0x0000000000012c00      0x220 S:/UltimateEnvironment/code-mod-example/param-replace/code-mod-framework/lib/libnx_min/nx/lib\libnx_min.a(applet.o)
 .text.ipcParse
                0x0000000000012e20      0x22c S:/UltimateEnvironment/code-mod-example/param-replace/code-mod-framework/lib/libnx_min/nx/lib\libnx_min.a(applet.o)
 *fill*         0x000000000001304c        0x4 
 .text.serviceIpcParse
                0x0000000000013050       0xb0 S:/UltimateEnvironment/code-mod-example/param-replace/code-mod-framework/lib/libnx_min/nx/lib\libnx_min.a(applet.o)
 .text.ipcConvertSessionToDomain
                0x0000000000013100       0x78 S:/UltimateEnvironment/code-mod-example/param-replace/code-mod-framework/lib/libnx_min/nx/lib\libnx_min.a(applet.o)
 *fill*         0x0000000000013178        0x8 
 .text.ipcQueryPointerBufferSize
                0x0000000000013180       0x7c S:/UltimateEnvironment/code-mod-example/param-replace/code-mod-framework/lib/libnx_min/nx/lib\libnx_min.a(applet.o)
 *fill*         0x00000000000131fc        0x4 
 .text.ipcCloneSession.constprop.52
                0x0000000000013200       0x84 S:/UltimateEnvironment/code-mod-example/param-replace/code-mod-framework/lib/libnx_min/nx/lib\libnx_min.a(applet.o)
 *fill*         0x0000000000013284        0xc 
 .text.ipcCloseObjectById
                0x0000000000013290       0x34 S:/UltimateEnvironment/code-mod-example/param-replace/code-mod-framework/lib/libnx_min/nx/lib\libnx_min.a(applet.o)
 *fill*         0x00000000000132c4        0xc 
 .text.serviceClose
                0x00000000000132d0       0x6c S:/UltimateEnvironment/code-mod-example/param-replace/code-mod-framework/lib/libnx_min/nx/lib\libnx_min.a(applet.o)
 *fill*         0x000000000001333c        0x4 
 .text._appletCmdInHandle64
                0x0000000000013340      0x204 S:/UltimateEnvironment/code-mod-example/param-replace/code-mod-framework/lib/libnx_min/nx/lib\libnx_min.a(applet.o)
 *fill*         0x0000000000013544        0xc 
 .text._appletReceiveMessage
                0x0000000000013550      0x19c S:/UltimateEnvironment/code-mod-example/param-replace/code-mod-framework/lib/libnx_min/nx/lib\libnx_min.a(applet.o)
 *fill*         0x00000000000136ec        0x4 
 .text._appletCmdNoIO
                0x00000000000136f0      0x164 S:/UltimateEnvironment/code-mod-example/param-replace/code-mod-framework/lib/libnx_min/nx/lib\libnx_min.a(applet.o)
 *fill*         0x0000000000013854        0xc 
 .text._appletGetOperationMode.constprop.43
                0x0000000000013860      0x18c S:/UltimateEnvironment/code-mod-example/param-replace/code-mod-framework/lib/libnx_min/nx/lib\libnx_min.a(applet.o)
 *fill*         0x00000000000139ec        0x4 
 .text._appletGetCurrentFocusState.constprop.45
                0x00000000000139f0      0x18c S:/UltimateEnvironment/code-mod-example/param-replace/code-mod-framework/lib/libnx_min/nx/lib\libnx_min.a(applet.o)
 *fill*         0x0000000000013b7c        0x4 
 .text._appletGetPerformanceMode.constprop.44
                0x0000000000013b80      0x18c S:/UltimateEnvironment/code-mod-example/param-replace/code-mod-framework/lib/libnx_min/nx/lib\libnx_min.a(applet.o)
 *fill*         0x0000000000013d0c        0x4 
 .text._appletCmdNoInOutBool
                0x0000000000013d10      0x184 S:/UltimateEnvironment/code-mod-example/param-replace/code-mod-framework/lib/libnx_min/nx/lib\libnx_min.a(applet.o)
 *fill*         0x0000000000013e94        0xc 
 .text._appletGetSession
                0x0000000000013ea0      0x1d8 S:/UltimateEnvironment/code-mod-example/param-replace/code-mod-framework/lib/libnx_min/nx/lib\libnx_min.a(applet.o)
 *fill*         0x0000000000014078        0x8 
 .text._appletCmdNoInOut64
                0x0000000000014080      0x17c S:/UltimateEnvironment/code-mod-example/param-replace/code-mod-framework/lib/libnx_min/nx/lib\libnx_min.a(applet.o)
 *fill*         0x00000000000141fc        0x4 
 .text._appletSetOperationModeChangedNotification.constprop.46
                0x0000000000014200      0x164 S:/UltimateEnvironment/code-mod-example/param-replace/code-mod-framework/lib/libnx_min/nx/lib\libnx_min.a(applet.o)
 *fill*         0x0000000000014364        0xc 
 .text._appletCmdInU8
                0x0000000000014370      0x17c S:/UltimateEnvironment/code-mod-example/param-replace/code-mod-framework/lib/libnx_min/nx/lib\libnx_min.a(applet.o)
 *fill*         0x00000000000144ec        0x4 
 .text._appletSetOutOfFocusSuspendingEnabled
                0x00000000000144f0      0x16c S:/UltimateEnvironment/code-mod-example/param-replace/code-mod-framework/lib/libnx_min/nx/lib\libnx_min.a(applet.o)
 *fill*         0x000000000001465c        0x4 
 .text._appletSetPerformanceModeChangedNotification.constprop.47
                0x0000000000014660      0x164 S:/UltimateEnvironment/code-mod-example/param-replace/code-mod-framework/lib/libnx_min/nx/lib\libnx_min.a(applet.o)
 *fill*         0x00000000000147c4        0xc 
 .text._appletCmdInU64.constprop.37
                0x00000000000147d0      0x16c S:/UltimateEnvironment/code-mod-example/param-replace/code-mod-framework/lib/libnx_min/nx/lib\libnx_min.a(applet.o)
 *fill*         0x000000000001493c        0x4 
 .text._appletCmdInU32.constprop.48
                0x0000000000014940      0x16c S:/UltimateEnvironment/code-mod-example/param-replace/code-mod-framework/lib/libnx_min/nx/lib\libnx_min.a(applet.o)
 *fill*         0x0000000000014aac        0x4 
 .text._appletSetFocusHandlingMode
                0x0000000000014ab0      0x17c S:/UltimateEnvironment/code-mod-example/param-replace/code-mod-framework/lib/libnx_min/nx/lib\libnx_min.a(applet.o)
 *fill*         0x0000000000014c2c        0x4 
 .text._appletGetHandle.constprop.42
                0x0000000000014c30      0x178 S:/UltimateEnvironment/code-mod-example/param-replace/code-mod-framework/lib/libnx_min/nx/lib\libnx_min.a(applet.o)
 *fill*         0x0000000000014da8        0x8 
 .text._appletGetEvent.constprop.41
                0x0000000000014db0       0x54 S:/UltimateEnvironment/code-mod-example/param-replace/code-mod-framework/lib/libnx_min/nx/lib\libnx_min.a(applet.o)
 *fill*         0x0000000000014e04        0xc 
 .text._appletWaitLibraryAppletLaunchableEvent
                0x0000000000014e10       0x50 S:/UltimateEnvironment/code-mod-example/param-replace/code-mod-framework/lib/libnx_min/nx/lib\libnx_min.a(applet.o)
 .text._appletCreateApplicationAndRequestToStartForQuest.isra.20
                0x0000000000014e60      0x17c S:/UltimateEnvironment/code-mod-example/param-replace/code-mod-framework/lib/libnx_min/nx/lib\libnx_min.a(applet.o)
 *fill*         0x0000000000014fdc        0x4 
 .text._appletCreateApplicationAndPushAndRequestToStart
                0x0000000000014fe0      0x1e0 S:/UltimateEnvironment/code-mod-example/param-replace/code-mod-framework/lib/libnx_min/nx/lib\libnx_min.a(applet.o)
 .text._appletCmdNoInOut32.constprop.38
                0x00000000000151c0      0x194 S:/UltimateEnvironment/code-mod-example/param-replace/code-mod-framework/lib/libnx_min/nx/lib\libnx_min.a(applet.o)
 *fill*         0x0000000000015354        0xc 
 .text._appletCmdInSession
                0x0000000000015360      0x1d8 S:/UltimateEnvironment/code-mod-example/param-replace/code-mod-framework/lib/libnx_min/nx/lib\libnx_min.a(applet.o)
 *fill*         0x0000000000015538        0x8 
 .text._appletStorageGetHandle
                0x0000000000015540      0x19c S:/UltimateEnvironment/code-mod-example/param-replace/code-mod-framework/lib/libnx_min/nx/lib\libnx_min.a(applet.o)
 *fill*         0x00000000000156dc        0x4 
 .text._appletCreateApplicationAndPushAndRequestToStartForQuest.isra.21
                0x00000000000156e0      0x1e8 S:/UltimateEnvironment/code-mod-example/param-replace/code-mod-framework/lib/libnx_min/nx/lib\libnx_min.a(applet.o)
 *fill*         0x00000000000158c8        0x8 
 .text._appletCreateTransferMemoryStorage.isra.25
                0x00000000000158d0      0x1e4 S:/UltimateEnvironment/code-mod-example/param-replace/code-mod-framework/lib/libnx_min/nx/lib\libnx_min.a(applet.o)
 *fill*         0x0000000000015ab4        0xc 
 .text._appletGetSessionIn64.constprop.39
                0x0000000000015ac0      0x1c4 S:/UltimateEnvironment/code-mod-example/param-replace/code-mod-framework/lib/libnx_min/nx/lib\libnx_min.a(applet.o)
 *fill*         0x0000000000015c84        0xc 
 .text._appletStorageAccessorRW
                0x0000000000015c90      0x314 S:/UltimateEnvironment/code-mod-example/param-replace/code-mod-framework/lib/libnx_min/nx/lib\libnx_min.a(applet.o)
 *fill*         0x0000000000015fa4        0xc 
 .text._appletStorageRW
                0x0000000000015fb0      0x108 S:/UltimateEnvironment/code-mod-example/param-replace/code-mod-framework/lib/libnx_min/nx/lib\libnx_min.a(applet.o)
 *fill*         0x00000000000160b8        0x8 
 .text._appletCreateLibraryApplet
                0x00000000000160c0      0x1c4 S:/UltimateEnvironment/code-mod-example/param-replace/code-mod-framework/lib/libnx_min/nx/lib\libnx_min.a(applet.o)
 *fill*         0x0000000000016284        0xc 
 .text._appletGetSessionProxy.constprop.40
                0x0000000000016290      0x1f0 S:/UltimateEnvironment/code-mod-example/param-replace/code-mod-framework/lib/libnx_min/nx/lib\libnx_min.a(applet.o)
 .text.appletGetAppletType
                0x0000000000016480       0x10 S:/UltimateEnvironment/code-mod-example/param-replace/code-mod-framework/lib/libnx_min/nx/lib\libnx_min.a(applet.o)
                0x0000000000016480                appletGetAppletType
 .text.appletHook
                0x0000000000016490       0x28 S:/UltimateEnvironment/code-mod-example/param-replace/code-mod-framework/lib/libnx_min/nx/lib\libnx_min.a(applet.o)
                0x0000000000016490                appletHook
 *fill*         0x00000000000164b8        0x8 
 .text.appletUnhook
                0x00000000000164c0       0x34 S:/UltimateEnvironment/code-mod-example/param-replace/code-mod-framework/lib/libnx_min/nx/lib\libnx_min.a(applet.o)
                0x00000000000164c0                appletUnhook
 *fill*         0x00000000000164f4        0xc 
 .text.appletSetThemeColorType
                0x0000000000016500        0xc S:/UltimateEnvironment/code-mod-example/param-replace/code-mod-framework/lib/libnx_min/nx/lib\libnx_min.a(applet.o)
                0x0000000000016500                appletSetThemeColorType
 *fill*         0x000000000001650c        0x4 
 .text.appletGetThemeColorType
                0x0000000000016510        0xc S:/UltimateEnvironment/code-mod-example/param-replace/code-mod-framework/lib/libnx_min/nx/lib\libnx_min.a(applet.o)
                0x0000000000016510                appletGetThemeColorType
 *fill*         0x000000000001651c        0x4 
 .text.appletSetFocusHandlingMode
                0x0000000000016520       0xf0 S:/UltimateEnvironment/code-mod-example/param-replace/code-mod-framework/lib/libnx_min/nx/lib\libnx_min.a(applet.o)
                0x0000000000016520                appletSetFocusHandlingMode
 .text.appletGetAppletResourceUserId
                0x0000000000016610       0x28 S:/UltimateEnvironment/code-mod-example/param-replace/code-mod-framework/lib/libnx_min/nx/lib\libnx_min.a(applet.o)
                0x0000000000016610                appletGetAppletResourceUserId
 *fill*         0x0000000000016638        0x8 
 .text._appletGetIndirectLayerConsumerHandle
                0x0000000000016640      0x12c S:/UltimateEnvironment/code-mod-example/param-replace/code-mod-framework/lib/libnx_min/nx/lib\libnx_min.a(applet.o)
 *fill*         0x000000000001676c        0x4 
 .text._appletHolderCreate
                0x0000000000016770       0xc0 S:/UltimateEnvironment/code-mod-example/param-replace/code-mod-framework/lib/libnx_min/nx/lib\libnx_min.a(applet.o)
 .text.appletPopLaunchParameter
                0x0000000000016830      0x194 S:/UltimateEnvironment/code-mod-example/param-replace/code-mod-framework/lib/libnx_min/nx/lib\libnx_min.a(applet.o)
                0x0000000000016830                appletPopLaunchParameter
 *fill*         0x00000000000169c4        0xc 
 .text.appletGetDesiredLanguage
                0x00000000000169d0       0x3c S:/UltimateEnvironment/code-mod-example/param-replace/code-mod-framework/lib/libnx_min/nx/lib\libnx_min.a(applet.o)
                0x00000000000169d0                appletGetDesiredLanguage
 *fill*         0x0000000000016a0c        0x4 
 .text.appletSetTerminateResult
                0x0000000000016a10      0x14c S:/UltimateEnvironment/code-mod-example/param-replace/code-mod-framework/lib/libnx_min/nx/lib\libnx_min.a(applet.o)
                0x0000000000016a10                appletSetTerminateResult
 *fill*         0x0000000000016b5c        0x4 
 .text.appletSetMediaPlaybackState
                0x0000000000016b60       0x4c S:/UltimateEnvironment/code-mod-example/param-replace/code-mod-framework/lib/libnx_min/nx/lib\libnx_min.a(applet.o)
                0x0000000000016b60                appletSetMediaPlaybackState
 *fill*         0x0000000000016bac        0x4 
 .text.appletBeginBlockingHomeButton
                0x0000000000016bb0      0x14c S:/UltimateEnvironment/code-mod-example/param-replace/code-mod-framework/lib/libnx_min/nx/lib\libnx_min.a(applet.o)
                0x0000000000016bb0                appletBeginBlockingHomeButton
 *fill*         0x0000000000016cfc        0x4 
 .text.appletEndBlockingHomeButton
                0x0000000000016d00       0x38 S:/UltimateEnvironment/code-mod-example/param-replace/code-mod-framework/lib/libnx_min/nx/lib\libnx_min.a(applet.o)
                0x0000000000016d00                appletEndBlockingHomeButton
 *fill*         0x0000000000016d38        0x8 
 .text.appletNotifyRunning
                0x0000000000016d40      0x174 S:/UltimateEnvironment/code-mod-example/param-replace/code-mod-framework/lib/libnx_min/nx/lib\libnx_min.a(applet.o)
                0x0000000000016d40                appletNotifyRunning
 *fill*         0x0000000000016eb4        0xc 
 .text.appletIsGamePlayRecordingSupported
                0x0000000000016ec0      0x168 S:/UltimateEnvironment/code-mod-example/param-replace/code-mod-framework/lib/libnx_min/nx/lib\libnx_min.a(applet.o)
                0x0000000000016ec0                appletIsGamePlayRecordingSupported
 *fill*         0x0000000000017028        0x8 
 .text.appletSetGamePlayRecordingState
                0x0000000000017030      0x158 S:/UltimateEnvironment/code-mod-example/param-replace/code-mod-framework/lib/libnx_min/nx/lib\libnx_min.a(applet.o)
                0x0000000000017030                appletSetGamePlayRecordingState
 *fill*         0x0000000000017188        0x8 
 .text.appletInitializeGamePlayRecording
                0x0000000000017190      0x138 S:/UltimateEnvironment/code-mod-example/param-replace/code-mod-framework/lib/libnx_min/nx/lib\libnx_min.a(applet.o)
                0x0000000000017190                appletInitializeGamePlayRecording
 *fill*         0x00000000000172c8        0x8 
 .text.appletQueryApplicationPlayStatistics
                0x00000000000172d0      0x1c0 S:/UltimateEnvironment/code-mod-example/param-replace/code-mod-framework/lib/libnx_min/nx/lib\libnx_min.a(applet.o)
                0x00000000000172d0                appletQueryApplicationPlayStatistics
 .text.appletBeginToWatchShortHomeButtonMessage
                0x0000000000017490       0x2c S:/UltimateEnvironment/code-mod-example/param-replace/code-mod-framework/lib/libnx_min/nx/lib\libnx_min.a(applet.o)
                0x0000000000017490                appletBeginToWatchShortHomeButtonMessage
 *fill*         0x00000000000174bc        0x4 
 .text.appletEndToWatchShortHomeButtonMessage
                0x00000000000174c0       0x2c S:/UltimateEnvironment/code-mod-example/param-replace/code-mod-framework/lib/libnx_min/nx/lib\libnx_min.a(applet.o)
                0x00000000000174c0                appletEndToWatchShortHomeButtonMessage
 *fill*         0x00000000000174ec        0x4 
 .text.appletHomeButtonReaderLockAccessorGetEvent
                0x00000000000174f0       0xc8 S:/UltimateEnvironment/code-mod-example/param-replace/code-mod-framework/lib/libnx_min/nx/lib\libnx_min.a(applet.o)
                0x00000000000174f0                appletHomeButtonReaderLockAccessorGetEvent
 *fill*         0x00000000000175b8        0x8 
 .text.appletIsVrModeEnabled
                0x00000000000175c0       0x4c S:/UltimateEnvironment/code-mod-example/param-replace/code-mod-framework/lib/libnx_min/nx/lib\libnx_min.a(applet.o)
                0x00000000000175c0                appletIsVrModeEnabled
 *fill*         0x000000000001760c        0x4 
 .text.appletSetVrModeEnabled
                0x0000000000017610       0x78 S:/UltimateEnvironment/code-mod-example/param-replace/code-mod-framework/lib/libnx_min/nx/lib\libnx_min.a(applet.o)
                0x0000000000017610                appletSetVrModeEnabled
 *fill*         0x0000000000017688        0x8 
 .text.appletSetCpuBoostMode
                0x0000000000017690       0x50 S:/UltimateEnvironment/code-mod-example/param-replace/code-mod-framework/lib/libnx_min/nx/lib\libnx_min.a(applet.o)
                0x0000000000017690                appletSetCpuBoostMode
 .text.appletExit
                0x00000000000176e0      0x5dc S:/UltimateEnvironment/code-mod-example/param-replace/code-mod-framework/lib/libnx_min/nx/lib\libnx_min.a(applet.o)
                0x00000000000176e0                appletExit
 *fill*         0x0000000000017cbc        0x4 
 .text.appletInitialize
                0x0000000000017cc0      0x4f0 S:/UltimateEnvironment/code-mod-example/param-replace/code-mod-framework/lib/libnx_min/nx/lib\libnx_min.a(applet.o)
                0x0000000000017cc0                appletInitialize
 .text._appletExitProcess
                0x00000000000181b0       0x10 S:/UltimateEnvironment/code-mod-example/param-replace/code-mod-framework/lib/libnx_min/nx/lib\libnx_min.a(applet.o)
 .text.appletGetCurrentPerformanceConfiguration
                0x00000000000181c0       0x40 S:/UltimateEnvironment/code-mod-example/param-replace/code-mod-framework/lib/libnx_min/nx/lib\libnx_min.a(applet.o)
                0x00000000000181c0                appletGetCurrentPerformanceConfiguration
 .text.appletLockExit
                0x0000000000018200       0x10 S:/UltimateEnvironment/code-mod-example/param-replace/code-mod-framework/lib/libnx_min/nx/lib\libnx_min.a(applet.o)
                0x0000000000018200                appletLockExit
 .text.appletUnlockExit
                0x0000000000018210       0x10 S:/UltimateEnvironment/code-mod-example/param-replace/code-mod-framework/lib/libnx_min/nx/lib\libnx_min.a(applet.o)
                0x0000000000018210                appletUnlockExit
 .text.appletSetScreenShotPermission
                0x0000000000018220      0x16c S:/UltimateEnvironment/code-mod-example/param-replace/code-mod-framework/lib/libnx_min/nx/lib\libnx_min.a(applet.o)
                0x0000000000018220                appletSetScreenShotPermission
 *fill*         0x000000000001838c        0x4 
 .text.appletSetScreenShotImageOrientation
                0x0000000000018390      0x1c4 S:/UltimateEnvironment/code-mod-example/param-replace/code-mod-framework/lib/libnx_min/nx/lib\libnx_min.a(applet.o)
                0x0000000000018390                appletSetScreenShotImageOrientation
 *fill*         0x0000000000018554        0xc 
 .text.appletCreateManagedDisplayLayer
                0x0000000000018560       0x14 S:/UltimateEnvironment/code-mod-example/param-replace/code-mod-framework/lib/libnx_min/nx/lib\libnx_min.a(applet.o)
                0x0000000000018560                appletCreateManagedDisplayLayer
 *fill*         0x0000000000018574        0xc 
 .text.appletGetCurrentIlluminance
                0x0000000000018580      0x168 S:/UltimateEnvironment/code-mod-example/param-replace/code-mod-framework/lib/libnx_min/nx/lib\libnx_min.a(applet.o)
                0x0000000000018580                appletGetCurrentIlluminance
 *fill*         0x00000000000186e8        0x8 
 .text.appletIsIlluminanceAvailable
                0x00000000000186f0       0x4c S:/UltimateEnvironment/code-mod-example/param-replace/code-mod-framework/lib/libnx_min/nx/lib\libnx_min.a(applet.o)
                0x00000000000186f0                appletIsIlluminanceAvailable
 *fill*         0x000000000001873c        0x4 
 .text.appletGetCurrentIlluminanceEx
                0x0000000000018740      0x19c S:/UltimateEnvironment/code-mod-example/param-replace/code-mod-framework/lib/libnx_min/nx/lib\libnx_min.a(applet.o)
                0x0000000000018740                appletGetCurrentIlluminanceEx
 *fill*         0x00000000000188dc        0x4 
 .text.appletCreateLibraryApplet
                0x00000000000188e0        0x8 S:/UltimateEnvironment/code-mod-example/param-replace/code-mod-framework/lib/libnx_min/nx/lib\libnx_min.a(applet.o)
                0x00000000000188e0                appletCreateLibraryApplet
 *fill*         0x00000000000188e8        0x8 
 .text.appletCreateLibraryAppletSelf
                0x00000000000188f0        0x8 S:/UltimateEnvironment/code-mod-example/param-replace/code-mod-framework/lib/libnx_min/nx/lib\libnx_min.a(applet.o)
                0x00000000000188f0                appletCreateLibraryAppletSelf
 *fill*         0x00000000000188f8        0x8 
 .text.appletHolderClose
                0x0000000000018900       0x94 S:/UltimateEnvironment/code-mod-example/param-replace/code-mod-framework/lib/libnx_min/nx/lib\libnx_min.a(applet.o)
                0x0000000000018900                appletHolderClose
 *fill*         0x0000000000018994        0xc 
 .text.appletHolderActive
                0x00000000000189a0       0x10 S:/UltimateEnvironment/code-mod-example/param-replace/code-mod-framework/lib/libnx_min/nx/lib\libnx_min.a(applet.o)
                0x00000000000189a0                appletHolderActive
 .text.appletHolderGetIndirectLayerConsumerHandle
                0x00000000000189b0       0x74 S:/UltimateEnvironment/code-mod-example/param-replace/code-mod-framework/lib/libnx_min/nx/lib\libnx_min.a(applet.o)
                0x00000000000189b0                appletHolderGetIndirectLayerConsumerHandle
 *fill*         0x0000000000018a24        0xc 
 .text.appletHolderStart
                0x0000000000018a30       0x50 S:/UltimateEnvironment/code-mod-example/param-replace/code-mod-framework/lib/libnx_min/nx/lib\libnx_min.a(applet.o)
                0x0000000000018a30                appletHolderStart
 .text.appletHolderJoin
                0x0000000000018a80       0x80 S:/UltimateEnvironment/code-mod-example/param-replace/code-mod-framework/lib/libnx_min/nx/lib\libnx_min.a(applet.o)
                0x0000000000018a80                appletHolderJoin
 .text.appletHolderCheckFinished
                0x0000000000018b00       0x24 S:/UltimateEnvironment/code-mod-example/param-replace/code-mod-framework/lib/libnx_min/nx/lib\libnx_min.a(applet.o)
                0x0000000000018b00                appletHolderCheckFinished
 *fill*         0x0000000000018b24        0xc 
 .text.appletHolderRequestExit
                0x0000000000018b30       0x50 S:/UltimateEnvironment/code-mod-example/param-replace/code-mod-framework/lib/libnx_min/nx/lib\libnx_min.a(applet.o)
                0x0000000000018b30                appletHolderRequestExit
 .text.appletHolderGetExitReason
                0x0000000000018b80        0x8 S:/UltimateEnvironment/code-mod-example/param-replace/code-mod-framework/lib/libnx_min/nx/lib\libnx_min.a(applet.o)
                0x0000000000018b80                appletHolderGetExitReason
 *fill*         0x0000000000018b88        0x8 
 .text.appletHolderWaitInteractiveOut
                0x0000000000018b90       0x88 S:/UltimateEnvironment/code-mod-example/param-replace/code-mod-framework/lib/libnx_min/nx/lib\libnx_min.a(applet.o)
                0x0000000000018b90                appletHolderWaitInteractiveOut
 *fill*         0x0000000000018c18        0x8 
 .text.appletHolderPopOutData
                0x0000000000018c20       0x18 S:/UltimateEnvironment/code-mod-example/param-replace/code-mod-framework/lib/libnx_min/nx/lib\libnx_min.a(applet.o)
                0x0000000000018c20                appletHolderPopOutData
 *fill*         0x0000000000018c38        0x8 
 .text.appletHolderPopInteractiveOutData
                0x0000000000018c40       0x18 S:/UltimateEnvironment/code-mod-example/param-replace/code-mod-framework/lib/libnx_min/nx/lib\libnx_min.a(applet.o)
                0x0000000000018c40                appletHolderPopInteractiveOutData
 *fill*         0x0000000000018c58        0x8 
 .text.appletCreateStorage
                0x0000000000018c60       0x14 S:/UltimateEnvironment/code-mod-example/param-replace/code-mod-framework/lib/libnx_min/nx/lib\libnx_min.a(applet.o)
                0x0000000000018c60                appletCreateStorage
 *fill*         0x0000000000018c74        0xc 
 .text.appletCreateTransferMemoryStorage
                0x0000000000018c80       0xa8 S:/UltimateEnvironment/code-mod-example/param-replace/code-mod-framework/lib/libnx_min/nx/lib\libnx_min.a(applet.o)
                0x0000000000018c80                appletCreateTransferMemoryStorage
 *fill*         0x0000000000018d28        0x8 
 .text.appletCreateHandleStorage
                0x0000000000018d30       0x64 S:/UltimateEnvironment/code-mod-example/param-replace/code-mod-framework/lib/libnx_min/nx/lib\libnx_min.a(applet.o)
                0x0000000000018d30                appletCreateHandleStorage
 *fill*         0x0000000000018d94        0xc 
 .text.appletCreateHandleStorageTmem
                0x0000000000018da0       0xa0 S:/UltimateEnvironment/code-mod-example/param-replace/code-mod-framework/lib/libnx_min/nx/lib\libnx_min.a(applet.o)
                0x0000000000018da0                appletCreateHandleStorageTmem
 .text.appletStorageClose
                0x0000000000018e40       0x6c S:/UltimateEnvironment/code-mod-example/param-replace/code-mod-framework/lib/libnx_min/nx/lib\libnx_min.a(applet.o)
                0x0000000000018e40                appletStorageClose
 *fill*         0x0000000000018eac        0x4 
 .text.appletRequestLaunchApplication
                0x0000000000018eb0      0x188 S:/UltimateEnvironment/code-mod-example/param-replace/code-mod-framework/lib/libnx_min/nx/lib\libnx_min.a(applet.o)
                0x0000000000018eb0                appletRequestLaunchApplication
 *fill*         0x0000000000019038        0x8 
 .text.appletRequestLaunchApplicationForQuest
                0x0000000000019040      0x168 S:/UltimateEnvironment/code-mod-example/param-replace/code-mod-framework/lib/libnx_min/nx/lib\libnx_min.a(applet.o)
                0x0000000000019040                appletRequestLaunchApplicationForQuest
 *fill*         0x00000000000191a8        0x8 
 .text.appletHolderPushInteractiveInData
                0x00000000000191b0       0x40 S:/UltimateEnvironment/code-mod-example/param-replace/code-mod-framework/lib/libnx_min/nx/lib\libnx_min.a(applet.o)
                0x00000000000191b0                appletHolderPushInteractiveInData
 .text.appletPushToGeneralChannel
                0x00000000000191f0       0x4c S:/UltimateEnvironment/code-mod-example/param-replace/code-mod-framework/lib/libnx_min/nx/lib\libnx_min.a(applet.o)
                0x00000000000191f0                appletPushToGeneralChannel
 *fill*         0x000000000001923c        0x4 
 .text.appletHolderPushInData
                0x0000000000019240       0x40 S:/UltimateEnvironment/code-mod-example/param-replace/code-mod-framework/lib/libnx_min/nx/lib\libnx_min.a(applet.o)
                0x0000000000019240                appletHolderPushInData
 .text.appletHolderPushExtraStorage
                0x0000000000019280       0x40 S:/UltimateEnvironment/code-mod-example/param-replace/code-mod-framework/lib/libnx_min/nx/lib\libnx_min.a(applet.o)
                0x0000000000019280                appletHolderPushExtraStorage
 .text.appletStorageCloseTmem
                0x00000000000192c0        0x8 S:/UltimateEnvironment/code-mod-example/param-replace/code-mod-framework/lib/libnx_min/nx/lib\libnx_min.a(applet.o)
                0x00000000000192c0                appletStorageCloseTmem
 *fill*         0x00000000000192c8        0x8 
 .text.appletStorageGetSize
                0x00000000000192d0       0xc4 S:/UltimateEnvironment/code-mod-example/param-replace/code-mod-framework/lib/libnx_min/nx/lib\libnx_min.a(applet.o)
                0x00000000000192d0                appletStorageGetSize
 *fill*         0x0000000000019394        0xc 
 .text.appletStorageWrite
                0x00000000000193a0        0x8 S:/UltimateEnvironment/code-mod-example/param-replace/code-mod-framework/lib/libnx_min/nx/lib\libnx_min.a(applet.o)
                0x00000000000193a0                appletStorageWrite
 *fill*         0x00000000000193a8        0x8 
 .text.appletStorageRead
                0x00000000000193b0        0x8 S:/UltimateEnvironment/code-mod-example/param-replace/code-mod-framework/lib/libnx_min/nx/lib\libnx_min.a(applet.o)
                0x00000000000193b0                appletStorageRead
 *fill*         0x00000000000193b8        0x8 
 .text.appletStorageGetHandle
                0x00000000000193c0       0xfc S:/UltimateEnvironment/code-mod-example/param-replace/code-mod-framework/lib/libnx_min/nx/lib\libnx_min.a(applet.o)
                0x00000000000193c0                appletStorageGetHandle
 *fill*         0x00000000000194bc        0x4 
 .text.appletStorageMap
                0x00000000000194c0       0xcc S:/UltimateEnvironment/code-mod-example/param-replace/code-mod-framework/lib/libnx_min/nx/lib\libnx_min.a(applet.o)
                0x00000000000194c0                appletStorageMap
 *fill*         0x000000000001958c        0x4 
 .text.appletGetOperationMode
                0x0000000000019590        0xc S:/UltimateEnvironment/code-mod-example/param-replace/code-mod-framework/lib/libnx_min/nx/lib\libnx_min.a(applet.o)
                0x0000000000019590                appletGetOperationMode
 *fill*         0x000000000001959c        0x4 
 .text.appletGetPerformanceMode
                0x00000000000195a0        0xc S:/UltimateEnvironment/code-mod-example/param-replace/code-mod-framework/lib/libnx_min/nx/lib\libnx_min.a(applet.o)
                0x00000000000195a0                appletGetPerformanceMode
 *fill*         0x00000000000195ac        0x4 
 .text.appletGetFocusState
                0x00000000000195b0        0xc S:/UltimateEnvironment/code-mod-example/param-replace/code-mod-framework/lib/libnx_min/nx/lib\libnx_min.a(applet.o)
                0x00000000000195b0                appletGetFocusState
 *fill*         0x00000000000195bc        0x4 
 .text.appletGetMessage
                0x00000000000195c0       0x5c S:/UltimateEnvironment/code-mod-example/param-replace/code-mod-framework/lib/libnx_min/nx/lib\libnx_min.a(applet.o)
                0x00000000000195c0                appletGetMessage
 *fill*         0x000000000001961c        0x4 
 .text.appletProcessMessage
                0x0000000000019620      0x118 S:/UltimateEnvironment/code-mod-example/param-replace/code-mod-framework/lib/libnx_min/nx/lib\libnx_min.a(applet.o)
                0x0000000000019620                appletProcessMessage
 *fill*         0x0000000000019738        0x8 
 .text.appletMainLoop
                0x0000000000019740       0x34 S:/UltimateEnvironment/code-mod-example/param-replace/code-mod-framework/lib/libnx_min/nx/lib\libnx_min.a(applet.o)
                0x0000000000019740                appletMainLoop
 *fill*         0x0000000000019774        0xc 
 .text.__syscall_exit
                0x0000000000019780       0x1c S:/UltimateEnvironment/code-mod-example/param-replace/code-mod-framework/lib/libnx_min/nx/lib\libnx_min.a(newlib.o)
                0x0000000000019780                __syscall_exit
 *fill*         0x000000000001979c        0x4 
 .text.__syscall_getreent
                0x00000000000197a0       0x10 S:/UltimateEnvironment/code-mod-example/param-replace/code-mod-framework/lib/libnx_min/nx/lib\libnx_min.a(newlib.o)
                0x00000000000197a0                __syscall_getreent
 .text.__syscall_lock_acquire
                0x00000000000197b0        0x4 S:/UltimateEnvironment/code-mod-example/param-replace/code-mod-framework/lib/libnx_min/nx/lib\libnx_min.a(newlib.o)
                0x00000000000197b0                __syscall_lock_acquire
 *fill*         0x00000000000197b4        0xc 
 .text.__syscall_lock_try_acquire
                0x00000000000197c0       0x1c S:/UltimateEnvironment/code-mod-example/param-replace/code-mod-framework/lib/libnx_min/nx/lib\libnx_min.a(newlib.o)
                0x00000000000197c0                __syscall_lock_try_acquire
 *fill*         0x00000000000197dc        0x4 
 .text.__syscall_lock_release
                0x00000000000197e0        0x4 S:/UltimateEnvironment/code-mod-example/param-replace/code-mod-framework/lib/libnx_min/nx/lib\libnx_min.a(newlib.o)
                0x00000000000197e0                __syscall_lock_release
 *fill*         0x00000000000197e4        0xc 
 .text.__syscall_lock_acquire_recursive
                0x00000000000197f0        0x4 S:/UltimateEnvironment/code-mod-example/param-replace/code-mod-framework/lib/libnx_min/nx/lib\libnx_min.a(newlib.o)
                0x00000000000197f0                __syscall_lock_acquire_recursive
 *fill*         0x00000000000197f4        0xc 
 .text.__syscall_lock_try_acquire_recursive
                0x0000000000019800       0x1c S:/UltimateEnvironment/code-mod-example/param-replace/code-mod-framework/lib/libnx_min/nx/lib\libnx_min.a(newlib.o)
                0x0000000000019800                __syscall_lock_try_acquire_recursive
 *fill*         0x000000000001981c        0x4 
 .text.__syscall_lock_release_recursive
                0x0000000000019820        0x4 S:/UltimateEnvironment/code-mod-example/param-replace/code-mod-framework/lib/libnx_min/nx/lib\libnx_min.a(newlib.o)
                0x0000000000019820                __syscall_lock_release_recursive
 *fill*         0x0000000000019824        0xc 
 .text.__syscall_cond_signal
                0x0000000000019830       0x40 S:/UltimateEnvironment/code-mod-example/param-replace/code-mod-framework/lib/libnx_min/nx/lib\libnx_min.a(newlib.o)
                0x0000000000019830                __syscall_cond_signal
 .text.__syscall_cond_broadcast
                0x0000000000019870       0x40 S:/UltimateEnvironment/code-mod-example/param-replace/code-mod-framework/lib/libnx_min/nx/lib\libnx_min.a(newlib.o)
                0x0000000000019870                __syscall_cond_broadcast
 .text.__syscall_cond_wait
                0x00000000000198b0       0x3c S:/UltimateEnvironment/code-mod-example/param-replace/code-mod-framework/lib/libnx_min/nx/lib\libnx_min.a(newlib.o)
                0x00000000000198b0                __syscall_cond_wait
 *fill*         0x00000000000198ec        0x4 
 .text.__syscall_cond_wait_recursive
                0x00000000000198f0       0x64 S:/UltimateEnvironment/code-mod-example/param-replace/code-mod-framework/lib/libnx_min/nx/lib\libnx_min.a(newlib.o)
                0x00000000000198f0                __syscall_cond_wait_recursive
 *fill*         0x0000000000019954        0xc 
 .text.__syscall_thread_self
                0x0000000000019960       0x14 S:/UltimateEnvironment/code-mod-example/param-replace/code-mod-framework/lib/libnx_min/nx/lib\libnx_min.a(newlib.o)
                0x0000000000019960                __syscall_thread_self
 *fill*         0x0000000000019974        0xc 
 .text.__syscall_thread_exit
                0x0000000000019980       0x2c S:/UltimateEnvironment/code-mod-example/param-replace/code-mod-framework/lib/libnx_min/nx/lib\libnx_min.a(newlib.o)
                0x0000000000019980                __syscall_thread_exit
 *fill*         0x00000000000199ac        0x4 
 .text.__thread_entry
                0x00000000000199b0       0x58 S:/UltimateEnvironment/code-mod-example/param-replace/code-mod-framework/lib/libnx_min/nx/lib\libnx_min.a(newlib.o)
 *fill*         0x0000000000019a08        0x8 
 .text.__syscall_thread_create
                0x0000000000019a10      0x15c S:/UltimateEnvironment/code-mod-example/param-replace/code-mod-framework/lib/libnx_min/nx/lib\libnx_min.a(newlib.o)
                0x0000000000019a10                __syscall_thread_create
 *fill*         0x0000000000019b6c        0x4 
 .text.__syscall_thread_join
                0x0000000000019b70       0x58 S:/UltimateEnvironment/code-mod-example/param-replace/code-mod-framework/lib/libnx_min/nx/lib\libnx_min.a(newlib.o)
                0x0000000000019b70                __syscall_thread_join
 *fill*         0x0000000000019bc8        0x8 
 .text.__syscall_tls_create
                0x0000000000019bd0       0x44 S:/UltimateEnvironment/code-mod-example/param-replace/code-mod-framework/lib/libnx_min/nx/lib\libnx_min.a(newlib.o)
                0x0000000000019bd0                __syscall_tls_create
 *fill*         0x0000000000019c14        0xc 
 .text.__syscall_tls_set
                0x0000000000019c20       0x18 S:/UltimateEnvironment/code-mod-example/param-replace/code-mod-framework/lib/libnx_min/nx/lib\libnx_min.a(newlib.o)
                0x0000000000019c20                __syscall_tls_set
 *fill*         0x0000000000019c38        0x8 
 .text.__syscall_tls_get
                0x0000000000019c40        0x4 S:/UltimateEnvironment/code-mod-example/param-replace/code-mod-framework/lib/libnx_min/nx/lib\libnx_min.a(newlib.o)
                0x0000000000019c40                __syscall_tls_get
 *fill*         0x0000000000019c44        0xc 
 .text.__syscall_tls_delete
                0x0000000000019c50       0x18 S:/UltimateEnvironment/code-mod-example/param-replace/code-mod-framework/lib/libnx_min/nx/lib\libnx_min.a(newlib.o)
                0x0000000000019c50                __syscall_tls_delete
 *fill*         0x0000000000019c68        0x8 
 .text.sched_yield
                0x0000000000019c70       0x1c S:/UltimateEnvironment/code-mod-example/param-replace/code-mod-framework/lib/libnx_min/nx/lib\libnx_min.a(newlib.o)
                0x0000000000019c70                sched_yield
 *fill*         0x0000000000019c8c        0x4 
 .text.sched_getcpu
                0x0000000000019c90        0x4 S:/UltimateEnvironment/code-mod-example/param-replace/code-mod-framework/lib/libnx_min/nx/lib\libnx_min.a(newlib.o)
                0x0000000000019c90                sched_getcpu
 *fill*         0x0000000000019c94        0xc 
 .text.__libnx_init_time
                0x0000000000019ca0      0x27c S:/UltimateEnvironment/code-mod-example/param-replace/code-mod-framework/lib/libnx_min/nx/lib\libnx_min.a(newlib.o)
                0x0000000000019ca0                __libnx_init_time
 *fill*         0x0000000000019f1c        0x4 
 .text.__syscall_clock_getres
                0x0000000000019f20       0x58 S:/UltimateEnvironment/code-mod-example/param-replace/code-mod-framework/lib/libnx_min/nx/lib\libnx_min.a(newlib.o)
                0x0000000000019f20                __syscall_clock_getres
 *fill*         0x0000000000019f78        0x8 
 .text.__syscall_clock_gettime
                0x0000000000019f80       0xf8 S:/UltimateEnvironment/code-mod-example/param-replace/code-mod-framework/lib/libnx_min/nx/lib\libnx_min.a(newlib.o)
                0x0000000000019f80                __syscall_clock_gettime
 *fill*         0x000000000001a078        0x8 
 .text.__syscall_gettod_r
                0x000000000001a080       0x8c S:/UltimateEnvironment/code-mod-example/param-replace/code-mod-framework/lib/libnx_min/nx/lib\libnx_min.a(newlib.o)
                0x000000000001a080                __syscall_gettod_r
 *fill*         0x000000000001a10c        0x4 
 .text.__syscall_nanosleep
                0x000000000001a110       0x5c S:/UltimateEnvironment/code-mod-example/param-replace/code-mod-framework/lib/libnx_min/nx/lib\libnx_min.a(newlib.o)
                0x000000000001a110                __syscall_nanosleep
 *fill*         0x000000000001a16c        0x4 
 .text.newlibSetup
                0x000000000001a170       0x74 S:/UltimateEnvironment/code-mod-example/param-replace/code-mod-framework/lib/libnx_min/nx/lib\libnx_min.a(newlib.o)
                0x000000000001a170                newlibSetup
 *fill*         0x000000000001a1e4        0xc 
 .text.threadCreate
                0x000000000001a1f0      0x1fc S:/UltimateEnvironment/code-mod-example/param-replace/code-mod-framework/lib/libnx_min/nx/lib\libnx_min.a(thread.o)
                0x000000000001a1f0                threadCreate
 *fill*         0x000000000001a3ec        0x4 
 .text.threadExit
                0x000000000001a3f0       0xb0 S:/UltimateEnvironment/code-mod-example/param-replace/code-mod-framework/lib/libnx_min/nx/lib\libnx_min.a(thread.o)
                0x000000000001a3f0                threadExit
 .text._EntryWrap
                0x000000000001a4a0       0x90 S:/UltimateEnvironment/code-mod-example/param-replace/code-mod-framework/lib/libnx_min/nx/lib\libnx_min.a(thread.o)
 .text.threadStart
                0x000000000001a530        0x8 S:/UltimateEnvironment/code-mod-example/param-replace/code-mod-framework/lib/libnx_min/nx/lib\libnx_min.a(thread.o)
                0x000000000001a530                threadStart
 *fill*         0x000000000001a538        0x8 
 .text.threadWaitForExit
                0x000000000001a540       0x2c S:/UltimateEnvironment/code-mod-example/param-replace/code-mod-framework/lib/libnx_min/nx/lib\libnx_min.a(thread.o)
                0x000000000001a540                threadWaitForExit
 *fill*         0x000000000001a56c        0x4 
 .text.threadClose
                0x000000000001a570       0x54 S:/UltimateEnvironment/code-mod-example/param-replace/code-mod-framework/lib/libnx_min/nx/lib\libnx_min.a(thread.o)
                0x000000000001a570                threadClose
 *fill*         0x000000000001a5c4        0xc 
 .text.threadPause
                0x000000000001a5d0        0xc S:/UltimateEnvironment/code-mod-example/param-replace/code-mod-framework/lib/libnx_min/nx/lib\libnx_min.a(thread.o)
                0x000000000001a5d0                threadPause
 *fill*         0x000000000001a5dc        0x4 
 .text.threadResume
                0x000000000001a5e0        0xc S:/UltimateEnvironment/code-mod-example/param-replace/code-mod-framework/lib/libnx_min/nx/lib\libnx_min.a(thread.o)
                0x000000000001a5e0                threadResume
 *fill*         0x000000000001a5ec        0x4 
 .text.threadDumpContext
                0x000000000001a5f0        0x8 S:/UltimateEnvironment/code-mod-example/param-replace/code-mod-framework/lib/libnx_min/nx/lib\libnx_min.a(thread.o)
                0x000000000001a5f0                threadDumpContext
 *fill*         0x000000000001a5f8        0x8 
 .text.threadGetCurHandle
                0x000000000001a600        0xc S:/UltimateEnvironment/code-mod-example/param-replace/code-mod-framework/lib/libnx_min/nx/lib\libnx_min.a(thread.o)
                0x000000000001a600                threadGetCurHandle
 *fill*         0x000000000001a60c        0x4 
 .text.threadTlsGet
                0x000000000001a610       0x10 S:/UltimateEnvironment/code-mod-example/param-replace/code-mod-framework/lib/libnx_min/nx/lib\libnx_min.a(thread.o)
                0x000000000001a610                threadTlsGet
 .text.threadTlsSet
                0x000000000001a620       0x10 S:/UltimateEnvironment/code-mod-example/param-replace/code-mod-framework/lib/libnx_min/nx/lib\libnx_min.a(thread.o)
                0x000000000001a620                threadTlsSet
 .text.threadTlsAlloc
                0x000000000001a630       0xd8 S:/UltimateEnvironment/code-mod-example/param-replace/code-mod-framework/lib/libnx_min/nx/lib\libnx_min.a(thread.o)
                0x000000000001a630                threadTlsAlloc
 *fill*         0x000000000001a708        0x8 
 .text.threadTlsFree
                0x000000000001a710       0x48 S:/UltimateEnvironment/code-mod-example/param-replace/code-mod-framework/lib/libnx_min/nx/lib\libnx_min.a(thread.o)
                0x000000000001a710                threadTlsFree
 *fill*         0x000000000001a758        0x8 
 .text.condvarWaitTimeout
                0x000000000001a760       0x60 S:/UltimateEnvironment/code-mod-example/param-replace/code-mod-framework/lib/libnx_min/nx/lib\libnx_min.a(condvar.o)
                0x000000000001a760                condvarWaitTimeout
 .text.eventCreate
                0x000000000001a7c0       0x38 S:/UltimateEnvironment/code-mod-example/param-replace/code-mod-framework/lib/libnx_min/nx/lib\libnx_min.a(event.o)
                0x000000000001a7c0                eventCreate
 *fill*         0x000000000001a7f8        0x8 
 .text.eventLoadRemote
                0x000000000001a800        0xc S:/UltimateEnvironment/code-mod-example/param-replace/code-mod-framework/lib/libnx_min/nx/lib\libnx_min.a(event.o)
                0x000000000001a800                eventLoadRemote
 *fill*         0x000000000001a80c        0x4 
 .text.eventWait
                0x000000000001a810       0x38 S:/UltimateEnvironment/code-mod-example/param-replace/code-mod-framework/lib/libnx_min/nx/lib\libnx_min.a(event.o)
                0x000000000001a810                eventWait
 *fill*         0x000000000001a848        0x8 
 .text.eventFire
                0x000000000001a850       0x14 S:/UltimateEnvironment/code-mod-example/param-replace/code-mod-framework/lib/libnx_min/nx/lib\libnx_min.a(event.o)
                0x000000000001a850                eventFire
 *fill*         0x000000000001a864        0xc 
 .text.eventClear
                0x000000000001a870       0x24 S:/UltimateEnvironment/code-mod-example/param-replace/code-mod-framework/lib/libnx_min/nx/lib\libnx_min.a(event.o)
                0x000000000001a870                eventClear
 *fill*         0x000000000001a894        0xc 
 .text.eventClose
                0x000000000001a8a0       0x50 S:/UltimateEnvironment/code-mod-example/param-replace/code-mod-framework/lib/libnx_min/nx/lib\libnx_min.a(event.o)
                0x000000000001a8a0                eventClose
 .text.tmemCreate
                0x000000000001a8f0       0xa8 S:/UltimateEnvironment/code-mod-example/param-replace/code-mod-framework/lib/libnx_min/nx/lib\libnx_min.a(tmem.o)
                0x000000000001a8f0                tmemCreate
 *fill*         0x000000000001a998        0x8 
 .text.tmemCreateFromMemory
                0x000000000001a9a0       0x2c S:/UltimateEnvironment/code-mod-example/param-replace/code-mod-framework/lib/libnx_min/nx/lib\libnx_min.a(tmem.o)
                0x000000000001a9a0                tmemCreateFromMemory
 *fill*         0x000000000001a9cc        0x4 
 .text.tmemLoadRemote
                0x000000000001a9d0       0x14 S:/UltimateEnvironment/code-mod-example/param-replace/code-mod-framework/lib/libnx_min/nx/lib\libnx_min.a(tmem.o)
                0x000000000001a9d0                tmemLoadRemote
 *fill*         0x000000000001a9e4        0xc 
 .text.tmemMap  0x000000000001a9f0       0x84 S:/UltimateEnvironment/code-mod-example/param-replace/code-mod-framework/lib/libnx_min/nx/lib\libnx_min.a(tmem.o)
                0x000000000001a9f0                tmemMap
 *fill*         0x000000000001aa74        0xc 
 .text.tmemUnmap
                0x000000000001aa80       0x58 S:/UltimateEnvironment/code-mod-example/param-replace/code-mod-framework/lib/libnx_min/nx/lib\libnx_min.a(tmem.o)
                0x000000000001aa80                tmemUnmap
 *fill*         0x000000000001aad8        0x8 
 .text.tmemClose
                0x000000000001aae0       0x68 S:/UltimateEnvironment/code-mod-example/param-replace/code-mod-framework/lib/libnx_min/nx/lib\libnx_min.a(tmem.o)
                0x000000000001aae0                tmemClose
 *fill*         0x000000000001ab48        0x8 
 .text.rwlockInit
                0x000000000001ab50        0x8 S:/UltimateEnvironment/code-mod-example/param-replace/code-mod-framework/lib/libnx_min/nx/lib\libnx_min.a(rwlock.o)
                0x000000000001ab50                rwlockInit
 *fill*         0x000000000001ab58        0x8 
 .text.rwlockReadLock
                0x000000000001ab60       0x58 S:/UltimateEnvironment/code-mod-example/param-replace/code-mod-framework/lib/libnx_min/nx/lib\libnx_min.a(rwlock.o)
                0x000000000001ab60                rwlockReadLock
 *fill*         0x000000000001abb8        0x8 
 .text.rwlockReadUnlock
                0x000000000001abc0       0x5c S:/UltimateEnvironment/code-mod-example/param-replace/code-mod-framework/lib/libnx_min/nx/lib\libnx_min.a(rwlock.o)
                0x000000000001abc0                rwlockReadUnlock
 *fill*         0x000000000001ac1c        0x4 
 .text.rwlockWriteLock
                0x000000000001ac20       0x84 S:/UltimateEnvironment/code-mod-example/param-replace/code-mod-framework/lib/libnx_min/nx/lib\libnx_min.a(rwlock.o)
                0x000000000001ac20                rwlockWriteLock
 *fill*         0x000000000001aca4        0xc 
 .text.rwlockWriteUnlock
                0x000000000001acb0       0x3c S:/UltimateEnvironment/code-mod-example/param-replace/code-mod-framework/lib/libnx_min/nx/lib\libnx_min.a(rwlock.o)
                0x000000000001acb0                rwlockWriteUnlock
 *fill*         0x000000000001acec        0x4 
 .text._waitLoop
                0x000000000001acf0      0x104 S:/UltimateEnvironment/code-mod-example/param-replace/code-mod-framework/lib/libnx_min/nx/lib\libnx_min.a(wait.o)
 *fill*         0x000000000001adf4        0xc 
 .text._waitObjectsImpl
                0x000000000001ae00      0x338 S:/UltimateEnvironment/code-mod-example/param-replace/code-mod-framework/lib/libnx_min/nx/lib\libnx_min.a(wait.o)
 *fill*         0x000000000001b138        0x8 
 .text.waitObjects
                0x000000000001b140        0xc S:/UltimateEnvironment/code-mod-example/param-replace/code-mod-framework/lib/libnx_min/nx/lib\libnx_min.a(wait.o)
                0x000000000001b140                waitObjects
 *fill*         0x000000000001b14c        0x4 
 .text.waitHandles
                0x000000000001b150        0xc S:/UltimateEnvironment/code-mod-example/param-replace/code-mod-framework/lib/libnx_min/nx/lib\libnx_min.a(wait.o)
                0x000000000001b150                waitHandles
 *fill*         0x000000000001b15c        0x4 
 .text.shmemCreate
                0x000000000001b160       0x14 S:/UltimateEnvironment/code-mod-example/param-replace/code-mod-framework/lib/libnx_min/nx/lib\libnx_min.a(shmem.o)
                0x000000000001b160                shmemCreate
 *fill*         0x000000000001b174        0xc 
 .text.shmemLoadRemote
                0x000000000001b180       0x14 S:/UltimateEnvironment/code-mod-example/param-replace/code-mod-framework/lib/libnx_min/nx/lib\libnx_min.a(shmem.o)
                0x000000000001b180                shmemLoadRemote
 *fill*         0x000000000001b194        0xc 
 .text.shmemMap
                0x000000000001b1a0       0x84 S:/UltimateEnvironment/code-mod-example/param-replace/code-mod-framework/lib/libnx_min/nx/lib\libnx_min.a(shmem.o)
                0x000000000001b1a0                shmemMap
 *fill*         0x000000000001b224        0xc 
 .text.shmemUnmap
                0x000000000001b230       0x58 S:/UltimateEnvironment/code-mod-example/param-replace/code-mod-framework/lib/libnx_min/nx/lib\libnx_min.a(shmem.o)
                0x000000000001b230                shmemUnmap
 *fill*         0x000000000001b288        0x8 
 .text.shmemClose
                0x000000000001b290       0x44 S:/UltimateEnvironment/code-mod-example/param-replace/code-mod-framework/lib/libnx_min/nx/lib\libnx_min.a(shmem.o)
                0x000000000001b290                shmemClose
 *fill*         0x000000000001b2d4        0xc 
 .text.detectKernelVersion
                0x000000000001b2e0      0x17c S:/UltimateEnvironment/code-mod-example/param-replace/code-mod-framework/lib/libnx_min/nx/lib\libnx_min.a(detect.o)
                0x000000000001b2e0                detectKernelVersion
 *fill*         0x000000000001b45c        0x4 
 .text.detectDebugger
                0x000000000001b460       0x30 S:/UltimateEnvironment/code-mod-example/param-replace/code-mod-framework/lib/libnx_min/nx/lib\libnx_min.a(detect.o)
                0x000000000001b460                detectDebugger
 .text.detectJitKernelPatch
                0x000000000001b490       0xdc S:/UltimateEnvironment/code-mod-example/param-replace/code-mod-framework/lib/libnx_min/nx/lib\libnx_min.a(detect.o)
                0x000000000001b490                detectJitKernelPatch
 *fill*         0x000000000001b56c        0x4 
 .text.detectIgnoreJitKernelPatch
                0x000000000001b570       0x44 S:/UltimateEnvironment/code-mod-example/param-replace/code-mod-framework/lib/libnx_min/nx/lib\libnx_min.a(detect.o)
                0x000000000001b570                detectIgnoreJitKernelPatch
 *fill*         0x000000000001b5b4        0xc 
 .text.ipcCloseObjectById
                0x000000000001b5c0       0x34 S:/UltimateEnvironment/code-mod-example/param-replace/code-mod-framework/lib/libnx_min/nx/lib\libnx_min.a(apm.o)
 *fill*         0x000000000001b5f4        0xc 
 .text._apmGetSession.constprop.4
                0x000000000001b600      0x124 S:/UltimateEnvironment/code-mod-example/param-replace/code-mod-framework/lib/libnx_min/nx/lib\libnx_min.a(apm.o)
 *fill*         0x000000000001b724        0xc 
 .text.apmExit  0x000000000001b730       0xf0 S:/UltimateEnvironment/code-mod-example/param-replace/code-mod-framework/lib/libnx_min/nx/lib\libnx_min.a(apm.o)
                0x000000000001b730                apmExit
 .text.apmInitialize
                0x000000000001b820       0x70 S:/UltimateEnvironment/code-mod-example/param-replace/code-mod-framework/lib/libnx_min/nx/lib\libnx_min.a(apm.o)
                0x000000000001b820                apmInitialize
 .text.apmSetPerformanceConfiguration
                0x000000000001b890       0xcc S:/UltimateEnvironment/code-mod-example/param-replace/code-mod-framework/lib/libnx_min/nx/lib\libnx_min.a(apm.o)
                0x000000000001b890                apmSetPerformanceConfiguration
 *fill*         0x000000000001b95c        0x4 
 .text.apmGetPerformanceConfiguration
                0x000000000001b960       0xf4 S:/UltimateEnvironment/code-mod-example/param-replace/code-mod-framework/lib/libnx_min/nx/lib\libnx_min.a(apm.o)
                0x000000000001b960                apmGetPerformanceConfiguration
 *fill*         0x000000000001ba54        0x4 
 .text.bsearch  0x000000000001ba58       0xb8 c:/devkitpro/devkita64/bin/../lib/gcc/aarch64-none-elf/8.3.0/../../../../aarch64-none-elf/lib/pic\libg.a(lib_a-bsearch.o)
                0x000000000001ba58                bsearch
 .text.__set_ctype
                0x000000000001bb10       0x10 c:/devkitpro/devkita64/bin/../lib/gcc/aarch64-none-elf/8.3.0/../../../../aarch64-none-elf/lib/pic\libg.a(lib_a-ctype_.o)
                0x000000000001bb10                __set_ctype
 .text.__errno  0x000000000001bb20       0x14 c:/devkitpro/devkita64/bin/../lib/gcc/aarch64-none-elf/8.3.0/../../../../aarch64-none-elf/lib/pic\libg.a(lib_a-errno.o)
                0x000000000001bb20                __errno
 *fill*         0x000000000001bb34        0x4 
 .text.__libc_fini_array
                0x000000000001bb38       0x44 c:/devkitpro/devkita64/bin/../lib/gcc/aarch64-none-elf/8.3.0/../../../../aarch64-none-elf/lib/pic\libg.a(lib_a-fini.o)
                0x000000000001bb38                __libc_fini_array
 *fill*         0x000000000001bb7c        0x4 
 .text.__libc_init_array
                0x000000000001bb80       0x8c c:/devkitpro/devkita64/bin/../lib/gcc/aarch64-none-elf/8.3.0/../../../../aarch64-none-elf/lib/pic\libg.a(lib_a-init.o)
                0x000000000001bb80                __libc_init_array
 *fill*         0x000000000001bc0c        0x4 
 .text.memalign
                0x000000000001bc10       0x30 c:/devkitpro/devkita64/bin/../lib/gcc/aarch64-none-elf/8.3.0/../../../../aarch64-none-elf/lib/pic\libg.a(lib_a-malign.o)
                0x000000000001bc10                memalign
 .text._memalign_r
                0x000000000001bc40      0x198 c:/devkitpro/devkita64/bin/../lib/gcc/aarch64-none-elf/8.3.0/../../../../aarch64-none-elf/lib/pic\libg.a(lib_a-malignr.o)
                0x000000000001bc40                _memalign_r
 .text.malloc   0x000000000001bdd8       0x1c c:/devkitpro/devkita64/bin/../lib/gcc/aarch64-none-elf/8.3.0/../../../../aarch64-none-elf/lib/pic\libg.a(lib_a-malloc.o)
                0x000000000001bdd8                malloc
 *fill*         0x000000000001bdf4        0x4 
 .text.free     0x000000000001bdf8       0x1c c:/devkitpro/devkita64/bin/../lib/gcc/aarch64-none-elf/8.3.0/../../../../aarch64-none-elf/lib/pic\libg.a(lib_a-malloc.o)
                0x000000000001bdf8                free
 *fill*         0x000000000001be14        0x4 
 .text._malloc_r
                0x000000000001be18      0x87c c:/devkitpro/devkita64/bin/../lib/gcc/aarch64-none-elf/8.3.0/../../../../aarch64-none-elf/lib/pic\libg.a(lib_a-mallocr.o)
                0x000000000001be18                _malloc_r
 *fill*         0x000000000001c694       0x2c 
 .text          0x000000000001c6c0      0x16c c:/devkitpro/devkita64/bin/../lib/gcc/aarch64-none-elf/8.3.0/../../../../aarch64-none-elf/lib/pic\libg.a(lib_a-memcpy.o)
                0x000000000001c6c0                memcpy
 *fill*         0x000000000001c82c       0x14 
 .text          0x000000000001c840      0x1dc c:/devkitpro/devkita64/bin/../lib/gcc/aarch64-none-elf/8.3.0/../../../../aarch64-none-elf/lib/pic\libg.a(lib_a-memset.o)
                0x000000000001c840                memset
 *fill*         0x000000000001ca1c        0x4 
 .text.__malloc_lock
                0x000000000001ca20        0xc c:/devkitpro/devkita64/bin/../lib/gcc/aarch64-none-elf/8.3.0/../../../../aarch64-none-elf/lib/pic\libg.a(lib_a-mlock.o)
                0x000000000001ca20                __malloc_lock
 *fill*         0x000000000001ca2c        0x4 
 .text.__malloc_unlock
                0x000000000001ca30        0xc c:/devkitpro/devkita64/bin/../lib/gcc/aarch64-none-elf/8.3.0/../../../../aarch64-none-elf/lib/pic\libg.a(lib_a-mlock.o)
                0x000000000001ca30                __malloc_unlock
 *fill*         0x000000000001ca3c        0x4 
 .text.setenv   0x000000000001ca40       0x3c c:/devkitpro/devkita64/bin/../lib/gcc/aarch64-none-elf/8.3.0/../../../../aarch64-none-elf/lib/pic\libg.a(lib_a-setenv.o)
                0x000000000001ca40                setenv
 *fill*         0x000000000001ca7c        0x4 
 .text.unsetenv
                0x000000000001ca80       0x1c c:/devkitpro/devkita64/bin/../lib/gcc/aarch64-none-elf/8.3.0/../../../../aarch64-none-elf/lib/pic\libg.a(lib_a-setenv.o)
                0x000000000001ca80                unsetenv
 *fill*         0x000000000001ca9c        0x4 
 .text._setenv_r
                0x000000000001caa0      0x264 c:/devkitpro/devkita64/bin/../lib/gcc/aarch64-none-elf/8.3.0/../../../../aarch64-none-elf/lib/pic\libg.a(lib_a-setenv_r.o)
                0x000000000001caa0                _setenv_r
 *fill*         0x000000000001cd04        0x4 
 .text._unsetenv_r
                0x000000000001cd08       0xd4 c:/devkitpro/devkita64/bin/../lib/gcc/aarch64-none-elf/8.3.0/../../../../aarch64-none-elf/lib/pic\libg.a(lib_a-setenv_r.o)
                0x000000000001cd08                _unsetenv_r
 .text          0x000000000001cddc       0xdc c:/devkitpro/devkita64/bin/../lib/gcc/aarch64-none-elf/8.3.0/../../../../aarch64-none-elf/lib/pic\libg.a(lib_a-strchr.o)
                0x000000000001cddc                strchr
 *fill*         0x000000000001ceb8        0x8 
 .text          0x000000000001cec0      0x1b8 c:/devkitpro/devkita64/bin/../lib/gcc/aarch64-none-elf/8.3.0/../../../../aarch64-none-elf/lib/pic\libg.a(lib_a-strcpy.o)
                0x000000000001cec0                strcpy
 *fill*         0x000000000001d078        0x8 
 .text          0x000000000001d080      0x140 c:/devkitpro/devkita64/bin/../lib/gcc/aarch64-none-elf/8.3.0/../../../../aarch64-none-elf/lib/pic\libg.a(lib_a-strlen.o)
                0x000000000001d080                strlen
 .text.strncat  0x000000000001d1c0       0x84 c:/devkitpro/devkita64/bin/../lib/gcc/aarch64-none-elf/8.3.0/../../../../aarch64-none-elf/lib/pic\libg.a(lib_a-strncat.o)
                0x000000000001d1c0                strncat
 *fill*         0x000000000001d244       0x3c 
 .text          0x000000000001d280      0x1d4 c:/devkitpro/devkita64/bin/../lib/gcc/aarch64-none-elf/8.3.0/../../../../aarch64-none-elf/lib/pic\libg.a(lib_a-strncmp.o)
                0x000000000001d29c                strncmp
 *fill*         0x000000000001d454        0x4 
 .text.strncpy  0x000000000001d458       0xa8 c:/devkitpro/devkita64/bin/../lib/gcc/aarch64-none-elf/8.3.0/../../../../aarch64-none-elf/lib/pic\libg.a(lib_a-strncpy.o)
                0x000000000001d458                strncpy
 .text          0x000000000001d500       0xe0 c:/devkitpro/devkita64/bin/../lib/gcc/aarch64-none-elf/8.3.0/../../../../aarch64-none-elf/lib/pic\libg.a(lib_a-strnlen.o)
                0x000000000001d524                strnlen
 .text.toupper  0x000000000001d5e0       0x24 c:/devkitpro/devkita64/bin/../lib/gcc/aarch64-none-elf/8.3.0/../../../../aarch64-none-elf/lib/pic\libg.a(lib_a-toupper.o)
                0x000000000001d5e0                toupper
 *fill*         0x000000000001d604        0x4 
 .text._vsnprintf_r
                0x000000000001d608       0xe0 c:/devkitpro/devkita64/bin/../lib/gcc/aarch64-none-elf/8.3.0/../../../../aarch64-none-elf/lib/pic\libg.a(lib_a-vsnprintf.o)
                0x000000000001d608                _vsnprintf_r
 .text.vsnprintf
                0x000000000001d6e8       0x50 c:/devkitpro/devkita64/bin/../lib/gcc/aarch64-none-elf/8.3.0/../../../../aarch64-none-elf/lib/pic\libg.a(lib_a-vsnprintf.o)
                0x000000000001d6e8                vsnprintf
 .text.__call_exitprocs
                0x000000000001d738      0x124 c:/devkitpro/devkita64/bin/../lib/gcc/aarch64-none-elf/8.3.0/../../../../aarch64-none-elf/lib/pic\libg.a(lib_a-__call_atexit.o)
                0x000000000001d738                __call_exitprocs
 *fill*         0x000000000001d85c        0x4 
 .text.__env_lock
                0x000000000001d860        0xc c:/devkitpro/devkita64/bin/../lib/gcc/aarch64-none-elf/8.3.0/../../../../aarch64-none-elf/lib/pic\libg.a(lib_a-envlock.o)
                0x000000000001d860                __env_lock
 *fill*         0x000000000001d86c        0x4 
 .text.__env_unlock
                0x000000000001d870        0xc c:/devkitpro/devkita64/bin/../lib/gcc/aarch64-none-elf/8.3.0/../../../../aarch64-none-elf/lib/pic\libg.a(lib_a-envlock.o)
                0x000000000001d870                __env_unlock
 *fill*         0x000000000001d87c        0x4 
 .text._malloc_trim_r
                0x000000000001d880      0x118 c:/devkitpro/devkita64/bin/../lib/gcc/aarch64-none-elf/8.3.0/../../../../aarch64-none-elf/lib/pic\libg.a(lib_a-freer.o)
                0x000000000001d880                _malloc_trim_r
 .text._free_r  0x000000000001d998      0x2f4 c:/devkitpro/devkita64/bin/../lib/gcc/aarch64-none-elf/8.3.0/../../../../aarch64-none-elf/lib/pic\libg.a(lib_a-freer.o)
                0x000000000001d998                _free_r
 *fill*         0x000000000001dc8c        0x4 
 .text._findenv_r
                0x000000000001dc90      0x100 c:/devkitpro/devkita64/bin/../lib/gcc/aarch64-none-elf/8.3.0/../../../../aarch64-none-elf/lib/pic\libg.a(lib_a-getenv_r.o)
                0x000000000001dc90                _findenv_r
 .text._getenv_r
                0x000000000001dd90       0x18 c:/devkitpro/devkita64/bin/../lib/gcc/aarch64-none-elf/8.3.0/../../../../aarch64-none-elf/lib/pic\libg.a(lib_a-getenv_r.o)
                0x000000000001dd90                _getenv_r
 .text._realloc_r
                0x000000000001dda8      0x56c c:/devkitpro/devkita64/bin/../lib/gcc/aarch64-none-elf/8.3.0/../../../../aarch64-none-elf/lib/pic\libg.a(lib_a-reallocr.o)
                0x000000000001dda8                _realloc_r
 .text.get_arg  0x000000000001e314      0x76c c:/devkitpro/devkita64/bin/../lib/gcc/aarch64-none-elf/8.3.0/../../../../aarch64-none-elf/lib/pic\libg.a(lib_a-svfprintf.o)
 .text._svfprintf_r
                0x000000000001ea80     0x3b38 c:/devkitpro/devkita64/bin/../lib/gcc/aarch64-none-elf/8.3.0/../../../../aarch64-none-elf/lib/pic\libg.a(lib_a-svfprintf.o)
                0x000000000001ea80                _svfprintf_r
 .text._wcrtomb_r
                0x00000000000225b8       0xd0 c:/devkitpro/devkita64/bin/../lib/gcc/aarch64-none-elf/8.3.0/../../../../aarch64-none-elf/lib/pic\libg.a(lib_a-wcrtomb.o)
                0x00000000000225b8                _wcrtomb_r
 .text.wcrtomb  0x0000000000022688       0xdc c:/devkitpro/devkita64/bin/../lib/gcc/aarch64-none-elf/8.3.0/../../../../aarch64-none-elf/lib/pic\libg.a(lib_a-wcrtomb.o)
                0x0000000000022688                wcrtomb
 *fill*         0x0000000000022764        0x4 
 .text._wcsrtombs_r
                0x0000000000022768       0x10 c:/devkitpro/devkita64/bin/../lib/gcc/aarch64-none-elf/8.3.0/../../../../aarch64-none-elf/lib/pic\libg.a(lib_a-wcsrtombs.o)
                0x0000000000022768                _wcsrtombs_r
 .text.wcsrtombs
                0x0000000000022778       0x44 c:/devkitpro/devkita64/bin/../lib/gcc/aarch64-none-elf/8.3.0/../../../../aarch64-none-elf/lib/pic\libg.a(lib_a-wcsrtombs.o)
                0x0000000000022778                wcsrtombs
 *fill*         0x00000000000227bc        0x4 
 .text.quorem   0x00000000000227c0      0x1a8 c:/devkitpro/devkita64/bin/../lib/gcc/aarch64-none-elf/8.3.0/../../../../aarch64-none-elf/lib/pic\libg.a(lib_a-dtoa.o)
 .text._dtoa_r  0x0000000000022968     0x10dc c:/devkitpro/devkita64/bin/../lib/gcc/aarch64-none-elf/8.3.0/../../../../aarch64-none-elf/lib/pic\libg.a(lib_a-dtoa.o)
                0x0000000000022968                _dtoa_r
 *fill*         0x0000000000023a44        0x4 
 .text.__localeconv_l
                0x0000000000023a48        0x8 c:/devkitpro/devkita64/bin/../lib/gcc/aarch64-none-elf/8.3.0/../../../../aarch64-none-elf/lib/pic\libg.a(lib_a-localeconv.o)
                0x0000000000023a48                __localeconv_l
 .text._localeconv_r
                0x0000000000023a50       0x28 c:/devkitpro/devkita64/bin/../lib/gcc/aarch64-none-elf/8.3.0/../../../../aarch64-none-elf/lib/pic\libg.a(lib_a-localeconv.o)
                0x0000000000023a50                _localeconv_r
 .text.localeconv
                0x0000000000023a78       0x28 c:/devkitpro/devkita64/bin/../lib/gcc/aarch64-none-elf/8.3.0/../../../../aarch64-none-elf/lib/pic\libg.a(lib_a-localeconv.o)
                0x0000000000023a78                localeconv
 .text.currentlocale
                0x0000000000023aa0       0xb8 c:/devkitpro/devkita64/bin/../lib/gcc/aarch64-none-elf/8.3.0/../../../../aarch64-none-elf/lib/pic\libg.a(lib_a-locale.o)
 .text.__loadlocale
                0x0000000000023b58      0x7a8 c:/devkitpro/devkita64/bin/../lib/gcc/aarch64-none-elf/8.3.0/../../../../aarch64-none-elf/lib/pic\libg.a(lib_a-locale.o)
                0x0000000000023b58                __loadlocale
 .text.__get_locale_env
                0x0000000000024300       0x88 c:/devkitpro/devkita64/bin/../lib/gcc/aarch64-none-elf/8.3.0/../../../../aarch64-none-elf/lib/pic\libg.a(lib_a-locale.o)
                0x0000000000024300                __get_locale_env
 .text._setlocale_r
                0x0000000000024388      0x3a4 c:/devkitpro/devkita64/bin/../lib/gcc/aarch64-none-elf/8.3.0/../../../../aarch64-none-elf/lib/pic\libg.a(lib_a-locale.o)
                0x0000000000024388                _setlocale_r
 *fill*         0x000000000002472c        0x4 
 .text.__locale_mb_cur_max
                0x0000000000024730       0x2c c:/devkitpro/devkita64/bin/../lib/gcc/aarch64-none-elf/8.3.0/../../../../aarch64-none-elf/lib/pic\libg.a(lib_a-locale.o)
                0x0000000000024730                __locale_mb_cur_max
 *fill*         0x000000000002475c        0x4 
 .text.setlocale
                0x0000000000024760       0x30 c:/devkitpro/devkita64/bin/../lib/gcc/aarch64-none-elf/8.3.0/../../../../aarch64-none-elf/lib/pic\libg.a(lib_a-locale.o)
                0x0000000000024760                setlocale
 .text._mbtowc_r
                0x0000000000024790       0x4c c:/devkitpro/devkita64/bin/../lib/gcc/aarch64-none-elf/8.3.0/../../../../aarch64-none-elf/lib/pic\libg.a(lib_a-mbtowc_r.o)
                0x0000000000024790                _mbtowc_r
 *fill*         0x00000000000247dc        0x4 
 .text.__ascii_mbtowc
                0x00000000000247e0       0x48 c:/devkitpro/devkita64/bin/../lib/gcc/aarch64-none-elf/8.3.0/../../../../aarch64-none-elf/lib/pic\libg.a(lib_a-mbtowc_r.o)
                0x00000000000247e0                __ascii_mbtowc
 .text.__utf8_mbtowc
                0x0000000000024828      0x2c8 c:/devkitpro/devkita64/bin/../lib/gcc/aarch64-none-elf/8.3.0/../../../../aarch64-none-elf/lib/pic\libg.a(lib_a-mbtowc_r.o)
                0x0000000000024828                __utf8_mbtowc
 .text.__sjis_mbtowc
                0x0000000000024af0       0xcc c:/devkitpro/devkita64/bin/../lib/gcc/aarch64-none-elf/8.3.0/../../../../aarch64-none-elf/lib/pic\libg.a(lib_a-mbtowc_r.o)
                0x0000000000024af0                __sjis_mbtowc
 *fill*         0x0000000000024bbc        0x4 
 .text.__eucjp_mbtowc
                0x0000000000024bc0      0x120 c:/devkitpro/devkita64/bin/../lib/gcc/aarch64-none-elf/8.3.0/../../../../aarch64-none-elf/lib/pic\libg.a(lib_a-mbtowc_r.o)
                0x0000000000024bc0                __eucjp_mbtowc
 .text.__jis_mbtowc
                0x0000000000024ce0      0x1d4 c:/devkitpro/devkita64/bin/../lib/gcc/aarch64-none-elf/8.3.0/../../../../aarch64-none-elf/lib/pic\libg.a(lib_a-mbtowc_r.o)
                0x0000000000024ce0                __jis_mbtowc
 .text          0x0000000000024eb4       0xd8 c:/devkitpro/devkita64/bin/../lib/gcc/aarch64-none-elf/8.3.0/../../../../aarch64-none-elf/lib/pic\libg.a(lib_a-memchr.o)
                0x0000000000024eb4                memchr
 *fill*         0x0000000000024f8c       0x34 
 .text          0x0000000000024fc0       0xac c:/devkitpro/devkita64/bin/../lib/gcc/aarch64-none-elf/8.3.0/../../../../aarch64-none-elf/lib/pic\libg.a(lib_a-memmove.o)
                0x0000000000024fc0                memmove
 *fill*         0x000000000002506c        0x4 
 .text._Balloc  0x0000000000025070       0x90 c:/devkitpro/devkita64/bin/../lib/gcc/aarch64-none-elf/8.3.0/../../../../aarch64-none-elf/lib/pic\libg.a(lib_a-mprec.o)
                0x0000000000025070                _Balloc
 .text._Bfree   0x0000000000025100       0x1c c:/devkitpro/devkita64/bin/../lib/gcc/aarch64-none-elf/8.3.0/../../../../aarch64-none-elf/lib/pic\libg.a(lib_a-mprec.o)
                0x0000000000025100                _Bfree
 *fill*         0x000000000002511c        0x4 
 .text.__multadd
                0x0000000000025120       0xe8 c:/devkitpro/devkita64/bin/../lib/gcc/aarch64-none-elf/8.3.0/../../../../aarch64-none-elf/lib/pic\libg.a(lib_a-mprec.o)
                0x0000000000025120                __multadd
 .text.__s2b    0x0000000000025208      0x120 c:/devkitpro/devkita64/bin/../lib/gcc/aarch64-none-elf/8.3.0/../../../../aarch64-none-elf/lib/pic\libg.a(lib_a-mprec.o)
                0x0000000000025208                __s2b
 .text.__hi0bits
                0x0000000000025328       0x5c c:/devkitpro/devkita64/bin/../lib/gcc/aarch64-none-elf/8.3.0/../../../../aarch64-none-elf/lib/pic\libg.a(lib_a-mprec.o)
                0x0000000000025328                __hi0bits
 *fill*         0x0000000000025384        0x4 
 .text.__lo0bits
                0x0000000000025388       0xa0 c:/devkitpro/devkita64/bin/../lib/gcc/aarch64-none-elf/8.3.0/../../../../aarch64-none-elf/lib/pic\libg.a(lib_a-mprec.o)
                0x0000000000025388                __lo0bits
 .text.__i2b    0x0000000000025428       0x2c c:/devkitpro/devkita64/bin/../lib/gcc/aarch64-none-elf/8.3.0/../../../../aarch64-none-elf/lib/pic\libg.a(lib_a-mprec.o)
                0x0000000000025428                __i2b
 *fill*         0x0000000000025454        0x4 
 .text.__multiply
                0x0000000000025458      0x1c8 c:/devkitpro/devkita64/bin/../lib/gcc/aarch64-none-elf/8.3.0/../../../../aarch64-none-elf/lib/pic\libg.a(lib_a-mprec.o)
                0x0000000000025458                __multiply
 .text.__pow5mult
                0x0000000000025620      0x104 c:/devkitpro/devkita64/bin/../lib/gcc/aarch64-none-elf/8.3.0/../../../../aarch64-none-elf/lib/pic\libg.a(lib_a-mprec.o)
                0x0000000000025620                __pow5mult
 *fill*         0x0000000000025724        0x4 
 .text.__lshift
                0x0000000000025728      0x134 c:/devkitpro/devkita64/bin/../lib/gcc/aarch64-none-elf/8.3.0/../../../../aarch64-none-elf/lib/pic\libg.a(lib_a-mprec.o)
                0x0000000000025728                __lshift
 *fill*         0x000000000002585c        0x4 
 .text.__mcmp   0x0000000000025860       0x50 c:/devkitpro/devkita64/bin/../lib/gcc/aarch64-none-elf/8.3.0/../../../../aarch64-none-elf/lib/pic\libg.a(lib_a-mprec.o)
                0x0000000000025860                __mcmp
 .text.__mdiff  0x00000000000258b0      0x14c c:/devkitpro/devkita64/bin/../lib/gcc/aarch64-none-elf/8.3.0/../../../../aarch64-none-elf/lib/pic\libg.a(lib_a-mprec.o)
                0x00000000000258b0                __mdiff
 *fill*         0x00000000000259fc        0x4 
 .text.__ulp    0x0000000000025a00       0x68 c:/devkitpro/devkita64/bin/../lib/gcc/aarch64-none-elf/8.3.0/../../../../aarch64-none-elf/lib/pic\libg.a(lib_a-mprec.o)
                0x0000000000025a00                __ulp
 .text.__b2d    0x0000000000025a68      0x150 c:/devkitpro/devkita64/bin/../lib/gcc/aarch64-none-elf/8.3.0/../../../../aarch64-none-elf/lib/pic\libg.a(lib_a-mprec.o)
                0x0000000000025a68                __b2d
 .text.__d2b    0x0000000000025bb8      0x138 c:/devkitpro/devkita64/bin/../lib/gcc/aarch64-none-elf/8.3.0/../../../../aarch64-none-elf/lib/pic\libg.a(lib_a-mprec.o)
                0x0000000000025bb8                __d2b
 .text.__ratio  0x0000000000025cf0       0xa0 c:/devkitpro/devkita64/bin/../lib/gcc/aarch64-none-elf/8.3.0/../../../../aarch64-none-elf/lib/pic\libg.a(lib_a-mprec.o)
                0x0000000000025cf0                __ratio
 .text._mprec_log10
                0x0000000000025d90       0x30 c:/devkitpro/devkita64/bin/../lib/gcc/aarch64-none-elf/8.3.0/../../../../aarch64-none-elf/lib/pic\libg.a(lib_a-mprec.o)
                0x0000000000025d90                _mprec_log10
 .text.__copybits
                0x0000000000025dc0       0x68 c:/devkitpro/devkita64/bin/../lib/gcc/aarch64-none-elf/8.3.0/../../../../aarch64-none-elf/lib/pic\libg.a(lib_a-mprec.o)
                0x0000000000025dc0                __copybits
 .text.__any_on
                0x0000000000025e28       0x84 c:/devkitpro/devkita64/bin/../lib/gcc/aarch64-none-elf/8.3.0/../../../../aarch64-none-elf/lib/pic\libg.a(lib_a-mprec.o)
                0x0000000000025e28                __any_on
 *fill*         0x0000000000025eac        0x4 
 .text.frexp    0x0000000000025eb0       0x7c c:/devkitpro/devkita64/bin/../lib/gcc/aarch64-none-elf/8.3.0/../../../../aarch64-none-elf/lib/pic\libg.a(lib_a-s_frexp.o)
                0x0000000000025eb0                frexp
 *fill*         0x0000000000025f2c        0x4 
 .text.strcasecmp
                0x0000000000025f30       0x78 c:/devkitpro/devkita64/bin/../lib/gcc/aarch64-none-elf/8.3.0/../../../../aarch64-none-elf/lib/pic\libg.a(lib_a-strcasecmp.o)
                0x0000000000025f30                strcasecmp
 .text.strcat   0x0000000000025fa8       0x74 c:/devkitpro/devkita64/bin/../lib/gcc/aarch64-none-elf/8.3.0/../../../../aarch64-none-elf/lib/pic\libg.a(lib_a-strcat.o)
                0x0000000000025fa8                strcat
 *fill*         0x000000000002601c       0x24 
 .text          0x0000000000026040       0xe4 c:/devkitpro/devkita64/bin/../lib/gcc/aarch64-none-elf/8.3.0/../../../../aarch64-none-elf/lib/pic\libg.a(lib_a-strcmp.o)
                0x0000000000026040                strcmp
 *fill*         0x0000000000026124        0x4 
 .text.strlcpy  0x0000000000026128       0x54 c:/devkitpro/devkita64/bin/../lib/gcc/aarch64-none-elf/8.3.0/../../../../aarch64-none-elf/lib/pic\libg.a(lib_a-strlcpy.o)
                0x0000000000026128                strlcpy
 *fill*         0x000000000002617c        0x4 
 .text.strncasecmp
                0x0000000000026180       0x8c c:/devkitpro/devkita64/bin/../lib/gcc/aarch64-none-elf/8.3.0/../../../../aarch64-none-elf/lib/pic\libg.a(lib_a-strncasecmp.o)
                0x0000000000026180                strncasecmp
 *fill*         0x000000000002620c        0x4 
 .text._strtol_l.isra.0
                0x0000000000026210      0x1a0 c:/devkitpro/devkita64/bin/../lib/gcc/aarch64-none-elf/8.3.0/../../../../aarch64-none-elf/lib/pic\libg.a(lib_a-strtol.o)
 .text._strtol_r
                0x00000000000263b0       0x34 c:/devkitpro/devkita64/bin/../lib/gcc/aarch64-none-elf/8.3.0/../../../../aarch64-none-elf/lib/pic\libg.a(lib_a-strtol.o)
                0x00000000000263b0                _strtol_r
 *fill*         0x00000000000263e4        0x4 
 .text.strtol_l
                0x00000000000263e8       0x3c c:/devkitpro/devkita64/bin/../lib/gcc/aarch64-none-elf/8.3.0/../../../../aarch64-none-elf/lib/pic\libg.a(lib_a-strtol.o)
                0x00000000000263e8                strtol_l
 *fill*         0x0000000000026424        0x4 
 .text.strtol   0x0000000000026428       0x48 c:/devkitpro/devkita64/bin/../lib/gcc/aarch64-none-elf/8.3.0/../../../../aarch64-none-elf/lib/pic\libg.a(lib_a-strtol.o)
                0x0000000000026428                strtol
 .text.get_arg  0x0000000000026470      0x76c c:/devkitpro/devkita64/bin/../lib/gcc/aarch64-none-elf/8.3.0/../../../../aarch64-none-elf/lib/pic\libg.a(lib_a-svfiprintf.o)
 .text.__ssprint_r
                0x0000000000026bdc      0x1c0 c:/devkitpro/devkita64/bin/../lib/gcc/aarch64-none-elf/8.3.0/../../../../aarch64-none-elf/lib/pic\libg.a(lib_a-svfiprintf.o)
                0x0000000000026bdc                __ssprint_r
 .text._svfiprintf_r
                0x0000000000026d9c     0x28ec c:/devkitpro/devkita64/bin/../lib/gcc/aarch64-none-elf/8.3.0/../../../../aarch64-none-elf/lib/pic\libg.a(lib_a-svfiprintf.o)
                0x0000000000026d9c                _svfiprintf_r
 .text._wcsnrtombs_l
                0x0000000000029688      0x1dc c:/devkitpro/devkita64/bin/../lib/gcc/aarch64-none-elf/8.3.0/../../../../aarch64-none-elf/lib/pic\libg.a(lib_a-wcsnrtombs.o)
                0x0000000000029688                _wcsnrtombs_l
 *fill*         0x0000000000029864        0x4 
 .text._wcsnrtombs_r
                0x0000000000029868       0x54 c:/devkitpro/devkita64/bin/../lib/gcc/aarch64-none-elf/8.3.0/../../../../aarch64-none-elf/lib/pic\libg.a(lib_a-wcsnrtombs.o)
                0x0000000000029868                _wcsnrtombs_r
 *fill*         0x00000000000298bc        0x4 
 .text.wcsnrtombs
                0x00000000000298c0       0x64 c:/devkitpro/devkita64/bin/../lib/gcc/aarch64-none-elf/8.3.0/../../../../aarch64-none-elf/lib/pic\libg.a(lib_a-wcsnrtombs.o)
                0x00000000000298c0                wcsnrtombs
 *fill*         0x0000000000029924        0x4 
 .text._wctomb_r
                0x0000000000029928       0x54 c:/devkitpro/devkita64/bin/../lib/gcc/aarch64-none-elf/8.3.0/../../../../aarch64-none-elf/lib/pic\libg.a(lib_a-wctomb_r.o)
                0x0000000000029928                _wctomb_r
 *fill*         0x000000000002997c        0x4 
 .text.__ascii_wctomb
                0x0000000000029980       0x34 c:/devkitpro/devkita64/bin/../lib/gcc/aarch64-none-elf/8.3.0/../../../../aarch64-none-elf/lib/pic\libg.a(lib_a-wctomb_r.o)
                0x0000000000029980                __ascii_wctomb
 *fill*         0x00000000000299b4        0x4 
 .text.__utf8_wctomb
                0x00000000000299b8       0xe4 c:/devkitpro/devkita64/bin/../lib/gcc/aarch64-none-elf/8.3.0/../../../../aarch64-none-elf/lib/pic\libg.a(lib_a-wctomb_r.o)
                0x00000000000299b8                __utf8_wctomb
 *fill*         0x0000000000029a9c        0x4 
 .text.__sjis_wctomb
                0x0000000000029aa0       0x84 c:/devkitpro/devkita64/bin/../lib/gcc/aarch64-none-elf/8.3.0/../../../../aarch64-none-elf/lib/pic\libg.a(lib_a-wctomb_r.o)
                0x0000000000029aa0                __sjis_wctomb
 *fill*         0x0000000000029b24        0x4 
 .text.__eucjp_wctomb
                0x0000000000029b28       0xa8 c:/devkitpro/devkita64/bin/../lib/gcc/aarch64-none-elf/8.3.0/../../../../aarch64-none-elf/lib/pic\libg.a(lib_a-wctomb_r.o)
                0x0000000000029b28                __eucjp_wctomb
 .text.__jis_wctomb
                0x0000000000029bd0       0xbc c:/devkitpro/devkita64/bin/../lib/gcc/aarch64-none-elf/8.3.0/../../../../aarch64-none-elf/lib/pic\libg.a(lib_a-wctomb_r.o)
                0x0000000000029bd0                __jis_wctomb
 *fill*         0x0000000000029c8c        0x4 
 .text._calloc_r
                0x0000000000029c90       0x94 c:/devkitpro/devkita64/bin/../lib/gcc/aarch64-none-elf/8.3.0/../../../../aarch64-none-elf/lib/pic\libg.a(lib_a-callocr.o)
                0x0000000000029c90                _calloc_r
 *fill*         0x0000000000029d24        0x4 
 .text.null_write
                0x0000000000029d28        0x8 c:/devkitpro/devkita64/bin/../lib/gcc/aarch64-none-elf/8.3.0/../../../../aarch64-none-elf/lib/pic\libsysbase.a(iosupport.o)
 .text.setDefaultDevice
                0x0000000000029d30       0x18 c:/devkitpro/devkita64/bin/../lib/gcc/aarch64-none-elf/8.3.0/../../../../aarch64-none-elf/lib/pic\libsysbase.a(iosupport.o)
                0x0000000000029d30                setDefaultDevice
 .text.FindDevice
                0x0000000000029d48      0x108 c:/devkitpro/devkita64/bin/../lib/gcc/aarch64-none-elf/8.3.0/../../../../aarch64-none-elf/lib/pic\libsysbase.a(iosupport.o)
                0x0000000000029d48                FindDevice
 .text.RemoveDevice
                0x0000000000029e50       0x34 c:/devkitpro/devkita64/bin/../lib/gcc/aarch64-none-elf/8.3.0/../../../../aarch64-none-elf/lib/pic\libsysbase.a(iosupport.o)
                0x0000000000029e50                RemoveDevice
 *fill*         0x0000000000029e84        0x4 
 .text.AddDevice
                0x0000000000029e88       0xd8 c:/devkitpro/devkita64/bin/../lib/gcc/aarch64-none-elf/8.3.0/../../../../aarch64-none-elf/lib/pic\libsysbase.a(iosupport.o)
                0x0000000000029e88                AddDevice
 .text.GetDeviceOpTab
                0x0000000000029f60       0x34 c:/devkitpro/devkita64/bin/../lib/gcc/aarch64-none-elf/8.3.0/../../../../aarch64-none-elf/lib/pic\libsysbase.a(iosupport.o)
                0x0000000000029f60                GetDeviceOpTab
 *fill*         0x0000000000029f94        0x4 
 .text._sbrk_r  0x0000000000029f98       0x78 c:/devkitpro/devkita64/bin/../lib/gcc/aarch64-none-elf/8.3.0/../../../../aarch64-none-elf/lib/pic\libsysbase.a(sbrk.o)
                0x0000000000029f98                _sbrk_r
 .text._exit    0x000000000002a010       0x20 c:/devkitpro/devkita64/bin/../lib/gcc/aarch64-none-elf/8.3.0/../../../../aarch64-none-elf/lib/pic\libsysbase.a(_exit.o)
                0x000000000002a010                _exit
 .text._concatenate_path
                0x000000000002a030      0x234 c:/devkitpro/devkita64/bin/../lib/gcc/aarch64-none-elf/8.3.0/../../../../aarch64-none-elf/lib/pic\libsysbase.a(chdir.o)
                0x000000000002a030                _concatenate_path
 *fill*         0x000000000002a264        0x4 
 .text.chdir    0x000000000002a268      0x178 c:/devkitpro/devkita64/bin/../lib/gcc/aarch64-none-elf/8.3.0/../../../../aarch64-none-elf/lib/pic\libsysbase.a(chdir.o)
                0x000000000002a268                chdir
 .text.getcwd   0x000000000002a3e0       0xb8 c:/devkitpro/devkita64/bin/../lib/gcc/aarch64-none-elf/8.3.0/../../../../aarch64-none-elf/lib/pic\libsysbase.a(chdir.o)
                0x000000000002a3e0                getcwd
 .text.timespec2nsec
                0x000000000002a498       0x14 c:/devkitpro/devkita64/bin/../lib/gcc/aarch64-none-elf/8.3.0/../../../../aarch64-none-elf/lib/pic\libsysbase.a(locks.o)
                0x000000000002a498                timespec2nsec
 *fill*         0x000000000002a4ac        0x4 
 .text.abstimespec2nsec
                0x000000000002a4b0       0xc4 c:/devkitpro/devkita64/bin/../lib/gcc/aarch64-none-elf/8.3.0/../../../../aarch64-none-elf/lib/pic\libsysbase.a(locks.o)
                0x000000000002a4b0                abstimespec2nsec
 *fill*         0x000000000002a574        0x4 
 .text.__libc_lock_init
                0x000000000002a578        0x8 c:/devkitpro/devkita64/bin/../lib/gcc/aarch64-none-elf/8.3.0/../../../../aarch64-none-elf/lib/pic\libsysbase.a(locks.o)
                0x000000000002a578                __libc_lock_init
 .text.__libc_lock_acquire
                0x000000000002a580       0x14 c:/devkitpro/devkita64/bin/../lib/gcc/aarch64-none-elf/8.3.0/../../../../aarch64-none-elf/lib/pic\libsysbase.a(locks.o)
                0x000000000002a580                __libc_lock_acquire
 *fill*         0x000000000002a594        0x4 
 .text.__libc_lock_try_acquire
                0x000000000002a598       0x18 c:/devkitpro/devkita64/bin/../lib/gcc/aarch64-none-elf/8.3.0/../../../../aarch64-none-elf/lib/pic\libsysbase.a(locks.o)
                0x000000000002a598                __libc_lock_try_acquire
 .text.__libc_lock_release
                0x000000000002a5b0       0x14 c:/devkitpro/devkita64/bin/../lib/gcc/aarch64-none-elf/8.3.0/../../../../aarch64-none-elf/lib/pic\libsysbase.a(locks.o)
                0x000000000002a5b0                __libc_lock_release
 *fill*         0x000000000002a5c4        0x4 
 .text.__libc_lock_close
                0x000000000002a5c8        0x4 c:/devkitpro/devkita64/bin/../lib/gcc/aarch64-none-elf/8.3.0/../../../../aarch64-none-elf/lib/pic\libsysbase.a(locks.o)
                0x000000000002a5c8                __libc_lock_close
 *fill*         0x000000000002a5cc        0x4 
 .text.__libc_lock_init_recursive
                0x000000000002a5d0        0xc c:/devkitpro/devkita64/bin/../lib/gcc/aarch64-none-elf/8.3.0/../../../../aarch64-none-elf/lib/pic\libsysbase.a(locks.o)
                0x000000000002a5d0                __libc_lock_init_recursive
 *fill*         0x000000000002a5dc        0x4 
 .text.__libc_lock_acquire_recursive
                0x000000000002a5e0       0x14 c:/devkitpro/devkita64/bin/../lib/gcc/aarch64-none-elf/8.3.0/../../../../aarch64-none-elf/lib/pic\libsysbase.a(locks.o)
                0x000000000002a5e0                __libc_lock_acquire_recursive
 *fill*         0x000000000002a5f4        0x4 
 .text.__libc_lock_try_acquire_recursive
                0x000000000002a5f8       0x18 c:/devkitpro/devkita64/bin/../lib/gcc/aarch64-none-elf/8.3.0/../../../../aarch64-none-elf/lib/pic\libsysbase.a(locks.o)
                0x000000000002a5f8                __libc_lock_try_acquire_recursive
 .text.__libc_lock_release_recursive
                0x000000000002a610       0x14 c:/devkitpro/devkita64/bin/../lib/gcc/aarch64-none-elf/8.3.0/../../../../aarch64-none-elf/lib/pic\libsysbase.a(locks.o)
                0x000000000002a610                __libc_lock_release_recursive
 *fill*         0x000000000002a624        0x4 
 .text.__libc_lock_close_recursive
                0x000000000002a628        0x4 c:/devkitpro/devkita64/bin/../lib/gcc/aarch64-none-elf/8.3.0/../../../../aarch64-none-elf/lib/pic\libsysbase.a(locks.o)
                0x000000000002a628                __libc_lock_close_recursive
 *fill*         0x000000000002a62c        0x4 
 .text.__libc_cond_init
                0x000000000002a630        0xc c:/devkitpro/devkita64/bin/../lib/gcc/aarch64-none-elf/8.3.0/../../../../aarch64-none-elf/lib/pic\libsysbase.a(locks.o)
                0x000000000002a630                __libc_cond_init
 *fill*         0x000000000002a63c        0x4 
 .text.__libc_cond_signal
                0x000000000002a640       0x18 c:/devkitpro/devkita64/bin/../lib/gcc/aarch64-none-elf/8.3.0/../../../../aarch64-none-elf/lib/pic\libsysbase.a(locks.o)
                0x000000000002a640                __libc_cond_signal
 .text.__libc_cond_broadcast
                0x000000000002a658       0x18 c:/devkitpro/devkita64/bin/../lib/gcc/aarch64-none-elf/8.3.0/../../../../aarch64-none-elf/lib/pic\libsysbase.a(locks.o)
                0x000000000002a658                __libc_cond_broadcast
 .text.__libc_cond_wait
                0x000000000002a670       0x18 c:/devkitpro/devkita64/bin/../lib/gcc/aarch64-none-elf/8.3.0/../../../../aarch64-none-elf/lib/pic\libsysbase.a(locks.o)
                0x000000000002a670                __libc_cond_wait
 .text.__libc_cond_wait_recursive
                0x000000000002a688       0x18 c:/devkitpro/devkita64/bin/../lib/gcc/aarch64-none-elf/8.3.0/../../../../aarch64-none-elf/lib/pic\libsysbase.a(locks.o)
                0x000000000002a688                __libc_cond_wait_recursive
 .text.__getreent
                0x000000000002a6a0       0x20 c:/devkitpro/devkita64/bin/../lib/gcc/aarch64-none-elf/8.3.0/../../../../aarch64-none-elf/lib/pic\libsysbase.a(getreent.o)
                0x000000000002a6a0                __getreent
 .text.clock_gettime
                0x000000000002a6c0       0x30 c:/devkitpro/devkita64/bin/../lib/gcc/aarch64-none-elf/8.3.0/../../../../aarch64-none-elf/lib/pic\libsysbase.a(clocks.o)
                0x000000000002a6c0                clock_gettime
 .text.clock_settime
                0x000000000002a6f0       0x30 c:/devkitpro/devkita64/bin/../lib/gcc/aarch64-none-elf/8.3.0/../../../../aarch64-none-elf/lib/pic\libsysbase.a(clocks.o)
                0x000000000002a6f0                clock_settime
 .text.clock_getres
                0x000000000002a720       0x30 c:/devkitpro/devkita64/bin/../lib/gcc/aarch64-none-elf/8.3.0/../../../../aarch64-none-elf/lib/pic\libsysbase.a(clocks.o)
                0x000000000002a720                clock_getres
 .text.__trunctfdf2
                0x000000000002a750      0x348 c:/devkitpro/devkita64/bin/../lib/gcc/aarch64-none-elf/8.3.0/pic\libgcc.a(trunctfdf2.o)
                0x000000000002a750                __trunctfdf2
 .text.__sfp_handle_exceptions
                0x000000000002aa98       0x70 c:/devkitpro/devkita64/bin/../lib/gcc/aarch64-none-elf/8.3.0/pic\libgcc.a(sfp-exceptions.o)
                0x000000000002aa98                __sfp_handle_exceptions
 .text          0x000000000002ab08      0x100 c:/devkitpro/devkita64/bin/../lib/gcc/aarch64-none-elf/8.3.0/../../../../aarch64-none-elf/lib/pic\libg.a(lib_a-strrchr.o)
                0x000000000002ab08                strrchr
                0x000000000002ac08                . = ALIGN (0x8)

.fini           0x000000000002ac08       0x38
 *(.fini)
 .fini          0x000000000002ac08       0x18 c:/devkitpro/devkita64/bin/../lib/gcc/aarch64-none-elf/8.3.0/pic/crti.o
                0x000000000002ac08                _fini
 .fini          0x000000000002ac20       0x1c c:/devkitpro/devkita64/bin/../lib/gcc/aarch64-none-elf/8.3.0/pic/crtn.o
                0x000000000002ac40                . = ALIGN (0x8)
 *fill*         0x000000000002ac3c        0x4 
                0x000000000002b000                . = ALIGN (0x1000)

.rodata         0x000000000002b000     0x1c80
 *(.rodata .rodata.* .gnu.linkonce.r.*)
 .rodata        0x000000000002b000      0x400 main.o
 .rodata.str1.8
                0x000000000002b400      0x6a6 main.o
 *fill*         0x000000000002baa6        0x2 
 .rodata.str1.8
                0x000000000002baa8        0x5 acmd_wrapper.o
 *fill*         0x000000000002baad        0x3 
 .rodata        0x000000000002bab0        0x5 saltysd_helper.o
 *fill*         0x000000000002bab5        0x3 
 .rodata.str1.8
                0x000000000002bab8        0x5 saltysd_helper.o
 *fill*         0x000000000002babd        0x3 
 .rodata        0x000000000002bac0       0x60 lua_bind_hash.o
 .rodata        0x000000000002bb20      0x53c raygun_printer.o
 *fill*         0x000000000002c05c        0x4 
 .rodata.str1.8
                0x000000000002c060      0x147 raygun_printer.o
                                        0x14f (size before relaxing)
 *fill*         0x000000000002c1a7        0x1 
 .rodata._fsdevUnmountDeviceStruct.part.4.str1.8
                0x000000000002c1a8        0x2 S:/UltimateEnvironment/code-mod-example/param-replace/code-mod-framework/lib/libnx_min/nx/lib\libnx_min.a(fs_dev.o)
 *fill*         0x000000000002c1aa        0x6 
 .rodata.error_table
                0x000000000002c1b0       0x20 S:/UltimateEnvironment/code-mod-example/param-replace/code-mod-framework/lib/libnx_min/nx/lib\libnx_min.a(fs_dev.o)
 .rodata.fsdevMountSdmc.str1.8
                0x000000000002c1d0        0x5 S:/UltimateEnvironment/code-mod-example/param-replace/code-mod-framework/lib/libnx_min/nx/lib\libnx_min.a(fs_dev.o)
 *fill*         0x000000000002c1d5        0x3 
 .rodata.fsInitialize.str1.8
                0x000000000002c1d8        0x8 S:/UltimateEnvironment/code-mod-example/param-replace/code-mod-framework/lib/libnx_min/nx/lib\libnx_min.a(fs.o)
 .rodata.setInitialize.str1.8
                0x000000000002c1e0        0x4 S:/UltimateEnvironment/code-mod-example/param-replace/code-mod-framework/lib/libnx_min/nx/lib\libnx_min.a(set.o)
 *fill*         0x000000000002c1e4        0x4 
 .rodata.setsysInitialize.str1.8
                0x000000000002c1e8        0x8 S:/UltimateEnvironment/code-mod-example/param-replace/code-mod-framework/lib/libnx_min/nx/lib\libnx_min.a(set.o)
 .rodata._fatalImpl.str1.8
                0x000000000002c1f0        0x8 S:/UltimateEnvironment/code-mod-example/param-replace/code-mod-framework/lib/libnx_min/nx/lib\libnx_min.a(fatal.o)
 .rodata.smInitialize.str1.8
                0x000000000002c1f8        0x4 S:/UltimateEnvironment/code-mod-example/param-replace/code-mod-framework/lib/libnx_min/nx/lib\libnx_min.a(sm.o)
                                          0x9 (size before relaxing)
 *fill*         0x000000000002c1fc        0x4 
 .rodata        0x000000000002c200       0x24 S:/UltimateEnvironment/code-mod-example/param-replace/code-mod-framework/lib/libnx_min/nx/lib\libnx_min.a(hid.o)
 *fill*         0x000000000002c224        0x4 
 .rodata.hidInitialize.str1.8
                0x000000000002c228        0x4 S:/UltimateEnvironment/code-mod-example/param-replace/code-mod-framework/lib/libnx_min/nx/lib\libnx_min.a(hid.o)
 *fill*         0x000000000002c22c        0x4 
 .rodata.timeInitialize.str1.8
                0x000000000002c230        0xf S:/UltimateEnvironment/code-mod-example/param-replace/code-mod-framework/lib/libnx_min/nx/lib\libnx_min.a(time.o)
 *fill*         0x000000000002c23f        0x1 
 .rodata.CSWTCH.93
                0x000000000002c240       0x14 S:/UltimateEnvironment/code-mod-example/param-replace/code-mod-framework/lib/libnx_min/nx/lib\libnx_min.a(applet.o)
 *fill*         0x000000000002c254        0x4 
 .rodata.appletInitialize.str1.8
                0x000000000002c258       0x19 S:/UltimateEnvironment/code-mod-example/param-replace/code-mod-framework/lib/libnx_min/nx/lib\libnx_min.a(applet.o)
 *fill*         0x000000000002c271        0x7 
 .rodata.__libnx_init_time.str1.8
                0x000000000002c278        0x3 S:/UltimateEnvironment/code-mod-example/param-replace/code-mod-framework/lib/libnx_min/nx/lib\libnx_min.a(newlib.o)
 *fill*         0x000000000002c27b        0x5 
 .rodata.apmInitialize.str1.8
                0x000000000002c280        0x4 S:/UltimateEnvironment/code-mod-example/param-replace/code-mod-framework/lib/libnx_min/nx/lib\libnx_min.a(apm.o)
 *fill*         0x000000000002c284        0x4 
 .rodata._ctype_
                0x000000000002c288      0x101 c:/devkitpro/devkita64/bin/../lib/gcc/aarch64-none-elf/8.3.0/../../../../aarch64-none-elf/lib/pic\libg.a(lib_a-ctype_.o)
                0x000000000002c288                _ctype_
 *fill*         0x000000000002c389        0x3 
 .rodata.get_arg
                0x000000000002c38c       0x92 c:/devkitpro/devkita64/bin/../lib/gcc/aarch64-none-elf/8.3.0/../../../../aarch64-none-elf/lib/pic\libg.a(lib_a-svfprintf.o)
 *fill*         0x000000000002c41e        0x2 
 .rodata._svfprintf_r
                0x000000000002c420       0xb6 c:/devkitpro/devkita64/bin/../lib/gcc/aarch64-none-elf/8.3.0/../../../../aarch64-none-elf/lib/pic\libg.a(lib_a-svfprintf.o)
 .rodata._svfprintf_r.str1.1
                0x000000000002c4d6       0x3b c:/devkitpro/devkita64/bin/../lib/gcc/aarch64-none-elf/8.3.0/../../../../aarch64-none-elf/lib/pic\libg.a(lib_a-svfprintf.o)
 *fill*         0x000000000002c511        0x7 
 .rodata.blanks.6590
                0x000000000002c518       0x10 c:/devkitpro/devkita64/bin/../lib/gcc/aarch64-none-elf/8.3.0/../../../../aarch64-none-elf/lib/pic\libg.a(lib_a-svfprintf.o)
 .rodata.zeroes.6591
                0x000000000002c528       0x10 c:/devkitpro/devkita64/bin/../lib/gcc/aarch64-none-elf/8.3.0/../../../../aarch64-none-elf/lib/pic\libg.a(lib_a-svfprintf.o)
 .rodata._dtoa_r.cst8
                0x000000000002c538       0x18 c:/devkitpro/devkita64/bin/../lib/gcc/aarch64-none-elf/8.3.0/../../../../aarch64-none-elf/lib/pic\libg.a(lib_a-dtoa.o)
 .rodata._dtoa_r.str1.8
                0x000000000002c550       0x1a c:/devkitpro/devkita64/bin/../lib/gcc/aarch64-none-elf/8.3.0/../../../../aarch64-none-elf/lib/pic\libg.a(lib_a-dtoa.o)
 *fill*         0x000000000002c56a        0x2 
 .rodata.__loadlocale
                0x000000000002c56c       0x6a c:/devkitpro/devkita64/bin/../lib/gcc/aarch64-none-elf/8.3.0/../../../../aarch64-none-elf/lib/pic\libg.a(lib_a-locale.o)
 *fill*         0x000000000002c5d6        0x2 
 .rodata.__get_locale_env.str1.8
                0x000000000002c5d8        0xd c:/devkitpro/devkita64/bin/../lib/gcc/aarch64-none-elf/8.3.0/../../../../aarch64-none-elf/lib/pic\libg.a(lib_a-locale.o)
 *fill*         0x000000000002c5e5        0x3 
 .rodata.__loadlocale.str1.8
                0x000000000002c5e8      0x10b c:/devkitpro/devkita64/bin/../lib/gcc/aarch64-none-elf/8.3.0/../../../../aarch64-none-elf/lib/pic\libg.a(lib_a-locale.o)
                                        0x113 (size before relaxing)
 *fill*         0x000000000002c6f3        0x5 
 .rodata.currentlocale.str1.8
                0x000000000002c6f8        0x2 c:/devkitpro/devkita64/bin/../lib/gcc/aarch64-none-elf/8.3.0/../../../../aarch64-none-elf/lib/pic\libg.a(lib_a-locale.o)
 *fill*         0x000000000002c6fa        0x6 
 .rodata.str1.8
                0x000000000002c700       0x5c c:/devkitpro/devkita64/bin/../lib/gcc/aarch64-none-elf/8.3.0/../../../../aarch64-none-elf/lib/pic\libg.a(lib_a-locale.o)
                                         0x64 (size before relaxing)
 *fill*         0x000000000002c75c        0x4 
 .rodata.JIS_action_table
                0x000000000002c760       0x48 c:/devkitpro/devkita64/bin/../lib/gcc/aarch64-none-elf/8.3.0/../../../../aarch64-none-elf/lib/pic\libg.a(lib_a-mbtowc_r.o)
 .rodata.JIS_state_table
                0x000000000002c7a8       0x48 c:/devkitpro/devkita64/bin/../lib/gcc/aarch64-none-elf/8.3.0/../../../../aarch64-none-elf/lib/pic\libg.a(lib_a-mbtowc_r.o)
 .rodata.__mprec_bigtens
                0x000000000002c7f0       0x28 c:/devkitpro/devkita64/bin/../lib/gcc/aarch64-none-elf/8.3.0/../../../../aarch64-none-elf/lib/pic\libg.a(lib_a-mprec.o)
                0x000000000002c7f0                __mprec_bigtens
 .rodata.__mprec_tens
                0x000000000002c818       0xc8 c:/devkitpro/devkita64/bin/../lib/gcc/aarch64-none-elf/8.3.0/../../../../aarch64-none-elf/lib/pic\libg.a(lib_a-mprec.o)
                0x000000000002c818                __mprec_tens
 .rodata.__mprec_tinytens
                0x000000000002c8e0       0x28 c:/devkitpro/devkita64/bin/../lib/gcc/aarch64-none-elf/8.3.0/../../../../aarch64-none-elf/lib/pic\libg.a(lib_a-mprec.o)
                0x000000000002c8e0                __mprec_tinytens
 .rodata.p05.5339
                0x000000000002c908        0xc c:/devkitpro/devkita64/bin/../lib/gcc/aarch64-none-elf/8.3.0/../../../../aarch64-none-elf/lib/pic\libg.a(lib_a-mprec.o)
 .rodata.get_arg
                0x000000000002c914       0x92 c:/devkitpro/devkita64/bin/../lib/gcc/aarch64-none-elf/8.3.0/../../../../aarch64-none-elf/lib/pic\libg.a(lib_a-svfiprintf.o)
 *fill*         0x000000000002c9a6        0x2 
 .rodata._svfiprintf_r
                0x000000000002c9a8       0xb6 c:/devkitpro/devkita64/bin/../lib/gcc/aarch64-none-elf/8.3.0/../../../../aarch64-none-elf/lib/pic\libg.a(lib_a-svfiprintf.o)
 *fill*         0x000000000002ca5e        0x2 
 .rodata.__action_table
                0x000000000002ca60       0x6c c:/devkitpro/devkita64/bin/../lib/gcc/aarch64-none-elf/8.3.0/../../../../aarch64-none-elf/lib/pic\libg.a(lib_a-svfiprintf.o)
                0x000000000002ca60                __action_table
 *fill*         0x000000000002cacc        0x4 
 .rodata.__chclass
                0x000000000002cad0      0x100 c:/devkitpro/devkita64/bin/../lib/gcc/aarch64-none-elf/8.3.0/../../../../aarch64-none-elf/lib/pic\libg.a(lib_a-svfiprintf.o)
                0x000000000002cad0                __chclass
 .rodata.__state_table
                0x000000000002cbd0       0x6c c:/devkitpro/devkita64/bin/../lib/gcc/aarch64-none-elf/8.3.0/../../../../aarch64-none-elf/lib/pic\libg.a(lib_a-svfiprintf.o)
                0x000000000002cbd0                __state_table
 .rodata._svfiprintf_r.str1.1
                0x000000000002cc3c       0x29 c:/devkitpro/devkita64/bin/../lib/gcc/aarch64-none-elf/8.3.0/../../../../aarch64-none-elf/lib/pic\libg.a(lib_a-svfiprintf.o)
 *fill*         0x000000000002cc3c        0x4 
 .rodata.blanks.6569
                0x000000000002cc40       0x10 c:/devkitpro/devkita64/bin/../lib/gcc/aarch64-none-elf/8.3.0/../../../../aarch64-none-elf/lib/pic\libg.a(lib_a-svfiprintf.o)
 .rodata.zeroes.6570
                0x000000000002cc50       0x10 c:/devkitpro/devkita64/bin/../lib/gcc/aarch64-none-elf/8.3.0/../../../../aarch64-none-elf/lib/pic\libg.a(lib_a-svfiprintf.o)
 .rodata.AddDevice.str1.8
                0x000000000002cc60        0x8 c:/devkitpro/devkita64/bin/../lib/gcc/aarch64-none-elf/8.3.0/../../../../aarch64-none-elf/lib/pic\libsysbase.a(iosupport.o)
 .rodata.DIRECTORY_PARENT
                0x000000000002cc68        0x3 c:/devkitpro/devkita64/bin/../lib/gcc/aarch64-none-elf/8.3.0/../../../../aarch64-none-elf/lib/pic\libsysbase.a(chdir.o)
                0x000000000002cc68                DIRECTORY_PARENT
 *fill*         0x000000000002cc6b        0x5 
 .rodata.DIRECTORY_SEPARATOR
                0x000000000002cc70        0x2 c:/devkitpro/devkita64/bin/../lib/gcc/aarch64-none-elf/8.3.0/../../../../aarch64-none-elf/lib/pic\libsysbase.a(chdir.o)
                0x000000000002cc70                DIRECTORY_SEPARATOR
 *fill*         0x000000000002cc72        0x6 
 .rodata.DIRECTORY_THIS
                0x000000000002cc78        0x2 c:/devkitpro/devkita64/bin/../lib/gcc/aarch64-none-elf/8.3.0/../../../../aarch64-none-elf/lib/pic\libsysbase.a(chdir.o)
                0x000000000002cc78                DIRECTORY_THIS
                0x000000000002cc80                . = ALIGN (0x8)
 *fill*         0x000000000002cc7a        0x6 

.eh_frame_hdr   0x000000000002cc80        0x0
                0x000000000002cc80                __eh_frame_hdr_start = .
 *(.eh_frame_hdr)
 *(.eh_frame_entry .eh_frame_entry.*)
                0x000000000002cc80                __eh_frame_hdr_end = .

.eh_frame       0x000000000002cc80     0x77a8
 *(.eh_frame)
 .eh_frame      0x000000000002cc80       0x80 c:/devkitpro/devkita64/bin/../lib/gcc/aarch64-none-elf/8.3.0/pic/crtbegin.o
 .eh_frame      0x000000000002cd00      0x330 main.o
                                        0x340 (size before relaxing)
 .eh_frame      0x000000000002d030      0x1f0 acmd_wrapper.o
                                        0x208 (size before relaxing)
 .eh_frame      0x000000000002d220       0x48 saltysd_helper.o
                                         0x60 (size before relaxing)
 .eh_frame      0x000000000002d268       0x40 lua_bind_hash.o
                                         0x58 (size before relaxing)
 .eh_frame      0x000000000002d2a8       0xd8 l2c_imports.o
                                         0xe8 (size before relaxing)
 .eh_frame      0x000000000002d380      0x120 raygun_printer.o
                                        0x130 (size before relaxing)
 .eh_frame      0x000000000002d4a0       0x28 S:/UltimateEnvironment/code-mod-example/param-replace/code-mod-framework/lib/libnx_min/nx/lib\libnx_min.a(exception.o)
                                         0x40 (size before relaxing)
 .eh_frame      0x000000000002d4c8       0xa8 S:/UltimateEnvironment/code-mod-example/param-replace/code-mod-framework/lib/libnx_min/nx/lib\libnx_min.a(argv.o)
                                         0xb8 (size before relaxing)
 .eh_frame      0x000000000002d570      0x1c0 S:/UltimateEnvironment/code-mod-example/param-replace/code-mod-framework/lib/libnx_min/nx/lib\libnx_min.a(env.o)
                                        0x1d8 (size before relaxing)
 .eh_frame      0x000000000002d730       0x68 S:/UltimateEnvironment/code-mod-example/param-replace/code-mod-framework/lib/libnx_min/nx/lib\libnx_min.a(init.o)
                                         0xb8 (size before relaxing)
 .eh_frame      0x000000000002d798       0x28 S:/UltimateEnvironment/code-mod-example/param-replace/code-mod-framework/lib/libnx_min/nx/lib\libnx_min.a(hosversion.o)
                                         0x40 (size before relaxing)
 .eh_frame      0x000000000002d7c0       0x18 S:/UltimateEnvironment/code-mod-example/param-replace/code-mod-framework/lib/libnx_min/nx/lib\libnx_min.a(dynamic.o)
                                         0x30 (size before relaxing)
 .eh_frame      0x000000000002d7d8      0x800 S:/UltimateEnvironment/code-mod-example/param-replace/code-mod-framework/lib/libnx_min/nx/lib\libnx_min.a(fs_dev.o)
                                        0x818 (size before relaxing)
 .eh_frame      0x000000000002dfd8       0x18 S:/UltimateEnvironment/code-mod-example/param-replace/code-mod-framework/lib/libnx_min/nx/lib\libnx_min.a(decode_utf8.o)
                                         0x28 (size before relaxing)
 .eh_frame      0x000000000002dff0      0x7d0 S:/UltimateEnvironment/code-mod-example/param-replace/code-mod-framework/lib/libnx_min/nx/lib\libnx_min.a(svc.o)
                                        0x7e8 (size before relaxing)
 .eh_frame      0x000000000002e7c0       0x18 S:/UltimateEnvironment/code-mod-example/param-replace/code-mod-framework/lib/libnx_min/nx/lib\libnx_min.a(readtp.o)
                                         0x28 (size before relaxing)
 .eh_frame      0x000000000002e7d8      0x108 S:/UltimateEnvironment/code-mod-example/param-replace/code-mod-framework/lib/libnx_min/nx/lib\libnx_min.a(virtmem.o)
                                        0x120 (size before relaxing)
 .eh_frame      0x000000000002e8e0       0xb0 S:/UltimateEnvironment/code-mod-example/param-replace/code-mod-framework/lib/libnx_min/nx/lib\libnx_min.a(mutex.o)
                                         0xc0 (size before relaxing)
 .eh_frame      0x000000000002e990      0xed0 S:/UltimateEnvironment/code-mod-example/param-replace/code-mod-framework/lib/libnx_min/nx/lib\libnx_min.a(fs.o)
                                        0xee0 (size before relaxing)
 .eh_frame      0x000000000002f860      0x540 S:/UltimateEnvironment/code-mod-example/param-replace/code-mod-framework/lib/libnx_min/nx/lib\libnx_min.a(set.o)
                                        0x550 (size before relaxing)
 .eh_frame      0x000000000002fda0       0x70 S:/UltimateEnvironment/code-mod-example/param-replace/code-mod-framework/lib/libnx_min/nx/lib\libnx_min.a(fatal.o)
                                         0x88 (size before relaxing)
 .eh_frame      0x000000000002fe10      0x1d8 S:/UltimateEnvironment/code-mod-example/param-replace/code-mod-framework/lib/libnx_min/nx/lib\libnx_min.a(sm.o)
                                        0x1f0 (size before relaxing)
 .eh_frame      0x000000000002ffe8      0xbe0 S:/UltimateEnvironment/code-mod-example/param-replace/code-mod-framework/lib/libnx_min/nx/lib\libnx_min.a(hid.o)
                                        0xbf0 (size before relaxing)
 .eh_frame      0x0000000000030bc8      0x180 S:/UltimateEnvironment/code-mod-example/param-replace/code-mod-framework/lib/libnx_min/nx/lib\libnx_min.a(time.o)
                                        0x198 (size before relaxing)
 .eh_frame      0x0000000000030d48     0x1448 S:/UltimateEnvironment/code-mod-example/param-replace/code-mod-framework/lib/libnx_min/nx/lib\libnx_min.a(applet.o)
                                       0x1458 (size before relaxing)
 .eh_frame      0x0000000000032190      0x408 S:/UltimateEnvironment/code-mod-example/param-replace/code-mod-framework/lib/libnx_min/nx/lib\libnx_min.a(newlib.o)
                                        0x420 (size before relaxing)
 .eh_frame      0x0000000000032598      0x1b8 S:/UltimateEnvironment/code-mod-example/param-replace/code-mod-framework/lib/libnx_min/nx/lib\libnx_min.a(thread.o)
                                        0x1c8 (size before relaxing)
 .eh_frame      0x0000000000032750       0x30 S:/UltimateEnvironment/code-mod-example/param-replace/code-mod-framework/lib/libnx_min/nx/lib\libnx_min.a(condvar.o)
                                         0x48 (size before relaxing)
 .eh_frame      0x0000000000032780       0xb0 S:/UltimateEnvironment/code-mod-example/param-replace/code-mod-framework/lib/libnx_min/nx/lib\libnx_min.a(event.o)
                                         0xc0 (size before relaxing)
 .eh_frame      0x0000000000032830       0xf0 S:/UltimateEnvironment/code-mod-example/param-replace/code-mod-framework/lib/libnx_min/nx/lib\libnx_min.a(tmem.o)
                                        0x108 (size before relaxing)
 .eh_frame      0x0000000000032920       0xb0 S:/UltimateEnvironment/code-mod-example/param-replace/code-mod-framework/lib/libnx_min/nx/lib\libnx_min.a(rwlock.o)
                                         0xc0 (size before relaxing)
 .eh_frame      0x00000000000329d0       0xb0 S:/UltimateEnvironment/code-mod-example/param-replace/code-mod-framework/lib/libnx_min/nx/lib\libnx_min.a(wait.o)
                                         0xc8 (size before relaxing)
 .eh_frame      0x0000000000032a80       0xb8 S:/UltimateEnvironment/code-mod-example/param-replace/code-mod-framework/lib/libnx_min/nx/lib\libnx_min.a(shmem.o)
                                         0xc8 (size before relaxing)
 .eh_frame      0x0000000000032b38       0xc8 S:/UltimateEnvironment/code-mod-example/param-replace/code-mod-framework/lib/libnx_min/nx/lib\libnx_min.a(detect.o)
                                         0xd8 (size before relaxing)
 .eh_frame      0x0000000000032c00      0x110 S:/UltimateEnvironment/code-mod-example/param-replace/code-mod-framework/lib/libnx_min/nx/lib\libnx_min.a(apm.o)
                                        0x128 (size before relaxing)
 .eh_frame      0x0000000000032d10       0x68 c:/devkitpro/devkita64/bin/../lib/gcc/aarch64-none-elf/8.3.0/../../../../aarch64-none-elf/lib/pic\libg.a(lib_a-bsearch.o)
                                         0x78 (size before relaxing)
 .eh_frame      0x0000000000032d78       0x18 c:/devkitpro/devkita64/bin/../lib/gcc/aarch64-none-elf/8.3.0/../../../../aarch64-none-elf/lib/pic\libg.a(lib_a-ctype_.o)
                                         0x28 (size before relaxing)
 .eh_frame      0x0000000000032d90       0x20 c:/devkitpro/devkita64/bin/../lib/gcc/aarch64-none-elf/8.3.0/../../../../aarch64-none-elf/lib/pic\libg.a(lib_a-errno.o)
                                         0x38 (size before relaxing)
 .eh_frame      0x0000000000032db0       0x20 c:/devkitpro/devkita64/bin/../lib/gcc/aarch64-none-elf/8.3.0/../../../../aarch64-none-elf/lib/pic\libg.a(lib_a-exit.o)
                                         0x30 (size before relaxing)
 .eh_frame      0x0000000000032dd0       0x28 c:/devkitpro/devkita64/bin/../lib/gcc/aarch64-none-elf/8.3.0/../../../../aarch64-none-elf/lib/pic\libg.a(lib_a-fini.o)
                                         0x38 (size before relaxing)
 .eh_frame      0x0000000000032df8       0x28 c:/devkitpro/devkita64/bin/../lib/gcc/aarch64-none-elf/8.3.0/../../../../aarch64-none-elf/lib/pic\libg.a(lib_a-init.o)
                                         0x40 (size before relaxing)
 .eh_frame      0x0000000000032e20       0x28 c:/devkitpro/devkita64/bin/../lib/gcc/aarch64-none-elf/8.3.0/../../../../aarch64-none-elf/lib/pic\libg.a(lib_a-malign.o)
                                         0x38 (size before relaxing)
 .eh_frame      0x0000000000032e48       0x50 c:/devkitpro/devkita64/bin/../lib/gcc/aarch64-none-elf/8.3.0/../../../../aarch64-none-elf/lib/pic\libg.a(lib_a-malignr.o)
                                         0x68 (size before relaxing)
 .eh_frame      0x0000000000032e98       0x40 c:/devkitpro/devkita64/bin/../lib/gcc/aarch64-none-elf/8.3.0/../../../../aarch64-none-elf/lib/pic\libg.a(lib_a-malloc.o)
                                         0x58 (size before relaxing)
 .eh_frame      0x0000000000032ed8       0xd0 c:/devkitpro/devkita64/bin/../lib/gcc/aarch64-none-elf/8.3.0/../../../../aarch64-none-elf/lib/pic\libg.a(lib_a-mallocr.o)
                                         0xe0 (size before relaxing)
 .eh_frame      0x0000000000032fa8       0x28 c:/devkitpro/devkita64/bin/../lib/gcc/aarch64-none-elf/8.3.0/../../../../aarch64-none-elf/lib/pic\libg.a(lib_a-mlock.o)
                                         0x40 (size before relaxing)
 .eh_frame      0x0000000000032fd0       0x48 c:/devkitpro/devkita64/bin/../lib/gcc/aarch64-none-elf/8.3.0/../../../../aarch64-none-elf/lib/pic\libg.a(lib_a-setenv.o)
                                         0x58 (size before relaxing)
 .eh_frame      0x0000000000033018       0xb0 c:/devkitpro/devkita64/bin/../lib/gcc/aarch64-none-elf/8.3.0/../../../../aarch64-none-elf/lib/pic\libg.a(lib_a-setenv_r.o)
                                         0xc8 (size before relaxing)
 .eh_frame      0x00000000000330c8       0x18 c:/devkitpro/devkita64/bin/../lib/gcc/aarch64-none-elf/8.3.0/../../../../aarch64-none-elf/lib/pic\libg.a(lib_a-strncat.o)
                                         0x28 (size before relaxing)
 .eh_frame      0x00000000000330e0       0x18 c:/devkitpro/devkita64/bin/../lib/gcc/aarch64-none-elf/8.3.0/../../../../aarch64-none-elf/lib/pic\libg.a(lib_a-strncpy.o)
                                         0x28 (size before relaxing)
 .eh_frame      0x00000000000330f8       0x18 c:/devkitpro/devkita64/bin/../lib/gcc/aarch64-none-elf/8.3.0/../../../../aarch64-none-elf/lib/pic\libg.a(lib_a-toupper.o)
                                         0x28 (size before relaxing)
 .eh_frame      0x0000000000033110       0x58 c:/devkitpro/devkita64/bin/../lib/gcc/aarch64-none-elf/8.3.0/../../../../aarch64-none-elf/lib/pic\libg.a(lib_a-vsnprintf.o)
                                         0x68 (size before relaxing)
 .eh_frame      0x0000000000033168       0x40 c:/devkitpro/devkita64/bin/../lib/gcc/aarch64-none-elf/8.3.0/../../../../aarch64-none-elf/lib/pic\libg.a(lib_a-__call_atexit.o)
                                         0x58 (size before relaxing)
 .eh_frame      0x00000000000331a8       0x28 c:/devkitpro/devkita64/bin/../lib/gcc/aarch64-none-elf/8.3.0/../../../../aarch64-none-elf/lib/pic\libg.a(lib_a-envlock.o)
                                         0x40 (size before relaxing)
 .eh_frame      0x00000000000331d0       0x80 c:/devkitpro/devkita64/bin/../lib/gcc/aarch64-none-elf/8.3.0/../../../../aarch64-none-elf/lib/pic\libg.a(lib_a-freer.o)
                                         0x98 (size before relaxing)
 .eh_frame      0x0000000000033250       0x68 c:/devkitpro/devkita64/bin/../lib/gcc/aarch64-none-elf/8.3.0/../../../../aarch64-none-elf/lib/pic\libg.a(lib_a-getenv_r.o)
                                         0x78 (size before relaxing)
 .eh_frame      0x00000000000332b8       0xf0 c:/devkitpro/devkita64/bin/../lib/gcc/aarch64-none-elf/8.3.0/../../../../aarch64-none-elf/lib/pic\libg.a(lib_a-reallocr.o)
                                        0x108 (size before relaxing)
 .eh_frame      0x00000000000333a8       0xb8 c:/devkitpro/devkita64/bin/../lib/gcc/aarch64-none-elf/8.3.0/../../../../aarch64-none-elf/lib/pic\libg.a(lib_a-svfprintf.o)
                                         0xc8 (size before relaxing)
 .eh_frame      0x0000000000033460       0x70 c:/devkitpro/devkita64/bin/../lib/gcc/aarch64-none-elf/8.3.0/../../../../aarch64-none-elf/lib/pic\libg.a(lib_a-wcrtomb.o)
                                         0x80 (size before relaxing)
 .eh_frame      0x00000000000334d0       0x38 c:/devkitpro/devkita64/bin/../lib/gcc/aarch64-none-elf/8.3.0/../../../../aarch64-none-elf/lib/pic\libg.a(lib_a-wcsrtombs.o)
                                         0x50 (size before relaxing)
 .eh_frame      0x0000000000033508       0x98 c:/devkitpro/devkita64/bin/../lib/gcc/aarch64-none-elf/8.3.0/../../../../aarch64-none-elf/lib/pic\libg.a(lib_a-dtoa.o)
                                         0xb0 (size before relaxing)
 .eh_frame      0x00000000000335a0       0x58 c:/devkitpro/devkita64/bin/../lib/gcc/aarch64-none-elf/8.3.0/../../../../aarch64-none-elf/lib/pic\libg.a(lib_a-localeconv.o)
                                         0x68 (size before relaxing)
 .eh_frame      0x00000000000335f8      0x200 c:/devkitpro/devkita64/bin/../lib/gcc/aarch64-none-elf/8.3.0/../../../../aarch64-none-elf/lib/pic\libg.a(lib_a-locale.o)
                                        0x210 (size before relaxing)
 .eh_frame      0x00000000000337f8       0xf8 c:/devkitpro/devkita64/bin/../lib/gcc/aarch64-none-elf/8.3.0/../../../../aarch64-none-elf/lib/pic\libg.a(lib_a-mbtowc_r.o)
                                        0x110 (size before relaxing)
 .eh_frame      0x00000000000338f0      0x2f8 c:/devkitpro/devkita64/bin/../lib/gcc/aarch64-none-elf/8.3.0/../../../../aarch64-none-elf/lib/pic\libg.a(lib_a-mprec.o)
                                        0x310 (size before relaxing)
 .eh_frame      0x0000000000033be8       0x18 c:/devkitpro/devkita64/bin/../lib/gcc/aarch64-none-elf/8.3.0/../../../../aarch64-none-elf/lib/pic\libg.a(lib_a-s_frexp.o)
                                         0x28 (size before relaxing)
 .eh_frame      0x0000000000033c00       0x18 c:/devkitpro/devkita64/bin/../lib/gcc/aarch64-none-elf/8.3.0/../../../../aarch64-none-elf/lib/pic\libg.a(lib_a-strcasecmp.o)
                                         0x28 (size before relaxing)
 .eh_frame      0x0000000000033c18       0x28 c:/devkitpro/devkita64/bin/../lib/gcc/aarch64-none-elf/8.3.0/../../../../aarch64-none-elf/lib/pic\libg.a(lib_a-strcat.o)
                                         0x38 (size before relaxing)
 .eh_frame      0x0000000000033c40       0x18 c:/devkitpro/devkita64/bin/../lib/gcc/aarch64-none-elf/8.3.0/../../../../aarch64-none-elf/lib/pic\libg.a(lib_a-strlcpy.o)
                                         0x28 (size before relaxing)
 .eh_frame      0x0000000000033c58       0x18 c:/devkitpro/devkita64/bin/../lib/gcc/aarch64-none-elf/8.3.0/../../../../aarch64-none-elf/lib/pic\libg.a(lib_a-strncasecmp.o)
                                         0x28 (size before relaxing)
 .eh_frame      0x0000000000033c70       0x80 c:/devkitpro/devkita64/bin/../lib/gcc/aarch64-none-elf/8.3.0/../../../../aarch64-none-elf/lib/pic\libg.a(lib_a-strtol.o)
                                         0x98 (size before relaxing)
 .eh_frame      0x0000000000033cf0       0xe0 c:/devkitpro/devkita64/bin/../lib/gcc/aarch64-none-elf/8.3.0/../../../../aarch64-none-elf/lib/pic\libg.a(lib_a-svfiprintf.o)
                                         0xf8 (size before relaxing)
 .eh_frame      0x0000000000033dd0      0x128 c:/devkitpro/devkita64/bin/../lib/gcc/aarch64-none-elf/8.3.0/../../../../aarch64-none-elf/lib/pic\libg.a(lib_a-wcsnrtombs.o)
                                        0x138 (size before relaxing)
 .eh_frame      0x0000000000033ef8       0x88 c:/devkitpro/devkita64/bin/../lib/gcc/aarch64-none-elf/8.3.0/../../../../aarch64-none-elf/lib/pic\libg.a(lib_a-wctomb_r.o)
                                         0xa0 (size before relaxing)
 .eh_frame      0x0000000000033f80       0x30 c:/devkitpro/devkita64/bin/../lib/gcc/aarch64-none-elf/8.3.0/../../../../aarch64-none-elf/lib/pic\libg.a(lib_a-callocr.o)
                                         0x40 (size before relaxing)
 .eh_frame      0x0000000000033fb0      0x118 c:/devkitpro/devkita64/bin/../lib/gcc/aarch64-none-elf/8.3.0/../../../../aarch64-none-elf/lib/pic\libsysbase.a(iosupport.o)
                                        0x130 (size before relaxing)
 .eh_frame      0x00000000000340c8       0x18 c:/devkitpro/devkita64/bin/../lib/gcc/aarch64-none-elf/8.3.0/../../../../aarch64-none-elf/lib/pic\libsysbase.a(sbrk.o)
                                         0x28 (size before relaxing)
 .eh_frame      0x00000000000340e0       0x20 c:/devkitpro/devkita64/bin/../lib/gcc/aarch64-none-elf/8.3.0/../../../../aarch64-none-elf/lib/pic\libsysbase.a(_exit.o)
                                         0x38 (size before relaxing)
 .eh_frame      0x0000000000034100      0x110 c:/devkitpro/devkita64/bin/../lib/gcc/aarch64-none-elf/8.3.0/../../../../aarch64-none-elf/lib/pic\libsysbase.a(chdir.o)
                                        0x128 (size before relaxing)
 .eh_frame      0x0000000000034210      0x168 c:/devkitpro/devkita64/bin/../lib/gcc/aarch64-none-elf/8.3.0/../../../../aarch64-none-elf/lib/pic\libsysbase.a(locks.o)
                                        0x178 (size before relaxing)
 .eh_frame      0x0000000000034378       0x18 c:/devkitpro/devkita64/bin/../lib/gcc/aarch64-none-elf/8.3.0/../../../../aarch64-none-elf/lib/pic\libsysbase.a(getreent.o)
                                         0x28 (size before relaxing)
 .eh_frame      0x0000000000034390       0x60 c:/devkitpro/devkita64/bin/../lib/gcc/aarch64-none-elf/8.3.0/../../../../aarch64-none-elf/lib/pic\libsysbase.a(clocks.o)
                                         0x78 (size before relaxing)
 .eh_frame      0x00000000000343f0       0x20 c:/devkitpro/devkita64/bin/../lib/gcc/aarch64-none-elf/8.3.0/pic\libgcc.a(trunctfdf2.o)
                                         0x38 (size before relaxing)
 .eh_frame      0x0000000000034410       0x14 c:/devkitpro/devkita64/bin/../lib/gcc/aarch64-none-elf/8.3.0/pic\libgcc.a(sfp-exceptions.o)
                                         0x28 (size before relaxing)
 .eh_frame      0x0000000000034424        0x4 c:/devkitpro/devkita64/bin/../lib/gcc/aarch64-none-elf/8.3.0/pic/crtend.o
 *(.eh_frame.*)

.gcc_except_table
 *(.gcc_except_table .gcc_except_table.*)

.gnu_extab
 *(.gnu_extab*)

.dynamic        0x0000000000034428      0x1a0
 *(.dynamic)
 .dynamic       0x0000000000034428      0x1a0 c:/devkitpro/devkita64/bin/../lib/gcc/aarch64-none-elf/8.3.0/pic/crti.o
                0x0000000000034428                _DYNAMIC

.dynsym         0x00000000000345c8     0x4758
 *(.dynsym)
 .dynsym        0x00000000000345c8     0x4758 c:/devkitpro/devkita64/bin/../lib/gcc/aarch64-none-elf/8.3.0/pic/crti.o

.dynstr         0x0000000000038d20     0x3b67
 *(.dynstr)
 .dynstr        0x0000000000038d20     0x3b67 c:/devkitpro/devkita64/bin/../lib/gcc/aarch64-none-elf/8.3.0/pic/crti.o

.rela.dyn       0x000000000003c888     0x30c0
 *(.rela.*)
 .rela.got      0x000000000003c888      0xca8 c:/devkitpro/devkita64/bin/../lib/gcc/aarch64-none-elf/8.3.0/pic/crti.o
 .rela.plt      0x000000000003f888       0xc0 c:/devkitpro/devkita64/bin/../lib/gcc/aarch64-none-elf/8.3.0/pic/crti.o
 .rela.bss      0x000000000003d5f0        0x0 c:/devkitpro/devkita64/bin/../lib/gcc/aarch64-none-elf/8.3.0/pic/crti.o
 .rela.data.rel.ro
                0x000000000003d5f0        0x0 c:/devkitpro/devkita64/bin/../lib/gcc/aarch64-none-elf/8.3.0/pic/crti.o
 .rela.init_array
                0x000000000003d530       0x18 c:/devkitpro/devkita64/bin/../lib/gcc/aarch64-none-elf/8.3.0/pic/crti.o
 .rela.fini_array
                0x000000000003d548       0x18 c:/devkitpro/devkita64/bin/../lib/gcc/aarch64-none-elf/8.3.0/pic/crti.o
 .rela.ifunc    0x000000000003d620        0x0 c:/devkitpro/devkita64/bin/../lib/gcc/aarch64-none-elf/8.3.0/pic/crti.o
 .rela.data.rel.local
                0x000000000003d560      0x3c0 c:/devkitpro/devkita64/bin/../lib/gcc/aarch64-none-elf/8.3.0/pic/crti.o
 .rela.data.rel.ro.local.fsdev_devoptab
                0x000000000003d920      0x210 c:/devkitpro/devkita64/bin/../lib/gcc/aarch64-none-elf/8.3.0/pic/crti.o
 .rela.data.rel.local._impure_ptr
                0x000000000003db30       0x18 c:/devkitpro/devkita64/bin/../lib/gcc/aarch64-none-elf/8.3.0/pic/crti.o
 .rela.data.rel.local.impure_data
                0x000000000003db48       0x48 c:/devkitpro/devkita64/bin/../lib/gcc/aarch64-none-elf/8.3.0/pic/crti.o
 .rela.data.rel.ro.local._global_impure_ptr
                0x000000000003db90       0x18 c:/devkitpro/devkita64/bin/../lib/gcc/aarch64-none-elf/8.3.0/pic/crti.o
 .rela.data.rel.__malloc_av_
                0x000000000003dba8     0x1800 c:/devkitpro/devkita64/bin/../lib/gcc/aarch64-none-elf/8.3.0/pic/crti.o
 .rela.data.rel.local.environ
                0x000000000003f3a8       0x18 c:/devkitpro/devkita64/bin/../lib/gcc/aarch64-none-elf/8.3.0/pic/crti.o
 .rela.data.rel.__global_locale
                0x000000000003f3c0      0x138 c:/devkitpro/devkita64/bin/../lib/gcc/aarch64-none-elf/8.3.0/pic/crti.o
 .rela.data.rel.ro.__C_locale
                0x000000000003f4f8      0x138 c:/devkitpro/devkita64/bin/../lib/gcc/aarch64-none-elf/8.3.0/pic/crti.o
 .rela.data.rel.ro.local.categories
                0x000000000003f630       0xa8 c:/devkitpro/devkita64/bin/../lib/gcc/aarch64-none-elf/8.3.0/pic/crti.o
 .rela.data.rel.devoptab_list
                0x000000000003f6d8      0x180 c:/devkitpro/devkita64/bin/../lib/gcc/aarch64-none-elf/8.3.0/pic/crti.o
 .rela.data.rel.ro.local.dotab_stdnull
                0x000000000003f858       0x30 c:/devkitpro/devkita64/bin/../lib/gcc/aarch64-none-elf/8.3.0/pic/crti.o

.interp         0x000000000003f948        0xd
 *(.interp)
 .interp        0x000000000003f948        0xd c:/devkitpro/devkita64/bin/../lib/gcc/aarch64-none-elf/8.3.0/pic/crti.o

.hash           0x000000000003f958     0x1410
 *(.hash)
 .hash          0x000000000003f958     0x1410 c:/devkitpro/devkita64/bin/../lib/gcc/aarch64-none-elf/8.3.0/pic/crti.o

.gnu.hash
 *(.gnu.hash)

.gnu.version    0x0000000000040d68        0x0
 *(.gnu.version)
 .gnu.version   0x0000000000040d68        0x0 c:/devkitpro/devkita64/bin/../lib/gcc/aarch64-none-elf/8.3.0/pic/crti.o

.gnu.version_d  0x0000000000040d68        0x0
 *(.gnu.version_d)
 .gnu.version_d
                0x0000000000040d68        0x0 c:/devkitpro/devkita64/bin/../lib/gcc/aarch64-none-elf/8.3.0/pic/crti.o

.gnu.version_r  0x0000000000040d68        0x0
 *(.gnu.version_r)
 .gnu.version_r
                0x0000000000040d68        0x0 c:/devkitpro/devkita64/bin/../lib/gcc/aarch64-none-elf/8.3.0/pic/crti.o

.note.gnu.build-id
                0x0000000000040d68       0x24
 *(.note.gnu.build-id)
 .note.gnu.build-id
                0x0000000000040d68       0x24 c:/devkitpro/devkita64/bin/../lib/gcc/aarch64-none-elf/8.3.0/pic/crti.o
                0x0000000000041000                . = ALIGN (0x1000)

.eh_frame
 *(.eh_frame)
 *(.eh_frame.*)

.gcc_except_table
 *(.gcc_except_table .gcc_except_table.*)

.gnu_extab
 *(.gnu_extab*)

.exception_ranges
 *(.exception_ranges .exception_ranges*)

.tdata          0x0000000000041000        0x0
                0x0000000000041000                __tdata_lma = .
 *(.tdata .tdata.* .gnu.linkonce.td.*)
                0x0000000000041000                . = ALIGN (0x8)
                0x0000000000041000                __tdata_lma_end = .

.tbss           0x0000000000041000     0x4408
 *(.tbss .tbss.* .gnu.linkonce.tb.*)
 .tbss.__fixedpath
                0x0000000000041000      0x401 S:/UltimateEnvironment/code-mod-example/param-replace/code-mod-framework/lib/libnx_min/nx/lib\libnx_min.a(fs_dev.o)
 *fill*         0x0000000000041401        0x3 
 .tbss.fsdev_last_result
                0x0000000000041404        0x4 S:/UltimateEnvironment/code-mod-example/param-replace/code-mod-framework/lib/libnx_min/nx/lib\libnx_min.a(fs_dev.o)
 .tbss.tmp_buffer.7389
                0x0000000000041408     0x2000 S:/UltimateEnvironment/code-mod-example/param-replace/code-mod-framework/lib/libnx_min/nx/lib\libnx_min.a(fs_dev.o)
 .tbss.tmp_buffer.7413
                0x0000000000043408     0x2000 S:/UltimateEnvironment/code-mod-example/param-replace/code-mod-framework/lib/libnx_min/nx/lib\libnx_min.a(fs_dev.o)
 *(.tcommon)
                0x0000000000045408                . = ALIGN (0x8)

.preinit_array  0x0000000000041000        0x0
                0x0000000000041000                PROVIDE (__preinit_array_start = .)
 *(.preinit_array)
                0x0000000000041000                PROVIDE (__preinit_array_end = .)

.init_array     0x0000000000041000        0x8
                0x0000000000041000                PROVIDE (__init_array_start = .)
 *(SORT_BY_NAME(.init_array.*))
 *(.init_array)
 .init_array    0x0000000000041000        0x8 c:/devkitpro/devkita64/bin/../lib/gcc/aarch64-none-elf/8.3.0/pic/crtbegin.o
                0x0000000000041008                PROVIDE (__init_array_end = .)

.fini_array     0x0000000000041008        0x8
                0x0000000000041008                PROVIDE (__fini_array_start = .)
 *(.fini_array)
 .fini_array    0x0000000000041008        0x8 c:/devkitpro/devkita64/bin/../lib/gcc/aarch64-none-elf/8.3.0/pic/crtbegin.o
 *(SORT_BY_NAME(.fini_array.*))
                0x0000000000041010                PROVIDE (__fini_array_end = .)

.ctors
 *crtbegin.o(.ctors)
 *(EXCLUDE_FILE(*crtend.o) .ctors)
 *(SORT_BY_NAME(.ctors.*))
 *(.ctors)

.dtors
 *crtbegin.o(.dtors)
 *(EXCLUDE_FILE(*crtend.o) .dtors)
 *(SORT_BY_NAME(.dtors.*))
 *(.dtors)
                0x0000000000041010                __got_start__ = .

.got            0x0000000000041010      0x440
 *(.got)
 .got           0x0000000000041010      0x440 c:/devkitpro/devkita64/bin/../lib/gcc/aarch64-none-elf/8.3.0/pic/crti.o
                0x0000000000041010                _GLOBAL_OFFSET_TABLE_
 *(.igot)

.got.plt        0x0000000000041450       0x58
 *(.got.plt)
 .got.plt       0x0000000000041450       0x58 c:/devkitpro/devkita64/bin/../lib/gcc/aarch64-none-elf/8.3.0/pic/crti.o
 *(.igot.plt)
                0x00000000000414a8                __got_end__ = .

.data           0x00000000000414a8     0x1ef8
 *(.data .data.* .gnu.linkonce.d.*)
 .data.rel.ro   0x00000000000414a8        0x0 c:/devkitpro/devkita64/bin/../lib/gcc/aarch64-none-elf/8.3.0/pic/crti.o
 .data          0x00000000000414a8        0x4 main.o
                0x00000000000414a8                __nx_applet_type
 *fill*         0x00000000000414ac        0x4 
 .data.rel.local
                0x00000000000414b0      0x140 raygun_printer.o
                0x00000000000414b0                alphabet
 .data.__nx_exception_stack_size
                0x00000000000415f0        0x8 S:/UltimateEnvironment/code-mod-example/param-replace/code-mod-framework/lib/libnx_min/nx/lib\libnx_min.a(init.o)
                0x00000000000415f0                __nx_exception_stack_size
 .data.__cwd    0x00000000000415f8      0x401 S:/UltimateEnvironment/code-mod-example/param-replace/code-mod-framework/lib/libnx_min/nx/lib\libnx_min.a(fs_dev.o)
 *fill*         0x00000000000419f9        0x3 
 .data.fsdev_fsdevice_cwd
                0x00000000000419fc        0x4 S:/UltimateEnvironment/code-mod-example/param-replace/code-mod-framework/lib/libnx_min/nx/lib\libnx_min.a(fs_dev.o)
 .data.fsdev_fsdevice_default
                0x0000000000041a00        0x4 S:/UltimateEnvironment/code-mod-example/param-replace/code-mod-framework/lib/libnx_min/nx/lib\libnx_min.a(fs_dev.o)
 *fill*         0x0000000000041a04        0x4 
 .data.rel.ro.local.fsdev_devoptab
                0x0000000000041a08       0xe0 S:/UltimateEnvironment/code-mod-example/param-replace/code-mod-framework/lib/libnx_min/nx/lib\libnx_min.a(fs_dev.o)
 .data.__nx_applet_auto_notifyrunning
                0x0000000000041ae8        0x1 S:/UltimateEnvironment/code-mod-example/param-replace/code-mod-framework/lib/libnx_min/nx/lib\libnx_min.a(applet.o)
                0x0000000000041ae8                __nx_applet_auto_notifyrunning
 *fill*         0x0000000000041ae9        0x7 
 .data.rel.local._impure_ptr
                0x0000000000041af0        0x8 c:/devkitpro/devkita64/bin/../lib/gcc/aarch64-none-elf/8.3.0/../../../../aarch64-none-elf/lib/pic\libg.a(lib_a-impure.o)
                0x0000000000041af0                _impure_ptr
 .data.rel.local.impure_data
                0x0000000000041af8      0x768 c:/devkitpro/devkita64/bin/../lib/gcc/aarch64-none-elf/8.3.0/../../../../aarch64-none-elf/lib/pic\libg.a(lib_a-impure.o)
 .data.rel.ro.local._global_impure_ptr
                0x0000000000042260        0x8 c:/devkitpro/devkita64/bin/../lib/gcc/aarch64-none-elf/8.3.0/../../../../aarch64-none-elf/lib/pic\libg.a(lib_a-impure.o)
                0x0000000000042260                _global_impure_ptr
 .data.__malloc_sbrk_base
                0x0000000000042268        0x8 c:/devkitpro/devkita64/bin/../lib/gcc/aarch64-none-elf/8.3.0/../../../../aarch64-none-elf/lib/pic\libg.a(lib_a-mallocr.o)
                0x0000000000042268                __malloc_sbrk_base
 .data.__malloc_trim_threshold
                0x0000000000042270        0x8 c:/devkitpro/devkita64/bin/../lib/gcc/aarch64-none-elf/8.3.0/../../../../aarch64-none-elf/lib/pic\libg.a(lib_a-mallocr.o)
                0x0000000000042270                __malloc_trim_threshold
 .data.rel.__malloc_av_
                0x0000000000042278      0x810 c:/devkitpro/devkita64/bin/../lib/gcc/aarch64-none-elf/8.3.0/../../../../aarch64-none-elf/lib/pic\libg.a(lib_a-mallocr.o)
                0x0000000000042278                __malloc_av_
 .data.rel.local.environ
                0x0000000000042a88        0x8 c:/devkitpro/devkita64/bin/../lib/gcc/aarch64-none-elf/8.3.0/../../../../aarch64-none-elf/lib/pic\libg.a(lib_a-environ.o)
                0x0000000000042a88                environ
 .data.__default_locale
                0x0000000000042a90       0x20 c:/devkitpro/devkita64/bin/../lib/gcc/aarch64-none-elf/8.3.0/../../../../aarch64-none-elf/lib/pic\libg.a(lib_a-locale.o)
                0x0000000000042a90                __default_locale
 .data.rel.__global_locale
                0x0000000000042ab0      0x1a8 c:/devkitpro/devkita64/bin/../lib/gcc/aarch64-none-elf/8.3.0/../../../../aarch64-none-elf/lib/pic\libg.a(lib_a-locale.o)
                0x0000000000042ab0                __global_locale
 .data.rel.ro.__C_locale
                0x0000000000042c58      0x1a8 c:/devkitpro/devkita64/bin/../lib/gcc/aarch64-none-elf/8.3.0/../../../../aarch64-none-elf/lib/pic\libg.a(lib_a-locale.o)
                0x0000000000042c58                __C_locale
 .data.rel.ro.local.categories
                0x0000000000042e00       0x38 c:/devkitpro/devkita64/bin/../lib/gcc/aarch64-none-elf/8.3.0/../../../../aarch64-none-elf/lib/pic\libg.a(lib_a-locale.o)
 .data.defaultDevice
                0x0000000000042e38        0x4 c:/devkitpro/devkita64/bin/../lib/gcc/aarch64-none-elf/8.3.0/../../../../aarch64-none-elf/lib/pic\libsysbase.a(iosupport.o)
 *fill*         0x0000000000042e3c        0x4 
 .data.rel.devoptab_list
                0x0000000000042e40       0x80 c:/devkitpro/devkita64/bin/../lib/gcc/aarch64-none-elf/8.3.0/../../../../aarch64-none-elf/lib/pic\libsysbase.a(iosupport.o)
                0x0000000000042e40                devoptab_list
 .data.rel.ro.local.dotab_stdnull
                0x0000000000042ec0       0xe0 c:/devkitpro/devkita64/bin/../lib/gcc/aarch64-none-elf/8.3.0/../../../../aarch64-none-elf/lib/pic\libsysbase.a(iosupport.o)
                0x0000000000042ec0                dotab_stdnull
 .data._current_working_directory
                0x0000000000042fa0      0x400 c:/devkitpro/devkita64/bin/../lib/gcc/aarch64-none-elf/8.3.0/../../../../aarch64-none-elf/lib/pic\libsysbase.a(chdir.o)
                0x00000000000433a0                __bss_start__ = .

.tm_clone_table
                0x00000000000433a0        0x0
 .tm_clone_table
                0x00000000000433a0        0x0 c:/devkitpro/devkita64/bin/../lib/gcc/aarch64-none-elf/8.3.0/pic/crtbegin.o
 .tm_clone_table
                0x00000000000433a0        0x0 c:/devkitpro/devkita64/bin/../lib/gcc/aarch64-none-elf/8.3.0/pic/crtend.o

.bss            0x00000000000433a0    0x157e0
 *(.dynbss)
 .dynbss        0x00000000000433a0        0x0 c:/devkitpro/devkita64/bin/../lib/gcc/aarch64-none-elf/8.3.0/pic/crti.o
 *(.bss .bss.* .gnu.linkonce.b.*)
 .bss.completed.7870
                0x00000000000433a0        0x1 c:/devkitpro/devkita64/bin/../lib/gcc/aarch64-none-elf/8.3.0/pic/crtbegin.o
 *fill*         0x00000000000433a1        0x7 
 .bss.object.7875
                0x00000000000433a8       0x30 c:/devkitpro/devkita64/bin/../lib/gcc/aarch64-none-elf/8.3.0/pic/crtbegin.o
 .bss           0x00000000000433d8     0x8028 main.o
                0x00000000000433d8                suicide_bomb_acmd_game
                0x00000000000433e0                get_param_float_original
                0x00000000000433e8                orig_ctx
                0x00000000000433f0                orig_main_thread
                0x00000000000433f8                orig_saved_lr
 .bss           0x000000000004b400        0x8 saltysd_helper.o
                0x000000000004b400                ANCHOR_ABS
 .bss.g_argv_empty
                0x000000000004b408        0x8 S:/UltimateEnvironment/code-mod-example/param-replace/code-mod-framework/lib/libnx_min/nx/lib\libnx_min.a(argv.o)
 .bss.g_hasRandomSeed
                0x000000000004b410        0x1 S:/UltimateEnvironment/code-mod-example/param-replace/code-mod-framework/lib/libnx_min/nx/lib\libnx_min.a(env.o)
 .bss.g_isNso   0x000000000004b411        0x1 S:/UltimateEnvironment/code-mod-example/param-replace/code-mod-framework/lib/libnx_min/nx/lib\libnx_min.a(env.o)
 *fill*         0x000000000004b412        0x2 
 .bss.g_lastLoadResult
                0x000000000004b414        0x4 S:/UltimateEnvironment/code-mod-example/param-replace/code-mod-framework/lib/libnx_min/nx/lib\libnx_min.a(env.o)
 .bss.g_loaderRetAddr
                0x000000000004b418        0x8 S:/UltimateEnvironment/code-mod-example/param-replace/code-mod-framework/lib/libnx_min/nx/lib\libnx_min.a(env.o)
 .bss.g_mainThreadHandle
                0x000000000004b420        0x4 S:/UltimateEnvironment/code-mod-example/param-replace/code-mod-framework/lib/libnx_min/nx/lib\libnx_min.a(env.o)
 *fill*         0x000000000004b424        0x4 
 .bss.g_nextLoadArgv
                0x000000000004b428        0x8 S:/UltimateEnvironment/code-mod-example/param-replace/code-mod-framework/lib/libnx_min/nx/lib\libnx_min.a(env.o)
 .bss.g_nextLoadPath
                0x000000000004b430        0x8 S:/UltimateEnvironment/code-mod-example/param-replace/code-mod-framework/lib/libnx_min/nx/lib\libnx_min.a(env.o)
 .bss.g_overrideArgv
                0x000000000004b438        0x8 S:/UltimateEnvironment/code-mod-example/param-replace/code-mod-framework/lib/libnx_min/nx/lib\libnx_min.a(env.o)
 .bss.g_overrideHeapAddr
                0x000000000004b440        0x8 S:/UltimateEnvironment/code-mod-example/param-replace/code-mod-framework/lib/libnx_min/nx/lib\libnx_min.a(env.o)
 .bss.g_overrideHeapSize
                0x000000000004b448        0x8 S:/UltimateEnvironment/code-mod-example/param-replace/code-mod-framework/lib/libnx_min/nx/lib\libnx_min.a(env.o)
 .bss.g_processHandle
                0x000000000004b450        0x4 S:/UltimateEnvironment/code-mod-example/param-replace/code-mod-framework/lib/libnx_min/nx/lib\libnx_min.a(env.o)
 *fill*         0x000000000004b454        0x4 
 .bss.g_randomSeed
                0x000000000004b458       0x10 S:/UltimateEnvironment/code-mod-example/param-replace/code-mod-framework/lib/libnx_min/nx/lib\libnx_min.a(env.o)
 .bss.g_syscallHints
                0x000000000004b468       0x10 S:/UltimateEnvironment/code-mod-example/param-replace/code-mod-framework/lib/libnx_min/nx/lib\libnx_min.a(env.o)
 .bss.__nx_exception_ignoredebug
                0x000000000004b478        0x4 S:/UltimateEnvironment/code-mod-example/param-replace/code-mod-framework/lib/libnx_min/nx/lib\libnx_min.a(init.o)
                0x000000000004b478                __nx_exception_ignoredebug
 *fill*         0x000000000004b47c        0x4 
 .bss.__nx_exception_stack
                0x000000000004b480      0x400 S:/UltimateEnvironment/code-mod-example/param-replace/code-mod-framework/lib/libnx_min/nx/lib\libnx_min.a(init.o)
                0x000000000004b480                __nx_exception_stack
 .bss.__nx_heap_size
                0x000000000004b880        0x8 S:/UltimateEnvironment/code-mod-example/param-replace/code-mod-framework/lib/libnx_min/nx/lib\libnx_min.a(init.o)
                0x000000000004b880                __nx_heap_size
 .bss.g_hosVersion
                0x000000000004b888        0x4 S:/UltimateEnvironment/code-mod-example/param-replace/code-mod-framework/lib/libnx_min/nx/lib\libnx_min.a(hosversion.o)
 *fill*         0x000000000004b88c        0x4 
 .bss.fsdev_fsdevices
                0x000000000004b890     0x2300 S:/UltimateEnvironment/code-mod-example/param-replace/code-mod-framework/lib/libnx_min/nx/lib\libnx_min.a(fs_dev.o)
 .bss.fsdev_initialised
                0x000000000004db90        0x1 S:/UltimateEnvironment/code-mod-example/param-replace/code-mod-framework/lib/libnx_min/nx/lib\libnx_min.a(fs_dev.o)
 *fill*         0x000000000004db91        0x7 
 .bss.g_AddressSpace
                0x000000000004db98       0x10 S:/UltimateEnvironment/code-mod-example/param-replace/code-mod-framework/lib/libnx_min/nx/lib\libnx_min.a(virtmem.o)
 .bss.g_CurrentAddr
                0x000000000004dba8        0x8 S:/UltimateEnvironment/code-mod-example/param-replace/code-mod-framework/lib/libnx_min/nx/lib\libnx_min.a(virtmem.o)
 .bss.g_CurrentMapAddr
                0x000000000004dbb0        0x8 S:/UltimateEnvironment/code-mod-example/param-replace/code-mod-framework/lib/libnx_min/nx/lib\libnx_min.a(virtmem.o)
 .bss.g_Region  0x000000000004dbb8       0x30 S:/UltimateEnvironment/code-mod-example/param-replace/code-mod-framework/lib/libnx_min/nx/lib\libnx_min.a(virtmem.o)
 .bss.g_VirtMemMutex
                0x000000000004dbe8        0x4 S:/UltimateEnvironment/code-mod-example/param-replace/code-mod-framework/lib/libnx_min/nx/lib\libnx_min.a(virtmem.o)
 *fill*         0x000000000004dbec        0x4 
 .bss.g_fsSrv   0x000000000004dbf0        0xc S:/UltimateEnvironment/code-mod-example/param-replace/code-mod-framework/lib/libnx_min/nx/lib\libnx_min.a(fs.o)
 *fill*         0x000000000004dbfc        0x4 
 .bss.g_refCnt  0x000000000004dc00        0x8 S:/UltimateEnvironment/code-mod-example/param-replace/code-mod-framework/lib/libnx_min/nx/lib\libnx_min.a(fs.o)
 .bss.g_refCnt  0x000000000004dc08        0x8 S:/UltimateEnvironment/code-mod-example/param-replace/code-mod-framework/lib/libnx_min/nx/lib\libnx_min.a(set.o)
 .bss.g_refCntSys
                0x000000000004dc10        0x8 S:/UltimateEnvironment/code-mod-example/param-replace/code-mod-framework/lib/libnx_min/nx/lib\libnx_min.a(set.o)
 .bss.g_setLanguageCodes
                0x000000000004dc18      0x200 S:/UltimateEnvironment/code-mod-example/param-replace/code-mod-framework/lib/libnx_min/nx/lib\libnx_min.a(set.o)
 .bss.g_setLanguageCodesInitialized
                0x000000000004de18        0x1 S:/UltimateEnvironment/code-mod-example/param-replace/code-mod-framework/lib/libnx_min/nx/lib\libnx_min.a(set.o)
 *fill*         0x000000000004de19        0x3 
 .bss.g_setLanguageCodesTotal
                0x000000000004de1c        0x4 S:/UltimateEnvironment/code-mod-example/param-replace/code-mod-framework/lib/libnx_min/nx/lib\libnx_min.a(set.o)
 .bss.g_setSrv  0x000000000004de20        0xc S:/UltimateEnvironment/code-mod-example/param-replace/code-mod-framework/lib/libnx_min/nx/lib\libnx_min.a(set.o)
 *fill*         0x000000000004de2c        0x4 
 .bss.g_setsysSrv
                0x000000000004de30        0xc S:/UltimateEnvironment/code-mod-example/param-replace/code-mod-framework/lib/libnx_min/nx/lib\libnx_min.a(set.o)
 *fill*         0x000000000004de3c        0x4 
 .bss.g_refCnt  0x000000000004de40        0x8 S:/UltimateEnvironment/code-mod-example/param-replace/code-mod-framework/lib/libnx_min/nx/lib\libnx_min.a(sm.o)
 .bss.g_smOverrides
                0x000000000004de48      0x200 S:/UltimateEnvironment/code-mod-example/param-replace/code-mod-framework/lib/libnx_min/nx/lib\libnx_min.a(sm.o)
 .bss.g_smOverridesNum
                0x000000000004e048        0x8 S:/UltimateEnvironment/code-mod-example/param-replace/code-mod-framework/lib/libnx_min/nx/lib\libnx_min.a(sm.o)
 .bss.g_smSrv   0x000000000004e050        0xc S:/UltimateEnvironment/code-mod-example/param-replace/code-mod-framework/lib/libnx_min/nx/lib\libnx_min.a(sm.o)
 *fill*         0x000000000004e05c        0x4 
 .bss.g_controllerDown
                0x000000000004e060       0x50 S:/UltimateEnvironment/code-mod-example/param-replace/code-mod-framework/lib/libnx_min/nx/lib\libnx_min.a(hid.o)
 .bss.g_controllerEntries
                0x000000000004e0b0      0x1e0 S:/UltimateEnvironment/code-mod-example/param-replace/code-mod-framework/lib/libnx_min/nx/lib\libnx_min.a(hid.o)
 .bss.g_controllerHeaders
                0x000000000004e290      0x190 S:/UltimateEnvironment/code-mod-example/param-replace/code-mod-framework/lib/libnx_min/nx/lib\libnx_min.a(hid.o)
 .bss.g_controllerHeld
                0x000000000004e420       0x50 S:/UltimateEnvironment/code-mod-example/param-replace/code-mod-framework/lib/libnx_min/nx/lib\libnx_min.a(hid.o)
 .bss.g_controllerLayout
                0x000000000004e470       0x28 S:/UltimateEnvironment/code-mod-example/param-replace/code-mod-framework/lib/libnx_min/nx/lib\libnx_min.a(hid.o)
 .bss.g_controllerMisc
                0x000000000004e498      0x500 S:/UltimateEnvironment/code-mod-example/param-replace/code-mod-framework/lib/libnx_min/nx/lib\libnx_min.a(hid.o)
 .bss.g_controllerOld
                0x000000000004e998       0x50 S:/UltimateEnvironment/code-mod-example/param-replace/code-mod-framework/lib/libnx_min/nx/lib\libnx_min.a(hid.o)
 .bss.g_controllerP1AutoID
                0x000000000004e9e8        0x4 S:/UltimateEnvironment/code-mod-example/param-replace/code-mod-framework/lib/libnx_min/nx/lib\libnx_min.a(hid.o)
 *fill*         0x000000000004e9ec        0x4 
 .bss.g_controllerTimestamps
                0x000000000004e9f0       0x50 S:/UltimateEnvironment/code-mod-example/param-replace/code-mod-framework/lib/libnx_min/nx/lib\libnx_min.a(hid.o)
 .bss.g_controllerUp
                0x000000000004ea40       0x50 S:/UltimateEnvironment/code-mod-example/param-replace/code-mod-framework/lib/libnx_min/nx/lib\libnx_min.a(hid.o)
 .bss.g_hidIAppletResource
                0x000000000004ea90        0xc S:/UltimateEnvironment/code-mod-example/param-replace/code-mod-framework/lib/libnx_min/nx/lib\libnx_min.a(hid.o)
 *fill*         0x000000000004ea9c        0x4 
 .bss.g_hidLock
                0x000000000004eaa0       0x10 S:/UltimateEnvironment/code-mod-example/param-replace/code-mod-framework/lib/libnx_min/nx/lib\libnx_min.a(hid.o)
 .bss.g_hidSharedmem
                0x000000000004eab0       0x20 S:/UltimateEnvironment/code-mod-example/param-replace/code-mod-framework/lib/libnx_min/nx/lib\libnx_min.a(hid.o)
 .bss.g_hidSrv  0x000000000004ead0        0xc S:/UltimateEnvironment/code-mod-example/param-replace/code-mod-framework/lib/libnx_min/nx/lib\libnx_min.a(hid.o)
 *fill*         0x000000000004eadc        0x4 
 .bss.g_keyboardDown
                0x000000000004eae0       0x20 S:/UltimateEnvironment/code-mod-example/param-replace/code-mod-framework/lib/libnx_min/nx/lib\libnx_min.a(hid.o)
 .bss.g_keyboardEntry
                0x000000000004eb00       0x38 S:/UltimateEnvironment/code-mod-example/param-replace/code-mod-framework/lib/libnx_min/nx/lib\libnx_min.a(hid.o)
 .bss.g_keyboardHeld
                0x000000000004eb38       0x20 S:/UltimateEnvironment/code-mod-example/param-replace/code-mod-framework/lib/libnx_min/nx/lib\libnx_min.a(hid.o)
 .bss.g_keyboardModDown
                0x000000000004eb58        0x8 S:/UltimateEnvironment/code-mod-example/param-replace/code-mod-framework/lib/libnx_min/nx/lib\libnx_min.a(hid.o)
 .bss.g_keyboardModHeld
                0x000000000004eb60        0x8 S:/UltimateEnvironment/code-mod-example/param-replace/code-mod-framework/lib/libnx_min/nx/lib\libnx_min.a(hid.o)
 .bss.g_keyboardModOld
                0x000000000004eb68        0x8 S:/UltimateEnvironment/code-mod-example/param-replace/code-mod-framework/lib/libnx_min/nx/lib\libnx_min.a(hid.o)
 .bss.g_keyboardModUp
                0x000000000004eb70        0x8 S:/UltimateEnvironment/code-mod-example/param-replace/code-mod-framework/lib/libnx_min/nx/lib\libnx_min.a(hid.o)
 .bss.g_keyboardOld
                0x000000000004eb78       0x20 S:/UltimateEnvironment/code-mod-example/param-replace/code-mod-framework/lib/libnx_min/nx/lib\libnx_min.a(hid.o)
 .bss.g_keyboardTimestamp
                0x000000000004eb98        0x8 S:/UltimateEnvironment/code-mod-example/param-replace/code-mod-framework/lib/libnx_min/nx/lib\libnx_min.a(hid.o)
 .bss.g_keyboardUp
                0x000000000004eba0       0x20 S:/UltimateEnvironment/code-mod-example/param-replace/code-mod-framework/lib/libnx_min/nx/lib\libnx_min.a(hid.o)
 .bss.g_mouse   0x000000000004ebc0      0x400 S:/UltimateEnvironment/code-mod-example/param-replace/code-mod-framework/lib/libnx_min/nx/lib\libnx_min.a(hid.o)
 .bss.g_mouseDown
                0x000000000004efc0        0x8 S:/UltimateEnvironment/code-mod-example/param-replace/code-mod-framework/lib/libnx_min/nx/lib\libnx_min.a(hid.o)
 .bss.g_mouseEntry
                0x000000000004efc8        0x8 S:/UltimateEnvironment/code-mod-example/param-replace/code-mod-framework/lib/libnx_min/nx/lib\libnx_min.a(hid.o)
 .bss.g_mouseHeld
                0x000000000004efd0        0x8 S:/UltimateEnvironment/code-mod-example/param-replace/code-mod-framework/lib/libnx_min/nx/lib\libnx_min.a(hid.o)
 .bss.g_mouseOld
                0x000000000004efd8        0x8 S:/UltimateEnvironment/code-mod-example/param-replace/code-mod-framework/lib/libnx_min/nx/lib\libnx_min.a(hid.o)
 .bss.g_mouseTimestamp
                0x000000000004efe0        0x8 S:/UltimateEnvironment/code-mod-example/param-replace/code-mod-framework/lib/libnx_min/nx/lib\libnx_min.a(hid.o)
 .bss.g_mouseUp
                0x000000000004efe8        0x8 S:/UltimateEnvironment/code-mod-example/param-replace/code-mod-framework/lib/libnx_min/nx/lib\libnx_min.a(hid.o)
 .bss.g_refCnt  0x000000000004eff0        0x8 S:/UltimateEnvironment/code-mod-example/param-replace/code-mod-framework/lib/libnx_min/nx/lib\libnx_min.a(hid.o)
 .bss.g_sevenSixAxisSensorBuffer
                0x000000000004eff8        0x8 S:/UltimateEnvironment/code-mod-example/param-replace/code-mod-framework/lib/libnx_min/nx/lib\libnx_min.a(hid.o)
 .bss.g_sevenSixAxisSensorTmem0
                0x000000000004f000       0x28 S:/UltimateEnvironment/code-mod-example/param-replace/code-mod-framework/lib/libnx_min/nx/lib\libnx_min.a(hid.o)
 .bss.g_sevenSixAxisSensorTmem1
                0x000000000004f028       0x28 S:/UltimateEnvironment/code-mod-example/param-replace/code-mod-framework/lib/libnx_min/nx/lib\libnx_min.a(hid.o)
 .bss.g_sixaxisEnabled
                0x000000000004f050        0xa S:/UltimateEnvironment/code-mod-example/param-replace/code-mod-framework/lib/libnx_min/nx/lib\libnx_min.a(hid.o)
 *fill*         0x000000000004f05a        0x6 
 .bss.g_sixaxisLayouts
                0x000000000004f060     0x4650 S:/UltimateEnvironment/code-mod-example/param-replace/code-mod-framework/lib/libnx_min/nx/lib\libnx_min.a(hid.o)
 .bss.g_touchEntry
                0x00000000000536b0      0x298 S:/UltimateEnvironment/code-mod-example/param-replace/code-mod-framework/lib/libnx_min/nx/lib\libnx_min.a(hid.o)
 .bss.g_touchTimestamp
                0x0000000000053948        0x8 S:/UltimateEnvironment/code-mod-example/param-replace/code-mod-framework/lib/libnx_min/nx/lib\libnx_min.a(hid.o)
 .bss.g_refCnt  0x0000000000053950        0x8 S:/UltimateEnvironment/code-mod-example/param-replace/code-mod-framework/lib/libnx_min/nx/lib\libnx_min.a(time.o)
 .bss.g_timeLocalSystemClock
                0x0000000000053958        0xc S:/UltimateEnvironment/code-mod-example/param-replace/code-mod-framework/lib/libnx_min/nx/lib\libnx_min.a(time.o)
 *fill*         0x0000000000053964        0x4 
 .bss.g_timeNetworkSystemClock
                0x0000000000053968        0xc S:/UltimateEnvironment/code-mod-example/param-replace/code-mod-framework/lib/libnx_min/nx/lib\libnx_min.a(time.o)
 *fill*         0x0000000000053974        0x4 
 .bss.g_timeSrv
                0x0000000000053978        0xc S:/UltimateEnvironment/code-mod-example/param-replace/code-mod-framework/lib/libnx_min/nx/lib\libnx_min.a(time.o)
 *fill*         0x0000000000053984        0x4 
 .bss.g_timeTimeZoneService
                0x0000000000053988        0xc S:/UltimateEnvironment/code-mod-example/param-replace/code-mod-framework/lib/libnx_min/nx/lib\libnx_min.a(time.o)
 *fill*         0x0000000000053994        0x4 
 .bss.g_timeUserSystemClock
                0x0000000000053998        0xc S:/UltimateEnvironment/code-mod-example/param-replace/code-mod-framework/lib/libnx_min/nx/lib\libnx_min.a(time.o)
 *fill*         0x00000000000539a4        0x4 
 .bss.__nx_applet_AppletAttribute
                0x00000000000539a8       0x80 S:/UltimateEnvironment/code-mod-example/param-replace/code-mod-framework/lib/libnx_min/nx/lib\libnx_min.a(applet.o)
                0x00000000000539a8                __nx_applet_AppletAttribute
 .bss.__nx_applet_PerformanceConfiguration
                0x0000000000053a28        0x8 S:/UltimateEnvironment/code-mod-example/param-replace/code-mod-framework/lib/libnx_min/nx/lib\libnx_min.a(applet.o)
                0x0000000000053a28                __nx_applet_PerformanceConfiguration
 .bss.__nx_applet_exit_mode
                0x0000000000053a30        0x4 S:/UltimateEnvironment/code-mod-example/param-replace/code-mod-framework/lib/libnx_min/nx/lib\libnx_min.a(applet.o)
                0x0000000000053a30                __nx_applet_exit_mode
 .bss.g_appletCpuBoostMode
                0x0000000000053a34        0x4 S:/UltimateEnvironment/code-mod-example/param-replace/code-mod-framework/lib/libnx_min/nx/lib\libnx_min.a(applet.o)
 .bss.g_appletExitProcessFlag
                0x0000000000053a38        0x1 S:/UltimateEnvironment/code-mod-example/param-replace/code-mod-framework/lib/libnx_min/nx/lib\libnx_min.a(applet.o)
 *fill*         0x0000000000053a39        0x7 
 .bss.g_appletFirstHook
                0x0000000000053a40       0x18 S:/UltimateEnvironment/code-mod-example/param-replace/code-mod-framework/lib/libnx_min/nx/lib\libnx_min.a(applet.o)
 .bss.g_appletFocusState
                0x0000000000053a58        0x1 S:/UltimateEnvironment/code-mod-example/param-replace/code-mod-framework/lib/libnx_min/nx/lib\libnx_min.a(applet.o)
 *fill*         0x0000000000053a59        0x7 
 .bss.g_appletIApplicationCreator
                0x0000000000053a60        0xc S:/UltimateEnvironment/code-mod-example/param-replace/code-mod-framework/lib/libnx_min/nx/lib\libnx_min.a(applet.o)
 *fill*         0x0000000000053a6c        0x4 
 .bss.g_appletIAudioController
                0x0000000000053a70        0xc S:/UltimateEnvironment/code-mod-example/param-replace/code-mod-framework/lib/libnx_min/nx/lib\libnx_min.a(applet.o)
 *fill*         0x0000000000053a7c        0x4 
 .bss.g_appletICommonStateGetter
                0x0000000000053a80        0xc S:/UltimateEnvironment/code-mod-example/param-replace/code-mod-framework/lib/libnx_min/nx/lib\libnx_min.a(applet.o)
 *fill*         0x0000000000053a8c        0x4 
 .bss.g_appletIDebugFunctions
                0x0000000000053a90        0xc S:/UltimateEnvironment/code-mod-example/param-replace/code-mod-framework/lib/libnx_min/nx/lib\libnx_min.a(applet.o)
 *fill*         0x0000000000053a9c        0x4 
 .bss.g_appletIDisplayController
                0x0000000000053aa0        0xc S:/UltimateEnvironment/code-mod-example/param-replace/code-mod-framework/lib/libnx_min/nx/lib\libnx_min.a(applet.o)
 *fill*         0x0000000000053aac        0x4 
 .bss.g_appletIFunctions
                0x0000000000053ab0        0xc S:/UltimateEnvironment/code-mod-example/param-replace/code-mod-framework/lib/libnx_min/nx/lib\libnx_min.a(applet.o)
 *fill*         0x0000000000053abc        0x4 
 .bss.g_appletIGlobalStateController
                0x0000000000053ac0        0xc S:/UltimateEnvironment/code-mod-example/param-replace/code-mod-framework/lib/libnx_min/nx/lib\libnx_min.a(applet.o)
 *fill*         0x0000000000053acc        0x4 
 .bss.g_appletILibraryAppletCreator
                0x0000000000053ad0        0xc S:/UltimateEnvironment/code-mod-example/param-replace/code-mod-framework/lib/libnx_min/nx/lib\libnx_min.a(applet.o)
 *fill*         0x0000000000053adc        0x4 
 .bss.g_appletILibraryAppletSelfAccessor
                0x0000000000053ae0        0xc S:/UltimateEnvironment/code-mod-example/param-replace/code-mod-framework/lib/libnx_min/nx/lib\libnx_min.a(applet.o)
 *fill*         0x0000000000053aec        0x4 
 .bss.g_appletIProcessWindingController
                0x0000000000053af0        0xc S:/UltimateEnvironment/code-mod-example/param-replace/code-mod-framework/lib/libnx_min/nx/lib\libnx_min.a(applet.o)
 *fill*         0x0000000000053afc        0x4 
 .bss.g_appletISelfController
                0x0000000000053b00        0xc S:/UltimateEnvironment/code-mod-example/param-replace/code-mod-framework/lib/libnx_min/nx/lib\libnx_min.a(applet.o)
 *fill*         0x0000000000053b0c        0x4 
 .bss.g_appletIWindowController
                0x0000000000053b10        0xc S:/UltimateEnvironment/code-mod-example/param-replace/code-mod-framework/lib/libnx_min/nx/lib\libnx_min.a(applet.o)
 *fill*         0x0000000000053b1c        0x4 
 .bss.g_appletLibraryAppletLaunchableEvent
                0x0000000000053b20        0xc S:/UltimateEnvironment/code-mod-example/param-replace/code-mod-framework/lib/libnx_min/nx/lib\libnx_min.a(applet.o)
 *fill*         0x0000000000053b2c        0x4 
 .bss.g_appletMessageEvent
                0x0000000000053b30        0xc S:/UltimateEnvironment/code-mod-example/param-replace/code-mod-framework/lib/libnx_min/nx/lib\libnx_min.a(applet.o)
 .bss.g_appletNotifiedRunning
                0x0000000000053b3c        0x1 S:/UltimateEnvironment/code-mod-example/param-replace/code-mod-framework/lib/libnx_min/nx/lib\libnx_min.a(applet.o)
 .bss.g_appletOperationMode
                0x0000000000053b3d        0x1 S:/UltimateEnvironment/code-mod-example/param-replace/code-mod-framework/lib/libnx_min/nx/lib\libnx_min.a(applet.o)
 *fill*         0x0000000000053b3e        0x2 
 .bss.g_appletPerformanceMode
                0x0000000000053b40        0x4 S:/UltimateEnvironment/code-mod-example/param-replace/code-mod-framework/lib/libnx_min/nx/lib\libnx_min.a(applet.o)
 *fill*         0x0000000000053b44        0x4 
 .bss.g_appletProxySession
                0x0000000000053b48        0xc S:/UltimateEnvironment/code-mod-example/param-replace/code-mod-framework/lib/libnx_min/nx/lib\libnx_min.a(applet.o)
 .bss.g_appletRecordingInitialized
                0x0000000000053b54        0x4 S:/UltimateEnvironment/code-mod-example/param-replace/code-mod-framework/lib/libnx_min/nx/lib\libnx_min.a(applet.o)
 .bss.g_appletRecordingTmem
                0x0000000000053b58       0x28 S:/UltimateEnvironment/code-mod-example/param-replace/code-mod-framework/lib/libnx_min/nx/lib\libnx_min.a(applet.o)
 .bss.g_appletResourceUserId
                0x0000000000053b80        0x8 S:/UltimateEnvironment/code-mod-example/param-replace/code-mod-framework/lib/libnx_min/nx/lib\libnx_min.a(applet.o)
 .bss.g_appletSrv
                0x0000000000053b88        0xc S:/UltimateEnvironment/code-mod-example/param-replace/code-mod-framework/lib/libnx_min/nx/lib\libnx_min.a(applet.o)
 .bss.g_appletThemeColorType
                0x0000000000053b94        0x4 S:/UltimateEnvironment/code-mod-example/param-replace/code-mod-framework/lib/libnx_min/nx/lib\libnx_min.a(applet.o)
 .bss.g_refCnt  0x0000000000053b98        0x8 S:/UltimateEnvironment/code-mod-example/param-replace/code-mod-framework/lib/libnx_min/nx/lib\libnx_min.a(applet.o)
 .bss.__bootticks
                0x0000000000053ba0        0x8 S:/UltimateEnvironment/code-mod-example/param-replace/code-mod-framework/lib/libnx_min/nx/lib\libnx_min.a(newlib.o)
 .bss.__boottime
                0x0000000000053ba8        0x8 S:/UltimateEnvironment/code-mod-example/param-replace/code-mod-framework/lib/libnx_min/nx/lib\libnx_min.a(newlib.o)
 .bss.__nx_time_type
                0x0000000000053bb0        0x4 S:/UltimateEnvironment/code-mod-example/param-replace/code-mod-framework/lib/libnx_min/nx/lib\libnx_min.a(newlib.o)
                0x0000000000053bb0                __nx_time_type
 *fill*         0x0000000000053bb4        0x4 
 .bss.g_threadList
                0x0000000000053bb8        0x8 S:/UltimateEnvironment/code-mod-example/param-replace/code-mod-framework/lib/libnx_min/nx/lib\libnx_min.a(thread.o)
 .bss.g_threadMutex
                0x0000000000053bc0        0x4 S:/UltimateEnvironment/code-mod-example/param-replace/code-mod-framework/lib/libnx_min/nx/lib\libnx_min.a(thread.o)
 *fill*         0x0000000000053bc4        0x4 
 .bss.g_tlsDestructors
                0x0000000000053bc8       0xd0 S:/UltimateEnvironment/code-mod-example/param-replace/code-mod-framework/lib/libnx_min/nx/lib\libnx_min.a(thread.o)
 .bss.g_tlsUsageMask
                0x0000000000053c98        0x8 S:/UltimateEnvironment/code-mod-example/param-replace/code-mod-framework/lib/libnx_min/nx/lib\libnx_min.a(thread.o)
 .bss.g_JitKernelPatchCached
                0x0000000000053ca0        0x1 S:/UltimateEnvironment/code-mod-example/param-replace/code-mod-framework/lib/libnx_min/nx/lib\libnx_min.a(detect.o)
 .bss.g_JitKernelPatchDetected
                0x0000000000053ca1        0x1 S:/UltimateEnvironment/code-mod-example/param-replace/code-mod-framework/lib/libnx_min/nx/lib\libnx_min.a(detect.o)
 *fill*         0x0000000000053ca2        0x2 
 .bss.g_JitKernelPatchMutex
                0x0000000000053ca4        0x4 S:/UltimateEnvironment/code-mod-example/param-replace/code-mod-framework/lib/libnx_min/nx/lib\libnx_min.a(detect.o)
 .bss.g_Version
                0x0000000000053ca8        0x4 S:/UltimateEnvironment/code-mod-example/param-replace/code-mod-framework/lib/libnx_min/nx/lib\libnx_min.a(detect.o)
 .bss.g_VersionCached
                0x0000000000053cac        0x1 S:/UltimateEnvironment/code-mod-example/param-replace/code-mod-framework/lib/libnx_min/nx/lib\libnx_min.a(detect.o)
 *fill*         0x0000000000053cad        0x3 
 .bss.g_VersionMutex
                0x0000000000053cb0        0x4 S:/UltimateEnvironment/code-mod-example/param-replace/code-mod-framework/lib/libnx_min/nx/lib\libnx_min.a(detect.o)
 *fill*         0x0000000000053cb4        0x4 
 .bss.g_apmISession
                0x0000000000053cb8        0xc S:/UltimateEnvironment/code-mod-example/param-replace/code-mod-framework/lib/libnx_min/nx/lib\libnx_min.a(apm.o)
 *fill*         0x0000000000053cc4        0x4 
 .bss.g_apmSrv  0x0000000000053cc8        0xc S:/UltimateEnvironment/code-mod-example/param-replace/code-mod-framework/lib/libnx_min/nx/lib\libnx_min.a(apm.o)
 *fill*         0x0000000000053cd4        0x4 
 .bss.g_refCnt  0x0000000000053cd8        0x8 S:/UltimateEnvironment/code-mod-example/param-replace/code-mod-framework/lib/libnx_min/nx/lib\libnx_min.a(apm.o)
 .bss.__malloc_current_mallinfo
                0x0000000000053ce0       0x28 c:/devkitpro/devkita64/bin/../lib/gcc/aarch64-none-elf/8.3.0/../../../../aarch64-none-elf/lib/pic\libg.a(lib_a-mallocr.o)
                0x0000000000053ce0                __malloc_current_mallinfo
 .bss.__malloc_max_sbrked_mem
                0x0000000000053d08        0x8 c:/devkitpro/devkita64/bin/../lib/gcc/aarch64-none-elf/8.3.0/../../../../aarch64-none-elf/lib/pic\libg.a(lib_a-mallocr.o)
                0x0000000000053d08                __malloc_max_sbrked_mem
 .bss.__malloc_max_total_mem
                0x0000000000053d10        0x8 c:/devkitpro/devkita64/bin/../lib/gcc/aarch64-none-elf/8.3.0/../../../../aarch64-none-elf/lib/pic\libg.a(lib_a-mallocr.o)
                0x0000000000053d10                __malloc_max_total_mem
 .bss.__malloc_top_pad
                0x0000000000053d18        0x8 c:/devkitpro/devkita64/bin/../lib/gcc/aarch64-none-elf/8.3.0/../../../../aarch64-none-elf/lib/pic\libg.a(lib_a-mallocr.o)
                0x0000000000053d18                __malloc_top_pad
 .bss.__malloc_recursive_mutex
                0x0000000000053d20        0xc c:/devkitpro/devkita64/bin/../lib/gcc/aarch64-none-elf/8.3.0/../../../../aarch64-none-elf/lib/pic\libg.a(lib_a-mlock.o)
 .bss.alloced.4086
                0x0000000000053d2c        0x4 c:/devkitpro/devkita64/bin/../lib/gcc/aarch64-none-elf/8.3.0/../../../../aarch64-none-elf/lib/pic\libg.a(lib_a-setenv_r.o)
 .bss.__atexit_recursive_mutex
                0x0000000000053d30        0xc c:/devkitpro/devkita64/bin/../lib/gcc/aarch64-none-elf/8.3.0/../../../../aarch64-none-elf/lib/pic\libg.a(lib_a-__call_atexit.o)
                0x0000000000053d30                __atexit_recursive_mutex
 *fill*         0x0000000000053d3c        0x4 
 .bss.initial_env
                0x0000000000053d40        0x8 c:/devkitpro/devkita64/bin/../lib/gcc/aarch64-none-elf/8.3.0/../../../../aarch64-none-elf/lib/pic\libg.a(lib_a-environ.o)
 .bss.__env_recursive_mutex
                0x0000000000053d48        0xc c:/devkitpro/devkita64/bin/../lib/gcc/aarch64-none-elf/8.3.0/../../../../aarch64-none-elf/lib/pic\libg.a(lib_a-envlock.o)
 *fill*         0x0000000000053d54        0x4 
 .bss._PathLocale
                0x0000000000053d58        0x8 c:/devkitpro/devkita64/bin/../lib/gcc/aarch64-none-elf/8.3.0/../../../../aarch64-none-elf/lib/pic\libg.a(lib_a-locale.o)
                0x0000000000053d58                _PathLocale
 .bss.global_locale_string
                0x0000000000053d60       0xe7 c:/devkitpro/devkita64/bin/../lib/gcc/aarch64-none-elf/8.3.0/../../../../aarch64-none-elf/lib/pic\libg.a(lib_a-locale.o)
 *fill*         0x0000000000053e47        0x1 
 .bss.new_categories.4568
                0x0000000000053e48       0xe0 c:/devkitpro/devkita64/bin/../lib/gcc/aarch64-none-elf/8.3.0/../../../../aarch64-none-elf/lib/pic\libg.a(lib_a-locale.o)
 .bss.saved_categories.4569
                0x0000000000053f28       0xe0 c:/devkitpro/devkita64/bin/../lib/gcc/aarch64-none-elf/8.3.0/../../../../aarch64-none-elf/lib/pic\libg.a(lib_a-locale.o)
 .bss.heap_start.5295
                0x0000000000054008        0x8 c:/devkitpro/devkita64/bin/../lib/gcc/aarch64-none-elf/8.3.0/../../../../aarch64-none-elf/lib/pic\libsysbase.a(sbrk.o)
 .bss.fake_heap_end
                0x0000000000054010        0x8 c:/devkitpro/devkita64/bin/../lib/gcc/aarch64-none-elf/8.3.0/../../../../aarch64-none-elf/lib/pic\libsysbase.a(malloc_vars.o)
                0x0000000000054010                fake_heap_end
 .bss.fake_heap_start
                0x0000000000054018        0x8 c:/devkitpro/devkita64/bin/../lib/gcc/aarch64-none-elf/8.3.0/../../../../aarch64-none-elf/lib/pic\libsysbase.a(malloc_vars.o)
                0x0000000000054018                fake_heap_start
 .bss.temp_cwd  0x0000000000054020      0x400 c:/devkitpro/devkita64/bin/../lib/gcc/aarch64-none-elf/8.3.0/../../../../aarch64-none-elf/lib/pic\libsysbase.a(chdir.o)
 *(COMMON)
 COMMON         0x0000000000054420        0xc S:/UltimateEnvironment/code-mod-example/param-replace/code-mod-framework/lib/libnx_min/nx/lib\libnx_min.a(argv.o)
                0x0000000000054420                __system_argv
                0x0000000000054428                __system_argc
 *fill*         0x000000000005442c        0x4 
 COMMON         0x0000000000054430      0x348 S:/UltimateEnvironment/code-mod-example/param-replace/code-mod-framework/lib/libnx_min/nx/lib\libnx_min.a(init.o)
                0x0000000000054430                __nx_exceptiondump
                0x0000000000054770                __stack_top
                0x0000000000054778                . = ALIGN (0x8)
                0x0000000000054778                __tls_start = .
                0x0000000000058b80                . = (. + (SIZEOF (.tdata) + SIZEOF (.tbss)))
 *fill*         0x0000000000054778     0x4408 
                0x0000000000058b80                __tls_end = .
                0x0000000000058b80                __bss_end__ = .
                0x0000000000058b80                __end__ = ABSOLUTE (.)
                0x0000000000059000                . = ALIGN (0x1000)
                0x0000000000059000                __argdata__ = ABSOLUTE (.)

/DISCARD/
 *(.group .comment .note)

.stab
 *(.stab)

.stabstr
 *(.stabstr)

.stab.excl
 *(.stab.excl)

.stab.exclstr
 *(.stab.exclstr)

.stab.index
 *(.stab.index)

.stab.indexstr
 *(.stab.indexstr)

.debug
 *(.debug)

.line
 *(.line)

.debug_srcinfo
 *(.debug_srcinfo)

.debug_sfnames
 *(.debug_sfnames)

.debug_aranges
 *(.debug_aranges)

.debug_pubnames
 *(.debug_pubnames)

.debug_info
 *(.debug_info)

.debug_abbrev
 *(.debug_abbrev)

.debug_line
 *(.debug_line)

.debug_frame
 *(.debug_frame)

.debug_str
 *(.debug_str)

.debug_loc
 *(.debug_loc)

.debug_macinfo
 *(.debug_macinfo)
LOAD c:/devkitpro/devkita64/bin/../lib/gcc/aarch64-none-elf/8.3.0/pic/crti.o
LOAD c:/devkitpro/devkita64/bin/../lib/gcc/aarch64-none-elf/8.3.0/pic/crtbegin.o
LOAD main.o
LOAD acmd_wrapper.o
LOAD saltysd_helper.o
LOAD lua_bind_hash.o
LOAD l2c_imports.o
LOAD raygun_printer.o
LOAD S:/UltimateEnvironment/code-mod-example/param-replace/code-mod-framework/lib/libnx_min/nx/lib\libnx_min.a
LOAD c:/devkitpro/devkita64/bin/../lib/gcc/aarch64-none-elf/8.3.0/../../../../aarch64-none-elf/lib/pic\libstdc++.a
LOAD c:/devkitpro/devkita64/bin/../lib/gcc/aarch64-none-elf/8.3.0/../../../../aarch64-none-elf/lib/pic\libm.a
START GROUP
LOAD c:/devkitpro/devkita64/bin/../lib/gcc/aarch64-none-elf/8.3.0/pic\libgcc.a
LOAD c:/devkitpro/devkita64/bin/../lib/gcc/aarch64-none-elf/8.3.0/../../../../aarch64-none-elf/lib/pic\libg.a
LOAD c:/devkitpro/devkita64/bin/../lib/gcc/aarch64-none-elf/8.3.0/../../../../aarch64-none-elf/lib/pic\libc.a
LOAD c:/devkitpro/devkita64/bin/../lib/gcc/aarch64-none-elf/8.3.0/../../../../aarch64-none-elf/lib/pic\libsysbase.a
END GROUP
LOAD c:/devkitpro/devkita64/bin/../lib/gcc/aarch64-none-elf/8.3.0/pic/crtend.o
LOAD c:/devkitpro/devkita64/bin/../lib/gcc/aarch64-none-elf/8.3.0/pic/crtn.o
OUTPUT(S:/UltimateEnvironment/code-mod-example/param-replace/my_plugin.elf elf64-littleaarch64)
