Archive member included to satisfy reference by file (symbol)

S:/UltimateEnvironment/code-mod-example/param-replace/code-mod-framework/lib/libnx_min/nx/lib\libnx_min.a(switch_crt0.o)
                              (_start)
S:/UltimateEnvironment/code-mod-example/param-replace/code-mod-framework/lib/libnx_min/nx/lib\libnx_min.a(exception.o)
                              S:/UltimateEnvironment/code-mod-example/param-replace/code-mod-framework/lib/libnx_min/nx/lib\libnx_min.a(switch_crt0.o) (__libnx_exception_entry)
S:/UltimateEnvironment/code-mod-example/param-replace/code-mod-framework/lib/libnx_min/nx/lib\libnx_min.a(argv.o)
                              S:/UltimateEnvironment/code-mod-example/param-replace/code-mod-framework/lib/libnx_min/nx/lib\libnx_min.a(switch_crt0.o) (__system_argv)
S:/UltimateEnvironment/code-mod-example/param-replace/code-mod-framework/lib/libnx_min/nx/lib\libnx_min.a(env.o)
                              S:/UltimateEnvironment/code-mod-example/param-replace/code-mod-framework/lib/libnx_min/nx/lib\libnx_min.a(argv.o) (envIsNso)
S:/UltimateEnvironment/code-mod-example/param-replace/code-mod-framework/lib/libnx_min/nx/lib\libnx_min.a(init.o)
                              S:/UltimateEnvironment/code-mod-example/param-replace/code-mod-framework/lib/libnx_min/nx/lib\libnx_min.a(exception.o) (__nx_exceptiondump)
S:/UltimateEnvironment/code-mod-example/param-replace/code-mod-framework/lib/libnx_min/nx/lib\libnx_min.a(hosversion.o)
                              S:/UltimateEnvironment/code-mod-example/param-replace/code-mod-framework/lib/libnx_min/nx/lib\libnx_min.a(init.o) (hosversionSet)
S:/UltimateEnvironment/code-mod-example/param-replace/code-mod-framework/lib/libnx_min/nx/lib\libnx_min.a(dynamic.o)
                              S:/UltimateEnvironment/code-mod-example/param-replace/code-mod-framework/lib/libnx_min/nx/lib\libnx_min.a(switch_crt0.o) (__nx_dynamic)
S:/UltimateEnvironment/code-mod-example/param-replace/code-mod-framework/lib/libnx_min/nx/lib\libnx_min.a(fs_dev.o)
                              S:/UltimateEnvironment/code-mod-example/param-replace/code-mod-framework/lib/libnx_min/nx/lib\libnx_min.a(init.o) (fsdevMountSdmc)
S:/UltimateEnvironment/code-mod-example/param-replace/code-mod-framework/lib/libnx_min/nx/lib\libnx_min.a(decode_utf8.o)
                              S:/UltimateEnvironment/code-mod-example/param-replace/code-mod-framework/lib/libnx_min/nx/lib\libnx_min.a(fs_dev.o) (decode_utf8)
S:/UltimateEnvironment/code-mod-example/param-replace/code-mod-framework/lib/libnx_min/nx/lib\libnx_min.a(svc.o)
                              S:/UltimateEnvironment/code-mod-example/param-replace/code-mod-framework/lib/libnx_min/nx/lib\libnx_min.a(init.o) (svcSetHeapSize)
S:/UltimateEnvironment/code-mod-example/param-replace/code-mod-framework/lib/libnx_min/nx/lib\libnx_min.a(readtp.o)
                              S:/UltimateEnvironment/code-mod-example/param-replace/code-mod-framework/lib/libnx_min/nx/lib\libnx_min.a(fs_dev.o) (__aarch64_read_tp)
S:/UltimateEnvironment/code-mod-example/param-replace/code-mod-framework/lib/libnx_min/nx/lib\libnx_min.a(virtmem.o)
                              S:/UltimateEnvironment/code-mod-example/param-replace/code-mod-framework/lib/libnx_min/nx/lib\libnx_min.a(init.o) (virtmemSetup)
S:/UltimateEnvironment/code-mod-example/param-replace/code-mod-framework/lib/libnx_min/nx/lib\libnx_min.a(mutex.o)
                              S:/UltimateEnvironment/code-mod-example/param-replace/code-mod-framework/lib/libnx_min/nx/lib\libnx_min.a(virtmem.o) (mutexLock)
S:/UltimateEnvironment/code-mod-example/param-replace/code-mod-framework/lib/libnx_min/nx/lib\libnx_min.a(fs.o)
                              S:/UltimateEnvironment/code-mod-example/param-replace/code-mod-framework/lib/libnx_min/nx/lib\libnx_min.a(init.o) (fsInitialize)
S:/UltimateEnvironment/code-mod-example/param-replace/code-mod-framework/lib/libnx_min/nx/lib\libnx_min.a(set.o)
                              S:/UltimateEnvironment/code-mod-example/param-replace/code-mod-framework/lib/libnx_min/nx/lib\libnx_min.a(init.o) (setsysInitialize)
S:/UltimateEnvironment/code-mod-example/param-replace/code-mod-framework/lib/libnx_min/nx/lib\libnx_min.a(fatal.o)
                              S:/UltimateEnvironment/code-mod-example/param-replace/code-mod-framework/lib/libnx_min/nx/lib\libnx_min.a(env.o) (fatalSimple)
S:/UltimateEnvironment/code-mod-example/param-replace/code-mod-framework/lib/libnx_min/nx/lib\libnx_min.a(sm.o)
                              S:/UltimateEnvironment/code-mod-example/param-replace/code-mod-framework/lib/libnx_min/nx/lib\libnx_min.a(env.o) (smAddOverrideHandle)
S:/UltimateEnvironment/code-mod-example/param-replace/code-mod-framework/lib/libnx_min/nx/lib\libnx_min.a(hid.o)
                              S:/UltimateEnvironment/code-mod-example/param-replace/code-mod-framework/lib/libnx_min/nx/lib\libnx_min.a(init.o) (hidExit)
S:/UltimateEnvironment/code-mod-example/param-replace/code-mod-framework/lib/libnx_min/nx/lib\libnx_min.a(time.o)
                              S:/UltimateEnvironment/code-mod-example/param-replace/code-mod-framework/lib/libnx_min/nx/lib\libnx_min.a(init.o) (timeExit)
S:/UltimateEnvironment/code-mod-example/param-replace/code-mod-framework/lib/libnx_min/nx/lib\libnx_min.a(applet.o)
                              S:/UltimateEnvironment/code-mod-example/param-replace/code-mod-framework/lib/libnx_min/nx/lib\libnx_min.a(hid.o) (appletGetAppletResourceUserId)
S:/UltimateEnvironment/code-mod-example/param-replace/code-mod-framework/lib/libnx_min/nx/lib\libnx_min.a(newlib.o)
                              S:/UltimateEnvironment/code-mod-example/param-replace/code-mod-framework/lib/libnx_min/nx/lib\libnx_min.a(init.o) (__libnx_init_time)
S:/UltimateEnvironment/code-mod-example/param-replace/code-mod-framework/lib/libnx_min/nx/lib\libnx_min.a(thread.o)
                              S:/UltimateEnvironment/code-mod-example/param-replace/code-mod-framework/lib/libnx_min/nx/lib\libnx_min.a(newlib.o) (threadCreate)
S:/UltimateEnvironment/code-mod-example/param-replace/code-mod-framework/lib/libnx_min/nx/lib\libnx_min.a(condvar.o)
                              S:/UltimateEnvironment/code-mod-example/param-replace/code-mod-framework/lib/libnx_min/nx/lib\libnx_min.a(newlib.o) (condvarWaitTimeout)
S:/UltimateEnvironment/code-mod-example/param-replace/code-mod-framework/lib/libnx_min/nx/lib\libnx_min.a(event.o)
                              S:/UltimateEnvironment/code-mod-example/param-replace/code-mod-framework/lib/libnx_min/nx/lib\libnx_min.a(set.o) (eventLoadRemote)
S:/UltimateEnvironment/code-mod-example/param-replace/code-mod-framework/lib/libnx_min/nx/lib\libnx_min.a(tmem.o)
                              S:/UltimateEnvironment/code-mod-example/param-replace/code-mod-framework/lib/libnx_min/nx/lib\libnx_min.a(applet.o) (tmemCreate)
S:/UltimateEnvironment/code-mod-example/param-replace/code-mod-framework/lib/libnx_min/nx/lib\libnx_min.a(rwlock.o)
                              S:/UltimateEnvironment/code-mod-example/param-replace/code-mod-framework/lib/libnx_min/nx/lib\libnx_min.a(hid.o) (rwlockReadLock)
S:/UltimateEnvironment/code-mod-example/param-replace/code-mod-framework/lib/libnx_min/nx/lib\libnx_min.a(wait.o)
                              S:/UltimateEnvironment/code-mod-example/param-replace/code-mod-framework/lib/libnx_min/nx/lib\libnx_min.a(applet.o) (waitObjects)
S:/UltimateEnvironment/code-mod-example/param-replace/code-mod-framework/lib/libnx_min/nx/lib\libnx_min.a(shmem.o)
                              S:/UltimateEnvironment/code-mod-example/param-replace/code-mod-framework/lib/libnx_min/nx/lib\libnx_min.a(hid.o) (shmemLoadRemote)
S:/UltimateEnvironment/code-mod-example/param-replace/code-mod-framework/lib/libnx_min/nx/lib\libnx_min.a(detect.o)
                              S:/UltimateEnvironment/code-mod-example/param-replace/code-mod-framework/lib/libnx_min/nx/lib\libnx_min.a(fatal.o) (detectKernelVersion)
S:/UltimateEnvironment/code-mod-example/param-replace/code-mod-framework/lib/libnx_min/nx/lib\libnx_min.a(apm.o)
                              S:/UltimateEnvironment/code-mod-example/param-replace/code-mod-framework/lib/libnx_min/nx/lib\libnx_min.a(applet.o) (apmExit)
c:/devkitpro/devkita64/bin/../lib/gcc/aarch64-none-elf/8.3.0/../../../../aarch64-none-elf/lib/pic\libg.a(lib_a-bsearch.o)
                              S:/UltimateEnvironment/code-mod-example/param-replace/code-mod-framework/lib/libnx_min/nx/lib\libnx_min.a(fs_dev.o) (bsearch)
c:/devkitpro/devkita64/bin/../lib/gcc/aarch64-none-elf/8.3.0/../../../../aarch64-none-elf/lib/pic\libg.a(lib_a-ctype_.o)
                              S:/UltimateEnvironment/code-mod-example/param-replace/code-mod-framework/lib/libnx_min/nx/lib\libnx_min.a(argv.o) (_ctype_)
c:/devkitpro/devkita64/bin/../lib/gcc/aarch64-none-elf/8.3.0/../../../../aarch64-none-elf/lib/pic\libg.a(lib_a-errno.o)
                              S:/UltimateEnvironment/code-mod-example/param-replace/code-mod-framework/lib/libnx_min/nx/lib\libnx_min.a(fs_dev.o) (__errno)
c:/devkitpro/devkita64/bin/../lib/gcc/aarch64-none-elf/8.3.0/../../../../aarch64-none-elf/lib/pic\libg.a(lib_a-exit.o)
                              S:/UltimateEnvironment/code-mod-example/param-replace/code-mod-framework/lib/libnx_min/nx/lib\libnx_min.a(switch_crt0.o) (exit)
c:/devkitpro/devkita64/bin/../lib/gcc/aarch64-none-elf/8.3.0/../../../../aarch64-none-elf/lib/pic\libg.a(lib_a-fini.o)
                              main.o (__libc_fini_array)
c:/devkitpro/devkita64/bin/../lib/gcc/aarch64-none-elf/8.3.0/../../../../aarch64-none-elf/lib/pic\libg.a(lib_a-impure.o)
                              c:/devkitpro/devkita64/bin/../lib/gcc/aarch64-none-elf/8.3.0/../../../../aarch64-none-elf/lib/pic\libg.a(lib_a-exit.o) (_global_impure_ptr)
c:/devkitpro/devkita64/bin/../lib/gcc/aarch64-none-elf/8.3.0/../../../../aarch64-none-elf/lib/pic\libg.a(lib_a-init.o)
                              main.o (__libc_init_array)
c:/devkitpro/devkita64/bin/../lib/gcc/aarch64-none-elf/8.3.0/../../../../aarch64-none-elf/lib/pic\libg.a(lib_a-malign.o)
                              S:/UltimateEnvironment/code-mod-example/param-replace/code-mod-framework/lib/libnx_min/nx/lib\libnx_min.a(hid.o) (memalign)
c:/devkitpro/devkita64/bin/../lib/gcc/aarch64-none-elf/8.3.0/../../../../aarch64-none-elf/lib/pic\libg.a(lib_a-malignr.o)
                              c:/devkitpro/devkita64/bin/../lib/gcc/aarch64-none-elf/8.3.0/../../../../aarch64-none-elf/lib/pic\libg.a(lib_a-malign.o) (_memalign_r)
c:/devkitpro/devkita64/bin/../lib/gcc/aarch64-none-elf/8.3.0/../../../../aarch64-none-elf/lib/pic\libg.a(lib_a-malloc.o)
                              S:/UltimateEnvironment/code-mod-example/param-replace/code-mod-framework/lib/libnx_min/nx/lib\libnx_min.a(newlib.o) (malloc)
c:/devkitpro/devkita64/bin/../lib/gcc/aarch64-none-elf/8.3.0/../../../../aarch64-none-elf/lib/pic\libg.a(lib_a-mallocr.o)
                              c:/devkitpro/devkita64/bin/../lib/gcc/aarch64-none-elf/8.3.0/../../../../aarch64-none-elf/lib/pic\libg.a(lib_a-malignr.o) (_malloc_r)
c:/devkitpro/devkita64/bin/../lib/gcc/aarch64-none-elf/8.3.0/../../../../aarch64-none-elf/lib/pic\libg.a(lib_a-memcpy.o)
                              S:/UltimateEnvironment/code-mod-example/param-replace/code-mod-framework/lib/libnx_min/nx/lib\libnx_min.a(fs_dev.o) (memcpy)
c:/devkitpro/devkita64/bin/../lib/gcc/aarch64-none-elf/8.3.0/../../../../aarch64-none-elf/lib/pic\libg.a(lib_a-memset.o)
                              S:/UltimateEnvironment/code-mod-example/param-replace/code-mod-framework/lib/libnx_min/nx/lib\libnx_min.a(argv.o) (memset)
c:/devkitpro/devkita64/bin/../lib/gcc/aarch64-none-elf/8.3.0/../../../../aarch64-none-elf/lib/pic\libg.a(lib_a-mlock.o)
                              c:/devkitpro/devkita64/bin/../lib/gcc/aarch64-none-elf/8.3.0/../../../../aarch64-none-elf/lib/pic\libg.a(lib_a-malignr.o) (__malloc_lock)
c:/devkitpro/devkita64/bin/../lib/gcc/aarch64-none-elf/8.3.0/../../../../aarch64-none-elf/lib/pic\libg.a(lib_a-setenv.o)
                              S:/UltimateEnvironment/code-mod-example/param-replace/code-mod-framework/lib/libnx_min/nx/lib\libnx_min.a(newlib.o) (setenv)
c:/devkitpro/devkita64/bin/../lib/gcc/aarch64-none-elf/8.3.0/../../../../aarch64-none-elf/lib/pic\libg.a(lib_a-setenv_r.o)
                              c:/devkitpro/devkita64/bin/../lib/gcc/aarch64-none-elf/8.3.0/../../../../aarch64-none-elf/lib/pic\libg.a(lib_a-setenv.o) (_setenv_r)
c:/devkitpro/devkita64/bin/../lib/gcc/aarch64-none-elf/8.3.0/../../../../aarch64-none-elf/lib/pic\libg.a(lib_a-strchr.o)
                              raygun_printer.o (strchr)
c:/devkitpro/devkita64/bin/../lib/gcc/aarch64-none-elf/8.3.0/../../../../aarch64-none-elf/lib/pic\libg.a(lib_a-strcpy.o)
                              S:/UltimateEnvironment/code-mod-example/param-replace/code-mod-framework/lib/libnx_min/nx/lib\libnx_min.a(env.o) (strcpy)
c:/devkitpro/devkita64/bin/../lib/gcc/aarch64-none-elf/8.3.0/../../../../aarch64-none-elf/lib/pic\libg.a(lib_a-strlen.o)
                              lua_bind_hash.o (strlen)
c:/devkitpro/devkita64/bin/../lib/gcc/aarch64-none-elf/8.3.0/../../../../aarch64-none-elf/lib/pic\libg.a(lib_a-strncat.o)
                              S:/UltimateEnvironment/code-mod-example/param-replace/code-mod-framework/lib/libnx_min/nx/lib\libnx_min.a(fs_dev.o) (strncat)
c:/devkitpro/devkita64/bin/../lib/gcc/aarch64-none-elf/8.3.0/../../../../aarch64-none-elf/lib/pic\libg.a(lib_a-strncmp.o)
                              S:/UltimateEnvironment/code-mod-example/param-replace/code-mod-framework/lib/libnx_min/nx/lib\libnx_min.a(fs_dev.o) (strncmp)
c:/devkitpro/devkita64/bin/../lib/gcc/aarch64-none-elf/8.3.0/../../../../aarch64-none-elf/lib/pic\libg.a(lib_a-strncpy.o)
                              S:/UltimateEnvironment/code-mod-example/param-replace/code-mod-framework/lib/libnx_min/nx/lib\libnx_min.a(argv.o) (strncpy)
c:/devkitpro/devkita64/bin/../lib/gcc/aarch64-none-elf/8.3.0/../../../../aarch64-none-elf/lib/pic\libg.a(lib_a-strnlen.o)
                              S:/UltimateEnvironment/code-mod-example/param-replace/code-mod-framework/lib/libnx_min/nx/lib\libnx_min.a(fs_dev.o) (strnlen)
c:/devkitpro/devkita64/bin/../lib/gcc/aarch64-none-elf/8.3.0/../../../../aarch64-none-elf/lib/pic\libg.a(lib_a-toupper.o)
                              raygun_printer.o (toupper)
c:/devkitpro/devkita64/bin/../lib/gcc/aarch64-none-elf/8.3.0/../../../../aarch64-none-elf/lib/pic\libg.a(lib_a-vsnprintf.o)
                              raygun_printer.o (vsnprintf)
c:/devkitpro/devkita64/bin/../lib/gcc/aarch64-none-elf/8.3.0/../../../../aarch64-none-elf/lib/pic\libg.a(lib_a-__call_atexit.o)
                              c:/devkitpro/devkita64/bin/../lib/gcc/aarch64-none-elf/8.3.0/../../../../aarch64-none-elf/lib/pic\libg.a(lib_a-exit.o) (__call_exitprocs)
c:/devkitpro/devkita64/bin/../lib/gcc/aarch64-none-elf/8.3.0/../../../../aarch64-none-elf/lib/pic\libg.a(lib_a-environ.o)
                              c:/devkitpro/devkita64/bin/../lib/gcc/aarch64-none-elf/8.3.0/../../../../aarch64-none-elf/lib/pic\libg.a(lib_a-setenv_r.o) (environ)
c:/devkitpro/devkita64/bin/../lib/gcc/aarch64-none-elf/8.3.0/../../../../aarch64-none-elf/lib/pic\libg.a(lib_a-envlock.o)
                              c:/devkitpro/devkita64/bin/../lib/gcc/aarch64-none-elf/8.3.0/../../../../aarch64-none-elf/lib/pic\libg.a(lib_a-setenv_r.o) (__env_lock)
c:/devkitpro/devkita64/bin/../lib/gcc/aarch64-none-elf/8.3.0/../../../../aarch64-none-elf/lib/pic\libg.a(lib_a-freer.o)
                              c:/devkitpro/devkita64/bin/../lib/gcc/aarch64-none-elf/8.3.0/../../../../aarch64-none-elf/lib/pic\libg.a(lib_a-malignr.o) (_free_r)
c:/devkitpro/devkita64/bin/../lib/gcc/aarch64-none-elf/8.3.0/../../../../aarch64-none-elf/lib/pic\libg.a(lib_a-getenv_r.o)
                              c:/devkitpro/devkita64/bin/../lib/gcc/aarch64-none-elf/8.3.0/../../../../aarch64-none-elf/lib/pic\libg.a(lib_a-setenv_r.o) (_findenv_r)
c:/devkitpro/devkita64/bin/../lib/gcc/aarch64-none-elf/8.3.0/../../../../aarch64-none-elf/lib/pic\libg.a(lib_a-reallocr.o)
                              c:/devkitpro/devkita64/bin/../lib/gcc/aarch64-none-elf/8.3.0/../../../../aarch64-none-elf/lib/pic\libg.a(lib_a-setenv_r.o) (_realloc_r)
c:/devkitpro/devkita64/bin/../lib/gcc/aarch64-none-elf/8.3.0/../../../../aarch64-none-elf/lib/pic\libg.a(lib_a-svfprintf.o)
                              c:/devkitpro/devkita64/bin/../lib/gcc/aarch64-none-elf/8.3.0/../../../../aarch64-none-elf/lib/pic\libg.a(lib_a-vsnprintf.o) (_svfprintf_r)
c:/devkitpro/devkita64/bin/../lib/gcc/aarch64-none-elf/8.3.0/../../../../aarch64-none-elf/lib/pic\libg.a(lib_a-wcrtomb.o)
                              c:/devkitpro/devkita64/bin/../lib/gcc/aarch64-none-elf/8.3.0/../../../../aarch64-none-elf/lib/pic\libg.a(lib_a-svfprintf.o) (_wcrtomb_r)
c:/devkitpro/devkita64/bin/../lib/gcc/aarch64-none-elf/8.3.0/../../../../aarch64-none-elf/lib/pic\libg.a(lib_a-wcsrtombs.o)
                              c:/devkitpro/devkita64/bin/../lib/gcc/aarch64-none-elf/8.3.0/../../../../aarch64-none-elf/lib/pic\libg.a(lib_a-svfprintf.o) (_wcsrtombs_r)
c:/devkitpro/devkita64/bin/../lib/gcc/aarch64-none-elf/8.3.0/../../../../aarch64-none-elf/lib/pic\libg.a(lib_a-dtoa.o)
                              c:/devkitpro/devkita64/bin/../lib/gcc/aarch64-none-elf/8.3.0/../../../../aarch64-none-elf/lib/pic\libg.a(lib_a-svfprintf.o) (_dtoa_r)
c:/devkitpro/devkita64/bin/../lib/gcc/aarch64-none-elf/8.3.0/../../../../aarch64-none-elf/lib/pic\libg.a(lib_a-localeconv.o)
                              c:/devkitpro/devkita64/bin/../lib/gcc/aarch64-none-elf/8.3.0/../../../../aarch64-none-elf/lib/pic\libg.a(lib_a-svfprintf.o) (_localeconv_r)
c:/devkitpro/devkita64/bin/../lib/gcc/aarch64-none-elf/8.3.0/../../../../aarch64-none-elf/lib/pic\libg.a(lib_a-locale.o)
                              c:/devkitpro/devkita64/bin/../lib/gcc/aarch64-none-elf/8.3.0/../../../../aarch64-none-elf/lib/pic\libg.a(lib_a-svfprintf.o) (__global_locale)
c:/devkitpro/devkita64/bin/../lib/gcc/aarch64-none-elf/8.3.0/../../../../aarch64-none-elf/lib/pic\libg.a(lib_a-mbtowc_r.o)
                              c:/devkitpro/devkita64/bin/../lib/gcc/aarch64-none-elf/8.3.0/../../../../aarch64-none-elf/lib/pic\libg.a(lib_a-locale.o) (__ascii_mbtowc)
c:/devkitpro/devkita64/bin/../lib/gcc/aarch64-none-elf/8.3.0/../../../../aarch64-none-elf/lib/pic\libg.a(lib_a-memchr.o)
                              c:/devkitpro/devkita64/bin/../lib/gcc/aarch64-none-elf/8.3.0/../../../../aarch64-none-elf/lib/pic\libg.a(lib_a-svfprintf.o) (memchr)
c:/devkitpro/devkita64/bin/../lib/gcc/aarch64-none-elf/8.3.0/../../../../aarch64-none-elf/lib/pic\libg.a(lib_a-memmove.o)
                              c:/devkitpro/devkita64/bin/../lib/gcc/aarch64-none-elf/8.3.0/../../../../aarch64-none-elf/lib/pic\libg.a(lib_a-reallocr.o) (memmove)
c:/devkitpro/devkita64/bin/../lib/gcc/aarch64-none-elf/8.3.0/../../../../aarch64-none-elf/lib/pic\libg.a(lib_a-mprec.o)
                              c:/devkitpro/devkita64/bin/../lib/gcc/aarch64-none-elf/8.3.0/../../../../aarch64-none-elf/lib/pic\libg.a(lib_a-dtoa.o) (_Balloc)
c:/devkitpro/devkita64/bin/../lib/gcc/aarch64-none-elf/8.3.0/../../../../aarch64-none-elf/lib/pic\libg.a(lib_a-s_frexp.o)
                              c:/devkitpro/devkita64/bin/../lib/gcc/aarch64-none-elf/8.3.0/../../../../aarch64-none-elf/lib/pic\libg.a(lib_a-svfprintf.o) (frexp)
c:/devkitpro/devkita64/bin/../lib/gcc/aarch64-none-elf/8.3.0/../../../../aarch64-none-elf/lib/pic\libg.a(lib_a-strcasecmp.o)
                              c:/devkitpro/devkita64/bin/../lib/gcc/aarch64-none-elf/8.3.0/../../../../aarch64-none-elf/lib/pic\libg.a(lib_a-locale.o) (strcasecmp)
c:/devkitpro/devkita64/bin/../lib/gcc/aarch64-none-elf/8.3.0/../../../../aarch64-none-elf/lib/pic\libg.a(lib_a-strcat.o)
                              c:/devkitpro/devkita64/bin/../lib/gcc/aarch64-none-elf/8.3.0/../../../../aarch64-none-elf/lib/pic\libg.a(lib_a-locale.o) (strcat)
c:/devkitpro/devkita64/bin/../lib/gcc/aarch64-none-elf/8.3.0/../../../../aarch64-none-elf/lib/pic\libg.a(lib_a-strcmp.o)
                              c:/devkitpro/devkita64/bin/../lib/gcc/aarch64-none-elf/8.3.0/../../../../aarch64-none-elf/lib/pic\libg.a(lib_a-locale.o) (strcmp)
c:/devkitpro/devkita64/bin/../lib/gcc/aarch64-none-elf/8.3.0/../../../../aarch64-none-elf/lib/pic\libg.a(lib_a-strlcpy.o)
                              c:/devkitpro/devkita64/bin/../lib/gcc/aarch64-none-elf/8.3.0/../../../../aarch64-none-elf/lib/pic\libg.a(lib_a-locale.o) (strlcpy)
c:/devkitpro/devkita64/bin/../lib/gcc/aarch64-none-elf/8.3.0/../../../../aarch64-none-elf/lib/pic\libg.a(lib_a-strncasecmp.o)
                              c:/devkitpro/devkita64/bin/../lib/gcc/aarch64-none-elf/8.3.0/../../../../aarch64-none-elf/lib/pic\libg.a(lib_a-locale.o) (strncasecmp)
c:/devkitpro/devkita64/bin/../lib/gcc/aarch64-none-elf/8.3.0/../../../../aarch64-none-elf/lib/pic\libg.a(lib_a-strtol.o)
                              c:/devkitpro/devkita64/bin/../lib/gcc/aarch64-none-elf/8.3.0/../../../../aarch64-none-elf/lib/pic\libg.a(lib_a-locale.o) (strtol)
c:/devkitpro/devkita64/bin/../lib/gcc/aarch64-none-elf/8.3.0/../../../../aarch64-none-elf/lib/pic\libg.a(lib_a-svfiprintf.o)
                              c:/devkitpro/devkita64/bin/../lib/gcc/aarch64-none-elf/8.3.0/../../../../aarch64-none-elf/lib/pic\libg.a(lib_a-svfprintf.o) (__chclass)
c:/devkitpro/devkita64/bin/../lib/gcc/aarch64-none-elf/8.3.0/../../../../aarch64-none-elf/lib/pic\libg.a(lib_a-wcsnrtombs.o)
                              c:/devkitpro/devkita64/bin/../lib/gcc/aarch64-none-elf/8.3.0/../../../../aarch64-none-elf/lib/pic\libg.a(lib_a-wcsrtombs.o) (_wcsnrtombs_r)
c:/devkitpro/devkita64/bin/../lib/gcc/aarch64-none-elf/8.3.0/../../../../aarch64-none-elf/lib/pic\libg.a(lib_a-wctomb_r.o)
                              c:/devkitpro/devkita64/bin/../lib/gcc/aarch64-none-elf/8.3.0/../../../../aarch64-none-elf/lib/pic\libg.a(lib_a-locale.o) (__ascii_wctomb)
c:/devkitpro/devkita64/bin/../lib/gcc/aarch64-none-elf/8.3.0/../../../../aarch64-none-elf/lib/pic\libg.a(lib_a-callocr.o)
                              c:/devkitpro/devkita64/bin/../lib/gcc/aarch64-none-elf/8.3.0/../../../../aarch64-none-elf/lib/pic\libg.a(lib_a-mprec.o) (_calloc_r)
c:/devkitpro/devkita64/bin/../lib/gcc/aarch64-none-elf/8.3.0/../../../../aarch64-none-elf/lib/pic\libsysbase.a(iosupport.o)
                              S:/UltimateEnvironment/code-mod-example/param-replace/code-mod-framework/lib/libnx_min/nx/lib\libnx_min.a(fs_dev.o) (setDefaultDevice)
c:/devkitpro/devkita64/bin/../lib/gcc/aarch64-none-elf/8.3.0/../../../../aarch64-none-elf/lib/pic\libsysbase.a(sbrk.o)
                              c:/devkitpro/devkita64/bin/../lib/gcc/aarch64-none-elf/8.3.0/../../../../aarch64-none-elf/lib/pic\libg.a(lib_a-mallocr.o) (_sbrk_r)
c:/devkitpro/devkita64/bin/../lib/gcc/aarch64-none-elf/8.3.0/../../../../aarch64-none-elf/lib/pic\libsysbase.a(_exit.o)
                              c:/devkitpro/devkita64/bin/../lib/gcc/aarch64-none-elf/8.3.0/../../../../aarch64-none-elf/lib/pic\libg.a(lib_a-exit.o) (_exit)
c:/devkitpro/devkita64/bin/../lib/gcc/aarch64-none-elf/8.3.0/../../../../aarch64-none-elf/lib/pic\libsysbase.a(malloc_vars.o)
                              main.o (fake_heap_start)
c:/devkitpro/devkita64/bin/../lib/gcc/aarch64-none-elf/8.3.0/../../../../aarch64-none-elf/lib/pic\libsysbase.a(chdir.o)
                              S:/UltimateEnvironment/code-mod-example/param-replace/code-mod-framework/lib/libnx_min/nx/lib\libnx_min.a(fs_dev.o) (chdir)
c:/devkitpro/devkita64/bin/../lib/gcc/aarch64-none-elf/8.3.0/../../../../aarch64-none-elf/lib/pic\libsysbase.a(locks.o)
                              S:/UltimateEnvironment/code-mod-example/param-replace/code-mod-framework/lib/libnx_min/nx/lib\libnx_min.a(newlib.o) (timespec2nsec)
c:/devkitpro/devkita64/bin/../lib/gcc/aarch64-none-elf/8.3.0/../../../../aarch64-none-elf/lib/pic\libsysbase.a(getreent.o)
                              S:/UltimateEnvironment/code-mod-example/param-replace/code-mod-framework/lib/libnx_min/nx/lib\libnx_min.a(fs_dev.o) (__getreent)
c:/devkitpro/devkita64/bin/../lib/gcc/aarch64-none-elf/8.3.0/../../../../aarch64-none-elf/lib/pic\libsysbase.a(clocks.o)
                              c:/devkitpro/devkita64/bin/../lib/gcc/aarch64-none-elf/8.3.0/../../../../aarch64-none-elf/lib/pic\libsysbase.a(locks.o) (clock_gettime)
c:/devkitpro/devkita64/bin/../lib/gcc/aarch64-none-elf/8.3.0/pic\libgcc.a(trunctfdf2.o)
                              c:/devkitpro/devkita64/bin/../lib/gcc/aarch64-none-elf/8.3.0/../../../../aarch64-none-elf/lib/pic\libg.a(lib_a-svfprintf.o) (__trunctfdf2)
c:/devkitpro/devkita64/bin/../lib/gcc/aarch64-none-elf/8.3.0/pic\libgcc.a(sfp-exceptions.o)
                              c:/devkitpro/devkita64/bin/../lib/gcc/aarch64-none-elf/8.3.0/pic\libgcc.a(trunctfdf2.o) (__sfp_handle_exceptions)
c:/devkitpro/devkita64/bin/../lib/gcc/aarch64-none-elf/8.3.0/../../../../aarch64-none-elf/lib/pic\libg.a(lib_a-strrchr.o)
                              c:/devkitpro/devkita64/bin/../lib/gcc/aarch64-none-elf/8.3.0/../../../../aarch64-none-elf/lib/pic\libsysbase.a(chdir.o) (strrchr)

Allocating common symbols
Common symbol       size              file

__nx_exceptiondump  0x340             S:/UltimateEnvironment/code-mod-example/param-replace/code-mod-framework/lib/libnx_min/nx/lib\libnx_min.a(init.o)
__system_argv       0x8               S:/UltimateEnvironment/code-mod-example/param-replace/code-mod-framework/lib/libnx_min/nx/lib\libnx_min.a(argv.o)
__system_argc       0x4               S:/UltimateEnvironment/code-mod-example/param-replace/code-mod-framework/lib/libnx_min/nx/lib\libnx_min.a(argv.o)
__stack_top         0x8               S:/UltimateEnvironment/code-mod-example/param-replace/code-mod-framework/lib/libnx_min/nx/lib\libnx_min.a(init.o)

Discarded input sections

 .text          0x0000000000000000        0x0 c:/devkitpro/devkita64/bin/../lib/gcc/aarch64-none-elf/8.3.0/pic/crti.o
 .data          0x0000000000000000        0x0 c:/devkitpro/devkita64/bin/../lib/gcc/aarch64-none-elf/8.3.0/pic/crti.o
 .bss           0x0000000000000000        0x0 c:/devkitpro/devkita64/bin/../lib/gcc/aarch64-none-elf/8.3.0/pic/crti.o
 .text          0x0000000000000000        0x0 c:/devkitpro/devkita64/bin/../lib/gcc/aarch64-none-elf/8.3.0/pic/crtbegin.o
 .data          0x0000000000000000        0x0 c:/devkitpro/devkita64/bin/../lib/gcc/aarch64-none-elf/8.3.0/pic/crtbegin.o
 .bss           0x0000000000000000        0x0 c:/devkitpro/devkita64/bin/../lib/gcc/aarch64-none-elf/8.3.0/pic/crtbegin.o
 .data.__dso_handle
                0x0000000000000000        0x8 c:/devkitpro/devkita64/bin/../lib/gcc/aarch64-none-elf/8.3.0/pic/crtbegin.o
 .comment       0x0000000000000000       0x23 c:/devkitpro/devkita64/bin/../lib/gcc/aarch64-none-elf/8.3.0/pic/crtbegin.o
 .comment       0x0000000000000000       0x23 main.o
 .data          0x0000000000000000        0x0 acmd_wrapper.o
 .bss           0x0000000000000000        0x0 acmd_wrapper.o
 .comment       0x0000000000000000       0x23 acmd_wrapper.o
 .data          0x0000000000000000        0x0 saltysd_helper.o
 .comment       0x0000000000000000       0x23 saltysd_helper.o
 .data          0x0000000000000000        0x0 lua_bind_hash.o
 .bss           0x0000000000000000        0x0 lua_bind_hash.o
 .comment       0x0000000000000000       0x23 lua_bind_hash.o
 .data          0x0000000000000000        0x0 l2c_imports.o
 .bss           0x0000000000000000        0x0 l2c_imports.o
 .comment       0x0000000000000000       0x23 l2c_imports.o
 .data          0x0000000000000000        0x0 raygun_printer.o
 .bss           0x0000000000000000        0x0 raygun_printer.o
 .comment       0x0000000000000000       0x23 raygun_printer.o
 .text          0x0000000000000000        0x0 S:/UltimateEnvironment/code-mod-example/param-replace/code-mod-framework/lib/libnx_min/nx/lib\libnx_min.a(switch_crt0.o)
 .data          0x0000000000000000        0x0 S:/UltimateEnvironment/code-mod-example/param-replace/code-mod-framework/lib/libnx_min/nx/lib\libnx_min.a(switch_crt0.o)
 .bss           0x0000000000000000        0x0 S:/UltimateEnvironment/code-mod-example/param-replace/code-mod-framework/lib/libnx_min/nx/lib\libnx_min.a(switch_crt0.o)
 .debug_line    0x0000000000000000       0xa7 S:/UltimateEnvironment/code-mod-example/param-replace/code-mod-framework/lib/libnx_min/nx/lib\libnx_min.a(switch_crt0.o)
 .debug_info    0x0000000000000000       0x2e S:/UltimateEnvironment/code-mod-example/param-replace/code-mod-framework/lib/libnx_min/nx/lib\libnx_min.a(switch_crt0.o)
 .debug_abbrev  0x0000000000000000       0x14 S:/UltimateEnvironment/code-mod-example/param-replace/code-mod-framework/lib/libnx_min/nx/lib\libnx_min.a(switch_crt0.o)
 .debug_aranges
                0x0000000000000000       0x30 S:/UltimateEnvironment/code-mod-example/param-replace/code-mod-framework/lib/libnx_min/nx/lib\libnx_min.a(switch_crt0.o)
 .debug_str     0x0000000000000000       0x89 S:/UltimateEnvironment/code-mod-example/param-replace/code-mod-framework/lib/libnx_min/nx/lib\libnx_min.a(switch_crt0.o)
 .text          0x0000000000000000        0x0 S:/UltimateEnvironment/code-mod-example/param-replace/code-mod-framework/lib/libnx_min/nx/lib\libnx_min.a(exception.o)
 .data          0x0000000000000000        0x0 S:/UltimateEnvironment/code-mod-example/param-replace/code-mod-framework/lib/libnx_min/nx/lib\libnx_min.a(exception.o)
 .bss           0x0000000000000000        0x0 S:/UltimateEnvironment/code-mod-example/param-replace/code-mod-framework/lib/libnx_min/nx/lib\libnx_min.a(exception.o)
 .debug_line    0x0000000000000000      0x102 S:/UltimateEnvironment/code-mod-example/param-replace/code-mod-framework/lib/libnx_min/nx/lib\libnx_min.a(exception.o)
 .debug_info    0x0000000000000000       0x22 S:/UltimateEnvironment/code-mod-example/param-replace/code-mod-framework/lib/libnx_min/nx/lib\libnx_min.a(exception.o)
 .debug_abbrev  0x0000000000000000       0x12 S:/UltimateEnvironment/code-mod-example/param-replace/code-mod-framework/lib/libnx_min/nx/lib\libnx_min.a(exception.o)
 .debug_aranges
                0x0000000000000000       0x40 S:/UltimateEnvironment/code-mod-example/param-replace/code-mod-framework/lib/libnx_min/nx/lib\libnx_min.a(exception.o)
 .debug_str     0x0000000000000000       0x87 S:/UltimateEnvironment/code-mod-example/param-replace/code-mod-framework/lib/libnx_min/nx/lib\libnx_min.a(exception.o)
 .debug_ranges  0x0000000000000000       0x40 S:/UltimateEnvironment/code-mod-example/param-replace/code-mod-framework/lib/libnx_min/nx/lib\libnx_min.a(exception.o)
 .text          0x0000000000000000        0x0 S:/UltimateEnvironment/code-mod-example/param-replace/code-mod-framework/lib/libnx_min/nx/lib\libnx_min.a(argv.o)
 .data          0x0000000000000000        0x0 S:/UltimateEnvironment/code-mod-example/param-replace/code-mod-framework/lib/libnx_min/nx/lib\libnx_min.a(argv.o)
 .bss           0x0000000000000000        0x0 S:/UltimateEnvironment/code-mod-example/param-replace/code-mod-framework/lib/libnx_min/nx/lib\libnx_min.a(argv.o)
 .debug_info    0x0000000000000000      0xe43 S:/UltimateEnvironment/code-mod-example/param-replace/code-mod-framework/lib/libnx_min/nx/lib\libnx_min.a(argv.o)
 .debug_abbrev  0x0000000000000000      0x2de S:/UltimateEnvironment/code-mod-example/param-replace/code-mod-framework/lib/libnx_min/nx/lib\libnx_min.a(argv.o)
 .debug_loc     0x0000000000000000      0x6a8 S:/UltimateEnvironment/code-mod-example/param-replace/code-mod-framework/lib/libnx_min/nx/lib\libnx_min.a(argv.o)
 .debug_aranges
                0x0000000000000000       0x30 S:/UltimateEnvironment/code-mod-example/param-replace/code-mod-framework/lib/libnx_min/nx/lib\libnx_min.a(argv.o)
 .debug_ranges  0x0000000000000000       0x20 S:/UltimateEnvironment/code-mod-example/param-replace/code-mod-framework/lib/libnx_min/nx/lib\libnx_min.a(argv.o)
 .debug_line    0x0000000000000000      0x5c1 S:/UltimateEnvironment/code-mod-example/param-replace/code-mod-framework/lib/libnx_min/nx/lib\libnx_min.a(argv.o)
 .debug_str     0x0000000000000000      0x83c S:/UltimateEnvironment/code-mod-example/param-replace/code-mod-framework/lib/libnx_min/nx/lib\libnx_min.a(argv.o)
 .comment       0x0000000000000000       0x23 S:/UltimateEnvironment/code-mod-example/param-replace/code-mod-framework/lib/libnx_min/nx/lib\libnx_min.a(argv.o)
 .text          0x0000000000000000        0x0 S:/UltimateEnvironment/code-mod-example/param-replace/code-mod-framework/lib/libnx_min/nx/lib\libnx_min.a(env.o)
 .data          0x0000000000000000        0x0 S:/UltimateEnvironment/code-mod-example/param-replace/code-mod-framework/lib/libnx_min/nx/lib\libnx_min.a(env.o)
 .bss           0x0000000000000000        0x0 S:/UltimateEnvironment/code-mod-example/param-replace/code-mod-framework/lib/libnx_min/nx/lib\libnx_min.a(env.o)
 .debug_info    0x0000000000000000     0x111a S:/UltimateEnvironment/code-mod-example/param-replace/code-mod-framework/lib/libnx_min/nx/lib\libnx_min.a(env.o)
 .debug_abbrev  0x0000000000000000      0x322 S:/UltimateEnvironment/code-mod-example/param-replace/code-mod-framework/lib/libnx_min/nx/lib\libnx_min.a(env.o)
 .debug_loc     0x0000000000000000      0x362 S:/UltimateEnvironment/code-mod-example/param-replace/code-mod-framework/lib/libnx_min/nx/lib\libnx_min.a(env.o)
 .debug_aranges
                0x0000000000000000      0x130 S:/UltimateEnvironment/code-mod-example/param-replace/code-mod-framework/lib/libnx_min/nx/lib\libnx_min.a(env.o)
 .debug_ranges  0x0000000000000000      0x120 S:/UltimateEnvironment/code-mod-example/param-replace/code-mod-framework/lib/libnx_min/nx/lib\libnx_min.a(env.o)
 .debug_line    0x0000000000000000      0x68e S:/UltimateEnvironment/code-mod-example/param-replace/code-mod-framework/lib/libnx_min/nx/lib\libnx_min.a(env.o)
 .debug_str     0x0000000000000000     0x1046 S:/UltimateEnvironment/code-mod-example/param-replace/code-mod-framework/lib/libnx_min/nx/lib\libnx_min.a(env.o)
 .comment       0x0000000000000000       0x23 S:/UltimateEnvironment/code-mod-example/param-replace/code-mod-framework/lib/libnx_min/nx/lib\libnx_min.a(env.o)
 .text          0x0000000000000000        0x0 S:/UltimateEnvironment/code-mod-example/param-replace/code-mod-framework/lib/libnx_min/nx/lib\libnx_min.a(init.o)
 .data          0x0000000000000000        0x0 S:/UltimateEnvironment/code-mod-example/param-replace/code-mod-framework/lib/libnx_min/nx/lib\libnx_min.a(init.o)
 .bss           0x0000000000000000        0x0 S:/UltimateEnvironment/code-mod-example/param-replace/code-mod-framework/lib/libnx_min/nx/lib\libnx_min.a(init.o)
 .text.__libnx_init
                0x0000000000000000       0x28 S:/UltimateEnvironment/code-mod-example/param-replace/code-mod-framework/lib/libnx_min/nx/lib\libnx_min.a(init.o)
 .text.__libnx_exit
                0x0000000000000000       0x20 S:/UltimateEnvironment/code-mod-example/param-replace/code-mod-framework/lib/libnx_min/nx/lib\libnx_min.a(init.o)
 .debug_info    0x0000000000000000      0xce2 S:/UltimateEnvironment/code-mod-example/param-replace/code-mod-framework/lib/libnx_min/nx/lib\libnx_min.a(init.o)
 .debug_abbrev  0x0000000000000000      0x2a1 S:/UltimateEnvironment/code-mod-example/param-replace/code-mod-framework/lib/libnx_min/nx/lib\libnx_min.a(init.o)
 .debug_loc     0x0000000000000000      0x34a S:/UltimateEnvironment/code-mod-example/param-replace/code-mod-framework/lib/libnx_min/nx/lib\libnx_min.a(init.o)
 .debug_aranges
                0x0000000000000000       0x70 S:/UltimateEnvironment/code-mod-example/param-replace/code-mod-framework/lib/libnx_min/nx/lib\libnx_min.a(init.o)
 .debug_ranges  0x0000000000000000       0xa0 S:/UltimateEnvironment/code-mod-example/param-replace/code-mod-framework/lib/libnx_min/nx/lib\libnx_min.a(init.o)
 .debug_line    0x0000000000000000      0x5c1 S:/UltimateEnvironment/code-mod-example/param-replace/code-mod-framework/lib/libnx_min/nx/lib\libnx_min.a(init.o)
 .debug_str     0x0000000000000000      0xee1 S:/UltimateEnvironment/code-mod-example/param-replace/code-mod-framework/lib/libnx_min/nx/lib\libnx_min.a(init.o)
 .comment       0x0000000000000000       0x23 S:/UltimateEnvironment/code-mod-example/param-replace/code-mod-framework/lib/libnx_min/nx/lib\libnx_min.a(init.o)
 .text          0x0000000000000000        0x0 S:/UltimateEnvironment/code-mod-example/param-replace/code-mod-framework/lib/libnx_min/nx/lib\libnx_min.a(hosversion.o)
 .data          0x0000000000000000        0x0 S:/UltimateEnvironment/code-mod-example/param-replace/code-mod-framework/lib/libnx_min/nx/lib\libnx_min.a(hosversion.o)
 .bss           0x0000000000000000        0x0 S:/UltimateEnvironment/code-mod-example/param-replace/code-mod-framework/lib/libnx_min/nx/lib\libnx_min.a(hosversion.o)
 .debug_info    0x0000000000000000      0x103 S:/UltimateEnvironment/code-mod-example/param-replace/code-mod-framework/lib/libnx_min/nx/lib\libnx_min.a(hosversion.o)
 .debug_abbrev  0x0000000000000000       0xa2 S:/UltimateEnvironment/code-mod-example/param-replace/code-mod-framework/lib/libnx_min/nx/lib\libnx_min.a(hosversion.o)
 .debug_aranges
                0x0000000000000000       0x40 S:/UltimateEnvironment/code-mod-example/param-replace/code-mod-framework/lib/libnx_min/nx/lib\libnx_min.a(hosversion.o)
 .debug_ranges  0x0000000000000000       0x30 S:/UltimateEnvironment/code-mod-example/param-replace/code-mod-framework/lib/libnx_min/nx/lib\libnx_min.a(hosversion.o)
 .debug_line    0x0000000000000000      0x178 S:/UltimateEnvironment/code-mod-example/param-replace/code-mod-framework/lib/libnx_min/nx/lib\libnx_min.a(hosversion.o)
 .debug_str     0x0000000000000000      0x1fc S:/UltimateEnvironment/code-mod-example/param-replace/code-mod-framework/lib/libnx_min/nx/lib\libnx_min.a(hosversion.o)
 .comment       0x0000000000000000       0x23 S:/UltimateEnvironment/code-mod-example/param-replace/code-mod-framework/lib/libnx_min/nx/lib\libnx_min.a(hosversion.o)
 .text          0x0000000000000000        0x0 S:/UltimateEnvironment/code-mod-example/param-replace/code-mod-framework/lib/libnx_min/nx/lib\libnx_min.a(dynamic.o)
 .data          0x0000000000000000        0x0 S:/UltimateEnvironment/code-mod-example/param-replace/code-mod-framework/lib/libnx_min/nx/lib\libnx_min.a(dynamic.o)
 .bss           0x0000000000000000        0x0 S:/UltimateEnvironment/code-mod-example/param-replace/code-mod-framework/lib/libnx_min/nx/lib\libnx_min.a(dynamic.o)
 .debug_info    0x0000000000000000      0x3c9 S:/UltimateEnvironment/code-mod-example/param-replace/code-mod-framework/lib/libnx_min/nx/lib\libnx_min.a(dynamic.o)
 .debug_abbrev  0x0000000000000000      0x16b S:/UltimateEnvironment/code-mod-example/param-replace/code-mod-framework/lib/libnx_min/nx/lib\libnx_min.a(dynamic.o)
 .debug_loc     0x0000000000000000      0x1b8 S:/UltimateEnvironment/code-mod-example/param-replace/code-mod-framework/lib/libnx_min/nx/lib\libnx_min.a(dynamic.o)
 .debug_aranges
                0x0000000000000000       0x30 S:/UltimateEnvironment/code-mod-example/param-replace/code-mod-framework/lib/libnx_min/nx/lib\libnx_min.a(dynamic.o)
 .debug_ranges  0x0000000000000000       0x20 S:/UltimateEnvironment/code-mod-example/param-replace/code-mod-framework/lib/libnx_min/nx/lib\libnx_min.a(dynamic.o)
 .debug_line    0x0000000000000000      0x28b S:/UltimateEnvironment/code-mod-example/param-replace/code-mod-framework/lib/libnx_min/nx/lib\libnx_min.a(dynamic.o)
 .debug_str     0x0000000000000000      0x7ff S:/UltimateEnvironment/code-mod-example/param-replace/code-mod-framework/lib/libnx_min/nx/lib\libnx_min.a(dynamic.o)
 .comment       0x0000000000000000       0x23 S:/UltimateEnvironment/code-mod-example/param-replace/code-mod-framework/lib/libnx_min/nx/lib\libnx_min.a(dynamic.o)
 .text          0x0000000000000000        0x0 S:/UltimateEnvironment/code-mod-example/param-replace/code-mod-framework/lib/libnx_min/nx/lib\libnx_min.a(fs_dev.o)
 .data          0x0000000000000000        0x0 S:/UltimateEnvironment/code-mod-example/param-replace/code-mod-framework/lib/libnx_min/nx/lib\libnx_min.a(fs_dev.o)
 .bss           0x0000000000000000        0x0 S:/UltimateEnvironment/code-mod-example/param-replace/code-mod-framework/lib/libnx_min/nx/lib\libnx_min.a(fs_dev.o)
 .debug_info    0x0000000000000000     0x411e S:/UltimateEnvironment/code-mod-example/param-replace/code-mod-framework/lib/libnx_min/nx/lib\libnx_min.a(fs_dev.o)
 .debug_abbrev  0x0000000000000000      0x5b7 S:/UltimateEnvironment/code-mod-example/param-replace/code-mod-framework/lib/libnx_min/nx/lib\libnx_min.a(fs_dev.o)
 .debug_loc     0x0000000000000000     0x4332 S:/UltimateEnvironment/code-mod-example/param-replace/code-mod-framework/lib/libnx_min/nx/lib\libnx_min.a(fs_dev.o)
 .debug_aranges
                0x0000000000000000      0x2a0 S:/UltimateEnvironment/code-mod-example/param-replace/code-mod-framework/lib/libnx_min/nx/lib\libnx_min.a(fs_dev.o)
 .debug_ranges  0x0000000000000000      0x670 S:/UltimateEnvironment/code-mod-example/param-replace/code-mod-framework/lib/libnx_min/nx/lib\libnx_min.a(fs_dev.o)
 .debug_line    0x0000000000000000     0x19e7 S:/UltimateEnvironment/code-mod-example/param-replace/code-mod-framework/lib/libnx_min/nx/lib\libnx_min.a(fs_dev.o)
 .debug_str     0x0000000000000000     0x1901 S:/UltimateEnvironment/code-mod-example/param-replace/code-mod-framework/lib/libnx_min/nx/lib\libnx_min.a(fs_dev.o)
 .comment       0x0000000000000000       0x23 S:/UltimateEnvironment/code-mod-example/param-replace/code-mod-framework/lib/libnx_min/nx/lib\libnx_min.a(fs_dev.o)
 .text          0x0000000000000000        0x0 S:/UltimateEnvironment/code-mod-example/param-replace/code-mod-framework/lib/libnx_min/nx/lib\libnx_min.a(decode_utf8.o)
 .data          0x0000000000000000        0x0 S:/UltimateEnvironment/code-mod-example/param-replace/code-mod-framework/lib/libnx_min/nx/lib\libnx_min.a(decode_utf8.o)
 .bss           0x0000000000000000        0x0 S:/UltimateEnvironment/code-mod-example/param-replace/code-mod-framework/lib/libnx_min/nx/lib\libnx_min.a(decode_utf8.o)
 .debug_info    0x0000000000000000      0x170 S:/UltimateEnvironment/code-mod-example/param-replace/code-mod-framework/lib/libnx_min/nx/lib\libnx_min.a(decode_utf8.o)
 .debug_abbrev  0x0000000000000000       0x9e S:/UltimateEnvironment/code-mod-example/param-replace/code-mod-framework/lib/libnx_min/nx/lib\libnx_min.a(decode_utf8.o)
 .debug_loc     0x0000000000000000      0x334 S:/UltimateEnvironment/code-mod-example/param-replace/code-mod-framework/lib/libnx_min/nx/lib\libnx_min.a(decode_utf8.o)
 .debug_aranges
                0x0000000000000000       0x30 S:/UltimateEnvironment/code-mod-example/param-replace/code-mod-framework/lib/libnx_min/nx/lib\libnx_min.a(decode_utf8.o)
 .debug_ranges  0x0000000000000000       0x20 S:/UltimateEnvironment/code-mod-example/param-replace/code-mod-framework/lib/libnx_min/nx/lib\libnx_min.a(decode_utf8.o)
 .debug_line    0x0000000000000000      0x26e S:/UltimateEnvironment/code-mod-example/param-replace/code-mod-framework/lib/libnx_min/nx/lib\libnx_min.a(decode_utf8.o)
 .debug_str     0x0000000000000000      0x221 S:/UltimateEnvironment/code-mod-example/param-replace/code-mod-framework/lib/libnx_min/nx/lib\libnx_min.a(decode_utf8.o)
 .comment       0x0000000000000000       0x23 S:/UltimateEnvironment/code-mod-example/param-replace/code-mod-framework/lib/libnx_min/nx/lib\libnx_min.a(decode_utf8.o)
 .text          0x0000000000000000        0x0 S:/UltimateEnvironment/code-mod-example/param-replace/code-mod-framework/lib/libnx_min/nx/lib\libnx_min.a(svc.o)
 .data          0x0000000000000000        0x0 S:/UltimateEnvironment/code-mod-example/param-replace/code-mod-framework/lib/libnx_min/nx/lib\libnx_min.a(svc.o)
 .bss           0x0000000000000000        0x0 S:/UltimateEnvironment/code-mod-example/param-replace/code-mod-framework/lib/libnx_min/nx/lib\libnx_min.a(svc.o)
 .debug_line    0x0000000000000000      0x911 S:/UltimateEnvironment/code-mod-example/param-replace/code-mod-framework/lib/libnx_min/nx/lib\libnx_min.a(svc.o)
 .debug_info    0x0000000000000000       0x22 S:/UltimateEnvironment/code-mod-example/param-replace/code-mod-framework/lib/libnx_min/nx/lib\libnx_min.a(svc.o)
 .debug_abbrev  0x0000000000000000       0x12 S:/UltimateEnvironment/code-mod-example/param-replace/code-mod-framework/lib/libnx_min/nx/lib\libnx_min.a(svc.o)
 .debug_aranges
                0x0000000000000000      0x660 S:/UltimateEnvironment/code-mod-example/param-replace/code-mod-framework/lib/libnx_min/nx/lib\libnx_min.a(svc.o)
 .debug_str     0x0000000000000000       0x80 S:/UltimateEnvironment/code-mod-example/param-replace/code-mod-framework/lib/libnx_min/nx/lib\libnx_min.a(svc.o)
 .debug_ranges  0x0000000000000000      0x660 S:/UltimateEnvironment/code-mod-example/param-replace/code-mod-framework/lib/libnx_min/nx/lib\libnx_min.a(svc.o)
 .text          0x0000000000000000        0x0 S:/UltimateEnvironment/code-mod-example/param-replace/code-mod-framework/lib/libnx_min/nx/lib\libnx_min.a(readtp.o)
 .data          0x0000000000000000        0x0 S:/UltimateEnvironment/code-mod-example/param-replace/code-mod-framework/lib/libnx_min/nx/lib\libnx_min.a(readtp.o)
 .bss           0x0000000000000000        0x0 S:/UltimateEnvironment/code-mod-example/param-replace/code-mod-framework/lib/libnx_min/nx/lib\libnx_min.a(readtp.o)
 .debug_line    0x0000000000000000       0x77 S:/UltimateEnvironment/code-mod-example/param-replace/code-mod-framework/lib/libnx_min/nx/lib\libnx_min.a(readtp.o)
 .debug_info    0x0000000000000000       0x2e S:/UltimateEnvironment/code-mod-example/param-replace/code-mod-framework/lib/libnx_min/nx/lib\libnx_min.a(readtp.o)
 .debug_abbrev  0x0000000000000000       0x14 S:/UltimateEnvironment/code-mod-example/param-replace/code-mod-framework/lib/libnx_min/nx/lib\libnx_min.a(readtp.o)
 .debug_aranges
                0x0000000000000000       0x30 S:/UltimateEnvironment/code-mod-example/param-replace/code-mod-framework/lib/libnx_min/nx/lib\libnx_min.a(readtp.o)
 .debug_str     0x0000000000000000       0x84 S:/UltimateEnvironment/code-mod-example/param-replace/code-mod-framework/lib/libnx_min/nx/lib\libnx_min.a(readtp.o)
 .text          0x0000000000000000        0x0 S:/UltimateEnvironment/code-mod-example/param-replace/code-mod-framework/lib/libnx_min/nx/lib\libnx_min.a(virtmem.o)
 .data          0x0000000000000000        0x0 S:/UltimateEnvironment/code-mod-example/param-replace/code-mod-framework/lib/libnx_min/nx/lib\libnx_min.a(virtmem.o)
 .bss           0x0000000000000000        0x0 S:/UltimateEnvironment/code-mod-example/param-replace/code-mod-framework/lib/libnx_min/nx/lib\libnx_min.a(virtmem.o)
 .debug_info    0x0000000000000000      0xb52 S:/UltimateEnvironment/code-mod-example/param-replace/code-mod-framework/lib/libnx_min/nx/lib\libnx_min.a(virtmem.o)
 .debug_abbrev  0x0000000000000000      0x2cf S:/UltimateEnvironment/code-mod-example/param-replace/code-mod-framework/lib/libnx_min/nx/lib\libnx_min.a(virtmem.o)
 .debug_loc     0x0000000000000000      0x668 S:/UltimateEnvironment/code-mod-example/param-replace/code-mod-framework/lib/libnx_min/nx/lib\libnx_min.a(virtmem.o)
 .debug_aranges
                0x0000000000000000       0x70 S:/UltimateEnvironment/code-mod-example/param-replace/code-mod-framework/lib/libnx_min/nx/lib\libnx_min.a(virtmem.o)
 .debug_ranges  0x0000000000000000      0x170 S:/UltimateEnvironment/code-mod-example/param-replace/code-mod-framework/lib/libnx_min/nx/lib\libnx_min.a(virtmem.o)
 .debug_line    0x0000000000000000      0x59f S:/UltimateEnvironment/code-mod-example/param-replace/code-mod-framework/lib/libnx_min/nx/lib\libnx_min.a(virtmem.o)
 .debug_str     0x0000000000000000      0xbc2 S:/UltimateEnvironment/code-mod-example/param-replace/code-mod-framework/lib/libnx_min/nx/lib\libnx_min.a(virtmem.o)
 .comment       0x0000000000000000       0x23 S:/UltimateEnvironment/code-mod-example/param-replace/code-mod-framework/lib/libnx_min/nx/lib\libnx_min.a(virtmem.o)
 .text          0x0000000000000000        0x0 S:/UltimateEnvironment/code-mod-example/param-replace/code-mod-framework/lib/libnx_min/nx/lib\libnx_min.a(mutex.o)
 .data          0x0000000000000000        0x0 S:/UltimateEnvironment/code-mod-example/param-replace/code-mod-framework/lib/libnx_min/nx/lib\libnx_min.a(mutex.o)
 .bss           0x0000000000000000        0x0 S:/UltimateEnvironment/code-mod-example/param-replace/code-mod-framework/lib/libnx_min/nx/lib\libnx_min.a(mutex.o)
 .debug_info    0x0000000000000000      0x782 S:/UltimateEnvironment/code-mod-example/param-replace/code-mod-framework/lib/libnx_min/nx/lib\libnx_min.a(mutex.o)
 .debug_abbrev  0x0000000000000000      0x1fe S:/UltimateEnvironment/code-mod-example/param-replace/code-mod-framework/lib/libnx_min/nx/lib\libnx_min.a(mutex.o)
 .debug_loc     0x0000000000000000      0x3d1 S:/UltimateEnvironment/code-mod-example/param-replace/code-mod-framework/lib/libnx_min/nx/lib\libnx_min.a(mutex.o)
 .debug_aranges
                0x0000000000000000       0x80 S:/UltimateEnvironment/code-mod-example/param-replace/code-mod-framework/lib/libnx_min/nx/lib\libnx_min.a(mutex.o)
 .debug_ranges  0x0000000000000000      0x470 S:/UltimateEnvironment/code-mod-example/param-replace/code-mod-framework/lib/libnx_min/nx/lib\libnx_min.a(mutex.o)
 .debug_line    0x0000000000000000      0x55a S:/UltimateEnvironment/code-mod-example/param-replace/code-mod-framework/lib/libnx_min/nx/lib\libnx_min.a(mutex.o)
 .debug_str     0x0000000000000000      0x36c S:/UltimateEnvironment/code-mod-example/param-replace/code-mod-framework/lib/libnx_min/nx/lib\libnx_min.a(mutex.o)
 .comment       0x0000000000000000       0x23 S:/UltimateEnvironment/code-mod-example/param-replace/code-mod-framework/lib/libnx_min/nx/lib\libnx_min.a(mutex.o)
 .text          0x0000000000000000        0x0 S:/UltimateEnvironment/code-mod-example/param-replace/code-mod-framework/lib/libnx_min/nx/lib\libnx_min.a(fs.o)
 .data          0x0000000000000000        0x0 S:/UltimateEnvironment/code-mod-example/param-replace/code-mod-framework/lib/libnx_min/nx/lib\libnx_min.a(fs.o)
 .bss           0x0000000000000000        0x0 S:/UltimateEnvironment/code-mod-example/param-replace/code-mod-framework/lib/libnx_min/nx/lib\libnx_min.a(fs.o)
 .debug_info    0x0000000000000000    0x148db S:/UltimateEnvironment/code-mod-example/param-replace/code-mod-framework/lib/libnx_min/nx/lib\libnx_min.a(fs.o)
 .debug_abbrev  0x0000000000000000      0x6cd S:/UltimateEnvironment/code-mod-example/param-replace/code-mod-framework/lib/libnx_min/nx/lib\libnx_min.a(fs.o)
 .debug_loc     0x0000000000000000    0x23e9b S:/UltimateEnvironment/code-mod-example/param-replace/code-mod-framework/lib/libnx_min/nx/lib\libnx_min.a(fs.o)
 .debug_aranges
                0x0000000000000000      0x4a0 S:/UltimateEnvironment/code-mod-example/param-replace/code-mod-framework/lib/libnx_min/nx/lib\libnx_min.a(fs.o)
 .debug_ranges  0x0000000000000000     0xb5b0 S:/UltimateEnvironment/code-mod-example/param-replace/code-mod-framework/lib/libnx_min/nx/lib\libnx_min.a(fs.o)
 .debug_line    0x0000000000000000     0xb10a S:/UltimateEnvironment/code-mod-example/param-replace/code-mod-framework/lib/libnx_min/nx/lib\libnx_min.a(fs.o)
 .debug_str     0x0000000000000000     0x23ae S:/UltimateEnvironment/code-mod-example/param-replace/code-mod-framework/lib/libnx_min/nx/lib\libnx_min.a(fs.o)
 .comment       0x0000000000000000       0x23 S:/UltimateEnvironment/code-mod-example/param-replace/code-mod-framework/lib/libnx_min/nx/lib\libnx_min.a(fs.o)
 .text          0x0000000000000000        0x0 S:/UltimateEnvironment/code-mod-example/param-replace/code-mod-framework/lib/libnx_min/nx/lib\libnx_min.a(set.o)
 .data          0x0000000000000000        0x0 S:/UltimateEnvironment/code-mod-example/param-replace/code-mod-framework/lib/libnx_min/nx/lib\libnx_min.a(set.o)
 .bss           0x0000000000000000        0x0 S:/UltimateEnvironment/code-mod-example/param-replace/code-mod-framework/lib/libnx_min/nx/lib\libnx_min.a(set.o)
 .debug_info    0x0000000000000000     0x692b S:/UltimateEnvironment/code-mod-example/param-replace/code-mod-framework/lib/libnx_min/nx/lib\libnx_min.a(set.o)
 .debug_abbrev  0x0000000000000000      0x5eb S:/UltimateEnvironment/code-mod-example/param-replace/code-mod-framework/lib/libnx_min/nx/lib\libnx_min.a(set.o)
 .debug_loc     0x0000000000000000     0xc88f S:/UltimateEnvironment/code-mod-example/param-replace/code-mod-framework/lib/libnx_min/nx/lib\libnx_min.a(set.o)
 .debug_aranges
                0x0000000000000000      0x1d0 S:/UltimateEnvironment/code-mod-example/param-replace/code-mod-framework/lib/libnx_min/nx/lib\libnx_min.a(set.o)
 .debug_ranges  0x0000000000000000     0x25f0 S:/UltimateEnvironment/code-mod-example/param-replace/code-mod-framework/lib/libnx_min/nx/lib\libnx_min.a(set.o)
 .debug_line    0x0000000000000000     0x3059 S:/UltimateEnvironment/code-mod-example/param-replace/code-mod-framework/lib/libnx_min/nx/lib\libnx_min.a(set.o)
 .debug_str     0x0000000000000000     0x1aeb S:/UltimateEnvironment/code-mod-example/param-replace/code-mod-framework/lib/libnx_min/nx/lib\libnx_min.a(set.o)
 .comment       0x0000000000000000       0x23 S:/UltimateEnvironment/code-mod-example/param-replace/code-mod-framework/lib/libnx_min/nx/lib\libnx_min.a(set.o)
 .text          0x0000000000000000        0x0 S:/UltimateEnvironment/code-mod-example/param-replace/code-mod-framework/lib/libnx_min/nx/lib\libnx_min.a(fatal.o)
 .data          0x0000000000000000        0x0 S:/UltimateEnvironment/code-mod-example/param-replace/code-mod-framework/lib/libnx_min/nx/lib\libnx_min.a(fatal.o)
 .bss           0x0000000000000000        0x0 S:/UltimateEnvironment/code-mod-example/param-replace/code-mod-framework/lib/libnx_min/nx/lib\libnx_min.a(fatal.o)
 .debug_info    0x0000000000000000      0xd6e S:/UltimateEnvironment/code-mod-example/param-replace/code-mod-framework/lib/libnx_min/nx/lib\libnx_min.a(fatal.o)
 .debug_abbrev  0x0000000000000000      0x393 S:/UltimateEnvironment/code-mod-example/param-replace/code-mod-framework/lib/libnx_min/nx/lib\libnx_min.a(fatal.o)
 .debug_loc     0x0000000000000000      0x895 S:/UltimateEnvironment/code-mod-example/param-replace/code-mod-framework/lib/libnx_min/nx/lib\libnx_min.a(fatal.o)
 .debug_aranges
                0x0000000000000000       0x60 S:/UltimateEnvironment/code-mod-example/param-replace/code-mod-framework/lib/libnx_min/nx/lib\libnx_min.a(fatal.o)
 .debug_ranges  0x0000000000000000      0x240 S:/UltimateEnvironment/code-mod-example/param-replace/code-mod-framework/lib/libnx_min/nx/lib\libnx_min.a(fatal.o)
 .debug_line    0x0000000000000000      0x53d S:/UltimateEnvironment/code-mod-example/param-replace/code-mod-framework/lib/libnx_min/nx/lib\libnx_min.a(fatal.o)
 .debug_str     0x0000000000000000      0x72b S:/UltimateEnvironment/code-mod-example/param-replace/code-mod-framework/lib/libnx_min/nx/lib\libnx_min.a(fatal.o)
 .comment       0x0000000000000000       0x23 S:/UltimateEnvironment/code-mod-example/param-replace/code-mod-framework/lib/libnx_min/nx/lib\libnx_min.a(fatal.o)
 .text          0x0000000000000000        0x0 S:/UltimateEnvironment/code-mod-example/param-replace/code-mod-framework/lib/libnx_min/nx/lib\libnx_min.a(sm.o)
 .data          0x0000000000000000        0x0 S:/UltimateEnvironment/code-mod-example/param-replace/code-mod-framework/lib/libnx_min/nx/lib\libnx_min.a(sm.o)
 .bss           0x0000000000000000        0x0 S:/UltimateEnvironment/code-mod-example/param-replace/code-mod-framework/lib/libnx_min/nx/lib\libnx_min.a(sm.o)
 .debug_info    0x0000000000000000     0x34eb S:/UltimateEnvironment/code-mod-example/param-replace/code-mod-framework/lib/libnx_min/nx/lib\libnx_min.a(sm.o)
 .debug_abbrev  0x0000000000000000      0x4c4 S:/UltimateEnvironment/code-mod-example/param-replace/code-mod-framework/lib/libnx_min/nx/lib\libnx_min.a(sm.o)
 .debug_loc     0x0000000000000000     0x5a55 S:/UltimateEnvironment/code-mod-example/param-replace/code-mod-framework/lib/libnx_min/nx/lib\libnx_min.a(sm.o)
 .debug_aranges
                0x0000000000000000       0xe0 S:/UltimateEnvironment/code-mod-example/param-replace/code-mod-framework/lib/libnx_min/nx/lib\libnx_min.a(sm.o)
 .debug_ranges  0x0000000000000000     0x1160 S:/UltimateEnvironment/code-mod-example/param-replace/code-mod-framework/lib/libnx_min/nx/lib\libnx_min.a(sm.o)
 .debug_line    0x0000000000000000     0x16ce S:/UltimateEnvironment/code-mod-example/param-replace/code-mod-framework/lib/libnx_min/nx/lib\libnx_min.a(sm.o)
 .debug_str     0x0000000000000000     0x14d3 S:/UltimateEnvironment/code-mod-example/param-replace/code-mod-framework/lib/libnx_min/nx/lib\libnx_min.a(sm.o)
 .comment       0x0000000000000000       0x23 S:/UltimateEnvironment/code-mod-example/param-replace/code-mod-framework/lib/libnx_min/nx/lib\libnx_min.a(sm.o)
 .text          0x0000000000000000        0x0 S:/UltimateEnvironment/code-mod-example/param-replace/code-mod-framework/lib/libnx_min/nx/lib\libnx_min.a(hid.o)
 .data          0x0000000000000000        0x0 S:/UltimateEnvironment/code-mod-example/param-replace/code-mod-framework/lib/libnx_min/nx/lib\libnx_min.a(hid.o)
 .bss           0x0000000000000000        0x0 S:/UltimateEnvironment/code-mod-example/param-replace/code-mod-framework/lib/libnx_min/nx/lib\libnx_min.a(hid.o)
 .debug_info    0x0000000000000000     0xb19f S:/UltimateEnvironment/code-mod-example/param-replace/code-mod-framework/lib/libnx_min/nx/lib\libnx_min.a(hid.o)
 .debug_abbrev  0x0000000000000000      0x743 S:/UltimateEnvironment/code-mod-example/param-replace/code-mod-framework/lib/libnx_min/nx/lib\libnx_min.a(hid.o)
 .debug_loc     0x0000000000000000    0x1192e S:/UltimateEnvironment/code-mod-example/param-replace/code-mod-framework/lib/libnx_min/nx/lib\libnx_min.a(hid.o)
 .debug_aranges
                0x0000000000000000      0x450 S:/UltimateEnvironment/code-mod-example/param-replace/code-mod-framework/lib/libnx_min/nx/lib\libnx_min.a(hid.o)
 .debug_ranges  0x0000000000000000     0x3140 S:/UltimateEnvironment/code-mod-example/param-replace/code-mod-framework/lib/libnx_min/nx/lib\libnx_min.a(hid.o)
 .debug_line    0x0000000000000000     0x4f8f S:/UltimateEnvironment/code-mod-example/param-replace/code-mod-framework/lib/libnx_min/nx/lib\libnx_min.a(hid.o)
 .debug_str     0x0000000000000000     0x3354 S:/UltimateEnvironment/code-mod-example/param-replace/code-mod-framework/lib/libnx_min/nx/lib\libnx_min.a(hid.o)
 .comment       0x0000000000000000       0x23 S:/UltimateEnvironment/code-mod-example/param-replace/code-mod-framework/lib/libnx_min/nx/lib\libnx_min.a(hid.o)
 .text          0x0000000000000000        0x0 S:/UltimateEnvironment/code-mod-example/param-replace/code-mod-framework/lib/libnx_min/nx/lib\libnx_min.a(time.o)
 .data          0x0000000000000000        0x0 S:/UltimateEnvironment/code-mod-example/param-replace/code-mod-framework/lib/libnx_min/nx/lib\libnx_min.a(time.o)
 .bss           0x0000000000000000        0x0 S:/UltimateEnvironment/code-mod-example/param-replace/code-mod-framework/lib/libnx_min/nx/lib\libnx_min.a(time.o)
 .debug_info    0x0000000000000000     0x2f93 S:/UltimateEnvironment/code-mod-example/param-replace/code-mod-framework/lib/libnx_min/nx/lib\libnx_min.a(time.o)
 .debug_abbrev  0x0000000000000000      0x544 S:/UltimateEnvironment/code-mod-example/param-replace/code-mod-framework/lib/libnx_min/nx/lib\libnx_min.a(time.o)
 .debug_loc     0x0000000000000000     0x36b5 S:/UltimateEnvironment/code-mod-example/param-replace/code-mod-framework/lib/libnx_min/nx/lib\libnx_min.a(time.o)
 .debug_aranges
                0x0000000000000000       0xa0 S:/UltimateEnvironment/code-mod-example/param-replace/code-mod-framework/lib/libnx_min/nx/lib\libnx_min.a(time.o)
 .debug_ranges  0x0000000000000000      0xa70 S:/UltimateEnvironment/code-mod-example/param-replace/code-mod-framework/lib/libnx_min/nx/lib\libnx_min.a(time.o)
 .debug_line    0x0000000000000000     0x102e S:/UltimateEnvironment/code-mod-example/param-replace/code-mod-framework/lib/libnx_min/nx/lib\libnx_min.a(time.o)
 .debug_str     0x0000000000000000     0x14e3 S:/UltimateEnvironment/code-mod-example/param-replace/code-mod-framework/lib/libnx_min/nx/lib\libnx_min.a(time.o)
 .comment       0x0000000000000000       0x23 S:/UltimateEnvironment/code-mod-example/param-replace/code-mod-framework/lib/libnx_min/nx/lib\libnx_min.a(time.o)
 .text          0x0000000000000000        0x0 S:/UltimateEnvironment/code-mod-example/param-replace/code-mod-framework/lib/libnx_min/nx/lib\libnx_min.a(applet.o)
 .data          0x0000000000000000        0x0 S:/UltimateEnvironment/code-mod-example/param-replace/code-mod-framework/lib/libnx_min/nx/lib\libnx_min.a(applet.o)
 .bss           0x0000000000000000        0x0 S:/UltimateEnvironment/code-mod-example/param-replace/code-mod-framework/lib/libnx_min/nx/lib\libnx_min.a(applet.o)
 .data.__nx_applet_type
                0x0000000000000000        0x4 S:/UltimateEnvironment/code-mod-example/param-replace/code-mod-framework/lib/libnx_min/nx/lib\libnx_min.a(applet.o)
 .debug_info    0x0000000000000000    0x1572b S:/UltimateEnvironment/code-mod-example/param-replace/code-mod-framework/lib/libnx_min/nx/lib\libnx_min.a(applet.o)
 .debug_abbrev  0x0000000000000000      0x76e S:/UltimateEnvironment/code-mod-example/param-replace/code-mod-framework/lib/libnx_min/nx/lib\libnx_min.a(applet.o)
 .debug_loc     0x0000000000000000    0x20f04 S:/UltimateEnvironment/code-mod-example/param-replace/code-mod-framework/lib/libnx_min/nx/lib\libnx_min.a(applet.o)
 .debug_aranges
                0x0000000000000000      0x730 S:/UltimateEnvironment/code-mod-example/param-replace/code-mod-framework/lib/libnx_min/nx/lib\libnx_min.a(applet.o)
 .debug_ranges  0x0000000000000000     0x8b40 S:/UltimateEnvironment/code-mod-example/param-replace/code-mod-framework/lib/libnx_min/nx/lib\libnx_min.a(applet.o)
 .debug_line    0x0000000000000000     0xad08 S:/UltimateEnvironment/code-mod-example/param-replace/code-mod-framework/lib/libnx_min/nx/lib\libnx_min.a(applet.o)
 .debug_str     0x0000000000000000     0x3088 S:/UltimateEnvironment/code-mod-example/param-replace/code-mod-framework/lib/libnx_min/nx/lib\libnx_min.a(applet.o)
 .comment       0x0000000000000000       0x23 S:/UltimateEnvironment/code-mod-example/param-replace/code-mod-framework/lib/libnx_min/nx/lib\libnx_min.a(applet.o)
 .text          0x0000000000000000        0x0 S:/UltimateEnvironment/code-mod-example/param-replace/code-mod-framework/lib/libnx_min/nx/lib\libnx_min.a(newlib.o)
 .data          0x0000000000000000        0x0 S:/UltimateEnvironment/code-mod-example/param-replace/code-mod-framework/lib/libnx_min/nx/lib\libnx_min.a(newlib.o)
 .bss           0x0000000000000000        0x0 S:/UltimateEnvironment/code-mod-example/param-replace/code-mod-framework/lib/libnx_min/nx/lib\libnx_min.a(newlib.o)
 .debug_info    0x0000000000000000     0x2bc2 S:/UltimateEnvironment/code-mod-example/param-replace/code-mod-framework/lib/libnx_min/nx/lib\libnx_min.a(newlib.o)
 .debug_abbrev  0x0000000000000000      0x571 S:/UltimateEnvironment/code-mod-example/param-replace/code-mod-framework/lib/libnx_min/nx/lib\libnx_min.a(newlib.o)
 .debug_loc     0x0000000000000000     0x192e S:/UltimateEnvironment/code-mod-example/param-replace/code-mod-framework/lib/libnx_min/nx/lib\libnx_min.a(newlib.o)
 .debug_aranges
                0x0000000000000000      0x1f0 S:/UltimateEnvironment/code-mod-example/param-replace/code-mod-framework/lib/libnx_min/nx/lib\libnx_min.a(newlib.o)
 .debug_ranges  0x0000000000000000      0x4e0 S:/UltimateEnvironment/code-mod-example/param-replace/code-mod-framework/lib/libnx_min/nx/lib\libnx_min.a(newlib.o)
 .debug_line    0x0000000000000000     0x1041 S:/UltimateEnvironment/code-mod-example/param-replace/code-mod-framework/lib/libnx_min/nx/lib\libnx_min.a(newlib.o)
 .debug_str     0x0000000000000000     0x1876 S:/UltimateEnvironment/code-mod-example/param-replace/code-mod-framework/lib/libnx_min/nx/lib\libnx_min.a(newlib.o)
 .comment       0x0000000000000000       0x23 S:/UltimateEnvironment/code-mod-example/param-replace/code-mod-framework/lib/libnx_min/nx/lib\libnx_min.a(newlib.o)
 .text          0x0000000000000000        0x0 S:/UltimateEnvironment/code-mod-example/param-replace/code-mod-framework/lib/libnx_min/nx/lib\libnx_min.a(thread.o)
 .data          0x0000000000000000        0x0 S:/UltimateEnvironment/code-mod-example/param-replace/code-mod-framework/lib/libnx_min/nx/lib\libnx_min.a(thread.o)
 .bss           0x0000000000000000        0x0 S:/UltimateEnvironment/code-mod-example/param-replace/code-mod-framework/lib/libnx_min/nx/lib\libnx_min.a(thread.o)
 .debug_info    0x0000000000000000     0x1a68 S:/UltimateEnvironment/code-mod-example/param-replace/code-mod-framework/lib/libnx_min/nx/lib\libnx_min.a(thread.o)
 .debug_abbrev  0x0000000000000000      0x492 S:/UltimateEnvironment/code-mod-example/param-replace/code-mod-framework/lib/libnx_min/nx/lib\libnx_min.a(thread.o)
 .debug_loc     0x0000000000000000      0xbd2 S:/UltimateEnvironment/code-mod-example/param-replace/code-mod-framework/lib/libnx_min/nx/lib\libnx_min.a(thread.o)
 .debug_aranges
                0x0000000000000000      0x100 S:/UltimateEnvironment/code-mod-example/param-replace/code-mod-framework/lib/libnx_min/nx/lib\libnx_min.a(thread.o)
 .debug_ranges  0x0000000000000000      0x320 S:/UltimateEnvironment/code-mod-example/param-replace/code-mod-framework/lib/libnx_min/nx/lib\libnx_min.a(thread.o)
 .debug_line    0x0000000000000000      0x984 S:/UltimateEnvironment/code-mod-example/param-replace/code-mod-framework/lib/libnx_min/nx/lib\libnx_min.a(thread.o)
 .debug_str     0x0000000000000000      0xfb6 S:/UltimateEnvironment/code-mod-example/param-replace/code-mod-framework/lib/libnx_min/nx/lib\libnx_min.a(thread.o)
 .comment       0x0000000000000000       0x23 S:/UltimateEnvironment/code-mod-example/param-replace/code-mod-framework/lib/libnx_min/nx/lib\libnx_min.a(thread.o)
 .text          0x0000000000000000        0x0 S:/UltimateEnvironment/code-mod-example/param-replace/code-mod-framework/lib/libnx_min/nx/lib\libnx_min.a(condvar.o)
 .data          0x0000000000000000        0x0 S:/UltimateEnvironment/code-mod-example/param-replace/code-mod-framework/lib/libnx_min/nx/lib\libnx_min.a(condvar.o)
 .bss           0x0000000000000000        0x0 S:/UltimateEnvironment/code-mod-example/param-replace/code-mod-framework/lib/libnx_min/nx/lib\libnx_min.a(condvar.o)
 .debug_info    0x0000000000000000      0x396 S:/UltimateEnvironment/code-mod-example/param-replace/code-mod-framework/lib/libnx_min/nx/lib\libnx_min.a(condvar.o)
 .debug_abbrev  0x0000000000000000      0x1aa S:/UltimateEnvironment/code-mod-example/param-replace/code-mod-framework/lib/libnx_min/nx/lib\libnx_min.a(condvar.o)
 .debug_loc     0x0000000000000000      0x1c1 S:/UltimateEnvironment/code-mod-example/param-replace/code-mod-framework/lib/libnx_min/nx/lib\libnx_min.a(condvar.o)
 .debug_aranges
                0x0000000000000000       0x30 S:/UltimateEnvironment/code-mod-example/param-replace/code-mod-framework/lib/libnx_min/nx/lib\libnx_min.a(condvar.o)
 .debug_ranges  0x0000000000000000       0x60 S:/UltimateEnvironment/code-mod-example/param-replace/code-mod-framework/lib/libnx_min/nx/lib\libnx_min.a(condvar.o)
 .debug_line    0x0000000000000000      0x30c S:/UltimateEnvironment/code-mod-example/param-replace/code-mod-framework/lib/libnx_min/nx/lib\libnx_min.a(condvar.o)
 .debug_str     0x0000000000000000      0x318 S:/UltimateEnvironment/code-mod-example/param-replace/code-mod-framework/lib/libnx_min/nx/lib\libnx_min.a(condvar.o)
 .comment       0x0000000000000000       0x23 S:/UltimateEnvironment/code-mod-example/param-replace/code-mod-framework/lib/libnx_min/nx/lib\libnx_min.a(condvar.o)
 .text          0x0000000000000000        0x0 S:/UltimateEnvironment/code-mod-example/param-replace/code-mod-framework/lib/libnx_min/nx/lib\libnx_min.a(event.o)
 .data          0x0000000000000000        0x0 S:/UltimateEnvironment/code-mod-example/param-replace/code-mod-framework/lib/libnx_min/nx/lib\libnx_min.a(event.o)
 .bss           0x0000000000000000        0x0 S:/UltimateEnvironment/code-mod-example/param-replace/code-mod-framework/lib/libnx_min/nx/lib\libnx_min.a(event.o)
 .debug_info    0x0000000000000000      0x702 S:/UltimateEnvironment/code-mod-example/param-replace/code-mod-framework/lib/libnx_min/nx/lib\libnx_min.a(event.o)
 .debug_abbrev  0x0000000000000000      0x28b S:/UltimateEnvironment/code-mod-example/param-replace/code-mod-framework/lib/libnx_min/nx/lib\libnx_min.a(event.o)
 .debug_loc     0x0000000000000000      0x2e3 S:/UltimateEnvironment/code-mod-example/param-replace/code-mod-framework/lib/libnx_min/nx/lib\libnx_min.a(event.o)
 .debug_aranges
                0x0000000000000000       0x80 S:/UltimateEnvironment/code-mod-example/param-replace/code-mod-framework/lib/libnx_min/nx/lib\libnx_min.a(event.o)
 .debug_ranges  0x0000000000000000       0xe0 S:/UltimateEnvironment/code-mod-example/param-replace/code-mod-framework/lib/libnx_min/nx/lib\libnx_min.a(event.o)
 .debug_line    0x0000000000000000      0x355 S:/UltimateEnvironment/code-mod-example/param-replace/code-mod-framework/lib/libnx_min/nx/lib\libnx_min.a(event.o)
 .debug_str     0x0000000000000000      0x918 S:/UltimateEnvironment/code-mod-example/param-replace/code-mod-framework/lib/libnx_min/nx/lib\libnx_min.a(event.o)
 .comment       0x0000000000000000       0x23 S:/UltimateEnvironment/code-mod-example/param-replace/code-mod-framework/lib/libnx_min/nx/lib\libnx_min.a(event.o)
 .text          0x0000000000000000        0x0 S:/UltimateEnvironment/code-mod-example/param-replace/code-mod-framework/lib/libnx_min/nx/lib\libnx_min.a(tmem.o)
 .data          0x0000000000000000        0x0 S:/UltimateEnvironment/code-mod-example/param-replace/code-mod-framework/lib/libnx_min/nx/lib\libnx_min.a(tmem.o)
 .bss           0x0000000000000000        0x0 S:/UltimateEnvironment/code-mod-example/param-replace/code-mod-framework/lib/libnx_min/nx/lib\libnx_min.a(tmem.o)
 .debug_info    0x0000000000000000     0x100a S:/UltimateEnvironment/code-mod-example/param-replace/code-mod-framework/lib/libnx_min/nx/lib\libnx_min.a(tmem.o)
 .debug_abbrev  0x0000000000000000      0x3a2 S:/UltimateEnvironment/code-mod-example/param-replace/code-mod-framework/lib/libnx_min/nx/lib\libnx_min.a(tmem.o)
 .debug_loc     0x0000000000000000      0x6e2 S:/UltimateEnvironment/code-mod-example/param-replace/code-mod-framework/lib/libnx_min/nx/lib\libnx_min.a(tmem.o)
 .debug_aranges
                0x0000000000000000       0x80 S:/UltimateEnvironment/code-mod-example/param-replace/code-mod-framework/lib/libnx_min/nx/lib\libnx_min.a(tmem.o)
 .debug_ranges  0x0000000000000000       0xf0 S:/UltimateEnvironment/code-mod-example/param-replace/code-mod-framework/lib/libnx_min/nx/lib\libnx_min.a(tmem.o)
 .debug_line    0x0000000000000000      0x4b3 S:/UltimateEnvironment/code-mod-example/param-replace/code-mod-framework/lib/libnx_min/nx/lib\libnx_min.a(tmem.o)
 .debug_str     0x0000000000000000      0xd17 S:/UltimateEnvironment/code-mod-example/param-replace/code-mod-framework/lib/libnx_min/nx/lib\libnx_min.a(tmem.o)
 .comment       0x0000000000000000       0x23 S:/UltimateEnvironment/code-mod-example/param-replace/code-mod-framework/lib/libnx_min/nx/lib\libnx_min.a(tmem.o)
 .text          0x0000000000000000        0x0 S:/UltimateEnvironment/code-mod-example/param-replace/code-mod-framework/lib/libnx_min/nx/lib\libnx_min.a(rwlock.o)
 .data          0x0000000000000000        0x0 S:/UltimateEnvironment/code-mod-example/param-replace/code-mod-framework/lib/libnx_min/nx/lib\libnx_min.a(rwlock.o)
 .bss           0x0000000000000000        0x0 S:/UltimateEnvironment/code-mod-example/param-replace/code-mod-framework/lib/libnx_min/nx/lib\libnx_min.a(rwlock.o)
 .debug_info    0x0000000000000000      0x659 S:/UltimateEnvironment/code-mod-example/param-replace/code-mod-framework/lib/libnx_min/nx/lib\libnx_min.a(rwlock.o)
 .debug_abbrev  0x0000000000000000      0x1cc S:/UltimateEnvironment/code-mod-example/param-replace/code-mod-framework/lib/libnx_min/nx/lib\libnx_min.a(rwlock.o)
 .debug_loc     0x0000000000000000      0x4ab S:/UltimateEnvironment/code-mod-example/param-replace/code-mod-framework/lib/libnx_min/nx/lib\libnx_min.a(rwlock.o)
 .debug_aranges
                0x0000000000000000       0x70 S:/UltimateEnvironment/code-mod-example/param-replace/code-mod-framework/lib/libnx_min/nx/lib\libnx_min.a(rwlock.o)
 .debug_ranges  0x0000000000000000      0x130 S:/UltimateEnvironment/code-mod-example/param-replace/code-mod-framework/lib/libnx_min/nx/lib\libnx_min.a(rwlock.o)
 .debug_line    0x0000000000000000      0x397 S:/UltimateEnvironment/code-mod-example/param-replace/code-mod-framework/lib/libnx_min/nx/lib\libnx_min.a(rwlock.o)
 .debug_str     0x0000000000000000      0x30e S:/UltimateEnvironment/code-mod-example/param-replace/code-mod-framework/lib/libnx_min/nx/lib\libnx_min.a(rwlock.o)
 .comment       0x0000000000000000       0x23 S:/UltimateEnvironment/code-mod-example/param-replace/code-mod-framework/lib/libnx_min/nx/lib\libnx_min.a(rwlock.o)
 .text          0x0000000000000000        0x0 S:/UltimateEnvironment/code-mod-example/param-replace/code-mod-framework/lib/libnx_min/nx/lib\libnx_min.a(wait.o)
 .data          0x0000000000000000        0x0 S:/UltimateEnvironment/code-mod-example/param-replace/code-mod-framework/lib/libnx_min/nx/lib\libnx_min.a(wait.o)
 .bss           0x0000000000000000        0x0 S:/UltimateEnvironment/code-mod-example/param-replace/code-mod-framework/lib/libnx_min/nx/lib\libnx_min.a(wait.o)
 .debug_info    0x0000000000000000      0xe46 S:/UltimateEnvironment/code-mod-example/param-replace/code-mod-framework/lib/libnx_min/nx/lib\libnx_min.a(wait.o)
 .debug_abbrev  0x0000000000000000      0x35d S:/UltimateEnvironment/code-mod-example/param-replace/code-mod-framework/lib/libnx_min/nx/lib\libnx_min.a(wait.o)
 .debug_loc     0x0000000000000000      0xeb6 S:/UltimateEnvironment/code-mod-example/param-replace/code-mod-framework/lib/libnx_min/nx/lib\libnx_min.a(wait.o)
 .debug_aranges
                0x0000000000000000       0x60 S:/UltimateEnvironment/code-mod-example/param-replace/code-mod-framework/lib/libnx_min/nx/lib\libnx_min.a(wait.o)
 .debug_ranges  0x0000000000000000      0x290 S:/UltimateEnvironment/code-mod-example/param-replace/code-mod-framework/lib/libnx_min/nx/lib\libnx_min.a(wait.o)
 .debug_line    0x0000000000000000      0x72f S:/UltimateEnvironment/code-mod-example/param-replace/code-mod-framework/lib/libnx_min/nx/lib\libnx_min.a(wait.o)
 .debug_str     0x0000000000000000      0x9cf S:/UltimateEnvironment/code-mod-example/param-replace/code-mod-framework/lib/libnx_min/nx/lib\libnx_min.a(wait.o)
 .comment       0x0000000000000000       0x23 S:/UltimateEnvironment/code-mod-example/param-replace/code-mod-framework/lib/libnx_min/nx/lib\libnx_min.a(wait.o)
 .text          0x0000000000000000        0x0 S:/UltimateEnvironment/code-mod-example/param-replace/code-mod-framework/lib/libnx_min/nx/lib\libnx_min.a(shmem.o)
 .data          0x0000000000000000        0x0 S:/UltimateEnvironment/code-mod-example/param-replace/code-mod-framework/lib/libnx_min/nx/lib\libnx_min.a(shmem.o)
 .bss           0x0000000000000000        0x0 S:/UltimateEnvironment/code-mod-example/param-replace/code-mod-framework/lib/libnx_min/nx/lib\libnx_min.a(shmem.o)
 .debug_info    0x0000000000000000      0xe91 S:/UltimateEnvironment/code-mod-example/param-replace/code-mod-framework/lib/libnx_min/nx/lib\libnx_min.a(shmem.o)
 .debug_abbrev  0x0000000000000000      0x377 S:/UltimateEnvironment/code-mod-example/param-replace/code-mod-framework/lib/libnx_min/nx/lib\libnx_min.a(shmem.o)
 .debug_loc     0x0000000000000000      0x442 S:/UltimateEnvironment/code-mod-example/param-replace/code-mod-framework/lib/libnx_min/nx/lib\libnx_min.a(shmem.o)
 .debug_aranges
                0x0000000000000000       0x70 S:/UltimateEnvironment/code-mod-example/param-replace/code-mod-framework/lib/libnx_min/nx/lib\libnx_min.a(shmem.o)
 .debug_ranges  0x0000000000000000       0xe0 S:/UltimateEnvironment/code-mod-example/param-replace/code-mod-framework/lib/libnx_min/nx/lib\libnx_min.a(shmem.o)
 .debug_line    0x0000000000000000      0x3ad S:/UltimateEnvironment/code-mod-example/param-replace/code-mod-framework/lib/libnx_min/nx/lib\libnx_min.a(shmem.o)
 .debug_str     0x0000000000000000      0xc62 S:/UltimateEnvironment/code-mod-example/param-replace/code-mod-framework/lib/libnx_min/nx/lib\libnx_min.a(shmem.o)
 .comment       0x0000000000000000       0x23 S:/UltimateEnvironment/code-mod-example/param-replace/code-mod-framework/lib/libnx_min/nx/lib\libnx_min.a(shmem.o)
 .text          0x0000000000000000        0x0 S:/UltimateEnvironment/code-mod-example/param-replace/code-mod-framework/lib/libnx_min/nx/lib\libnx_min.a(detect.o)
 .data          0x0000000000000000        0x0 S:/UltimateEnvironment/code-mod-example/param-replace/code-mod-framework/lib/libnx_min/nx/lib\libnx_min.a(detect.o)
 .bss           0x0000000000000000        0x0 S:/UltimateEnvironment/code-mod-example/param-replace/code-mod-framework/lib/libnx_min/nx/lib\libnx_min.a(detect.o)
 .debug_info    0x0000000000000000     0x103a S:/UltimateEnvironment/code-mod-example/param-replace/code-mod-framework/lib/libnx_min/nx/lib\libnx_min.a(detect.o)
 .debug_abbrev  0x0000000000000000      0x31e S:/UltimateEnvironment/code-mod-example/param-replace/code-mod-framework/lib/libnx_min/nx/lib\libnx_min.a(detect.o)
 .debug_loc     0x0000000000000000       0xb3 S:/UltimateEnvironment/code-mod-example/param-replace/code-mod-framework/lib/libnx_min/nx/lib\libnx_min.a(detect.o)
 .debug_aranges
                0x0000000000000000       0x60 S:/UltimateEnvironment/code-mod-example/param-replace/code-mod-framework/lib/libnx_min/nx/lib\libnx_min.a(detect.o)
 .debug_ranges  0x0000000000000000      0x130 S:/UltimateEnvironment/code-mod-example/param-replace/code-mod-framework/lib/libnx_min/nx/lib\libnx_min.a(detect.o)
 .debug_line    0x0000000000000000      0x43a S:/UltimateEnvironment/code-mod-example/param-replace/code-mod-framework/lib/libnx_min/nx/lib\libnx_min.a(detect.o)
 .debug_str     0x0000000000000000      0xe6f S:/UltimateEnvironment/code-mod-example/param-replace/code-mod-framework/lib/libnx_min/nx/lib\libnx_min.a(detect.o)
 .comment       0x0000000000000000       0x23 S:/UltimateEnvironment/code-mod-example/param-replace/code-mod-framework/lib/libnx_min/nx/lib\libnx_min.a(detect.o)
 .text          0x0000000000000000        0x0 S:/UltimateEnvironment/code-mod-example/param-replace/code-mod-framework/lib/libnx_min/nx/lib\libnx_min.a(apm.o)
 .data          0x0000000000000000        0x0 S:/UltimateEnvironment/code-mod-example/param-replace/code-mod-framework/lib/libnx_min/nx/lib\libnx_min.a(apm.o)
 .bss           0x0000000000000000        0x0 S:/UltimateEnvironment/code-mod-example/param-replace/code-mod-framework/lib/libnx_min/nx/lib\libnx_min.a(apm.o)
 .debug_info    0x0000000000000000     0x1b13 S:/UltimateEnvironment/code-mod-example/param-replace/code-mod-framework/lib/libnx_min/nx/lib\libnx_min.a(apm.o)
 .debug_abbrev  0x0000000000000000      0x442 S:/UltimateEnvironment/code-mod-example/param-replace/code-mod-framework/lib/libnx_min/nx/lib\libnx_min.a(apm.o)
 .debug_loc     0x0000000000000000     0x239a S:/UltimateEnvironment/code-mod-example/param-replace/code-mod-framework/lib/libnx_min/nx/lib\libnx_min.a(apm.o)
 .debug_aranges
                0x0000000000000000       0x80 S:/UltimateEnvironment/code-mod-example/param-replace/code-mod-framework/lib/libnx_min/nx/lib\libnx_min.a(apm.o)
 .debug_ranges  0x0000000000000000      0x630 S:/UltimateEnvironment/code-mod-example/param-replace/code-mod-framework/lib/libnx_min/nx/lib\libnx_min.a(apm.o)
 .debug_line    0x0000000000000000      0xb50 S:/UltimateEnvironment/code-mod-example/param-replace/code-mod-framework/lib/libnx_min/nx/lib\libnx_min.a(apm.o)
 .debug_str     0x0000000000000000      0x9ea S:/UltimateEnvironment/code-mod-example/param-replace/code-mod-framework/lib/libnx_min/nx/lib\libnx_min.a(apm.o)
 .comment       0x0000000000000000       0x23 S:/UltimateEnvironment/code-mod-example/param-replace/code-mod-framework/lib/libnx_min/nx/lib\libnx_min.a(apm.o)
 .text          0x0000000000000000        0x0 c:/devkitpro/devkita64/bin/../lib/gcc/aarch64-none-elf/8.3.0/../../../../aarch64-none-elf/lib/pic\libg.a(lib_a-bsearch.o)
 .data          0x0000000000000000        0x0 c:/devkitpro/devkita64/bin/../lib/gcc/aarch64-none-elf/8.3.0/../../../../aarch64-none-elf/lib/pic\libg.a(lib_a-bsearch.o)
 .bss           0x0000000000000000        0x0 c:/devkitpro/devkita64/bin/../lib/gcc/aarch64-none-elf/8.3.0/../../../../aarch64-none-elf/lib/pic\libg.a(lib_a-bsearch.o)
 .comment       0x0000000000000000       0x23 c:/devkitpro/devkita64/bin/../lib/gcc/aarch64-none-elf/8.3.0/../../../../aarch64-none-elf/lib/pic\libg.a(lib_a-bsearch.o)
 .text          0x0000000000000000        0x0 c:/devkitpro/devkita64/bin/../lib/gcc/aarch64-none-elf/8.3.0/../../../../aarch64-none-elf/lib/pic\libg.a(lib_a-ctype_.o)
 .data          0x0000000000000000        0x0 c:/devkitpro/devkita64/bin/../lib/gcc/aarch64-none-elf/8.3.0/../../../../aarch64-none-elf/lib/pic\libg.a(lib_a-ctype_.o)
 .bss           0x0000000000000000        0x0 c:/devkitpro/devkita64/bin/../lib/gcc/aarch64-none-elf/8.3.0/../../../../aarch64-none-elf/lib/pic\libg.a(lib_a-ctype_.o)
 .comment       0x0000000000000000       0x23 c:/devkitpro/devkita64/bin/../lib/gcc/aarch64-none-elf/8.3.0/../../../../aarch64-none-elf/lib/pic\libg.a(lib_a-ctype_.o)
 .text          0x0000000000000000        0x0 c:/devkitpro/devkita64/bin/../lib/gcc/aarch64-none-elf/8.3.0/../../../../aarch64-none-elf/lib/pic\libg.a(lib_a-errno.o)
 .data          0x0000000000000000        0x0 c:/devkitpro/devkita64/bin/../lib/gcc/aarch64-none-elf/8.3.0/../../../../aarch64-none-elf/lib/pic\libg.a(lib_a-errno.o)
 .bss           0x0000000000000000        0x0 c:/devkitpro/devkita64/bin/../lib/gcc/aarch64-none-elf/8.3.0/../../../../aarch64-none-elf/lib/pic\libg.a(lib_a-errno.o)
 .comment       0x0000000000000000       0x23 c:/devkitpro/devkita64/bin/../lib/gcc/aarch64-none-elf/8.3.0/../../../../aarch64-none-elf/lib/pic\libg.a(lib_a-errno.o)
 .text          0x0000000000000000        0x0 c:/devkitpro/devkita64/bin/../lib/gcc/aarch64-none-elf/8.3.0/../../../../aarch64-none-elf/lib/pic\libg.a(lib_a-exit.o)
 .data          0x0000000000000000        0x0 c:/devkitpro/devkita64/bin/../lib/gcc/aarch64-none-elf/8.3.0/../../../../aarch64-none-elf/lib/pic\libg.a(lib_a-exit.o)
 .bss           0x0000000000000000        0x0 c:/devkitpro/devkita64/bin/../lib/gcc/aarch64-none-elf/8.3.0/../../../../aarch64-none-elf/lib/pic\libg.a(lib_a-exit.o)
 .comment       0x0000000000000000       0x23 c:/devkitpro/devkita64/bin/../lib/gcc/aarch64-none-elf/8.3.0/../../../../aarch64-none-elf/lib/pic\libg.a(lib_a-exit.o)
 .text          0x0000000000000000        0x0 c:/devkitpro/devkita64/bin/../lib/gcc/aarch64-none-elf/8.3.0/../../../../aarch64-none-elf/lib/pic\libg.a(lib_a-fini.o)
 .data          0x0000000000000000        0x0 c:/devkitpro/devkita64/bin/../lib/gcc/aarch64-none-elf/8.3.0/../../../../aarch64-none-elf/lib/pic\libg.a(lib_a-fini.o)
 .bss           0x0000000000000000        0x0 c:/devkitpro/devkita64/bin/../lib/gcc/aarch64-none-elf/8.3.0/../../../../aarch64-none-elf/lib/pic\libg.a(lib_a-fini.o)
 .comment       0x0000000000000000       0x23 c:/devkitpro/devkita64/bin/../lib/gcc/aarch64-none-elf/8.3.0/../../../../aarch64-none-elf/lib/pic\libg.a(lib_a-fini.o)
 .text          0x0000000000000000        0x0 c:/devkitpro/devkita64/bin/../lib/gcc/aarch64-none-elf/8.3.0/../../../../aarch64-none-elf/lib/pic\libg.a(lib_a-impure.o)
 .data          0x0000000000000000        0x0 c:/devkitpro/devkita64/bin/../lib/gcc/aarch64-none-elf/8.3.0/../../../../aarch64-none-elf/lib/pic\libg.a(lib_a-impure.o)
 .bss           0x0000000000000000        0x0 c:/devkitpro/devkita64/bin/../lib/gcc/aarch64-none-elf/8.3.0/../../../../aarch64-none-elf/lib/pic\libg.a(lib_a-impure.o)
 .comment       0x0000000000000000       0x23 c:/devkitpro/devkita64/bin/../lib/gcc/aarch64-none-elf/8.3.0/../../../../aarch64-none-elf/lib/pic\libg.a(lib_a-impure.o)
 .text          0x0000000000000000        0x0 c:/devkitpro/devkita64/bin/../lib/gcc/aarch64-none-elf/8.3.0/../../../../aarch64-none-elf/lib/pic\libg.a(lib_a-init.o)
 .data          0x0000000000000000        0x0 c:/devkitpro/devkita64/bin/../lib/gcc/aarch64-none-elf/8.3.0/../../../../aarch64-none-elf/lib/pic\libg.a(lib_a-init.o)
 .bss           0x0000000000000000        0x0 c:/devkitpro/devkita64/bin/../lib/gcc/aarch64-none-elf/8.3.0/../../../../aarch64-none-elf/lib/pic\libg.a(lib_a-init.o)
 .comment       0x0000000000000000       0x23 c:/devkitpro/devkita64/bin/../lib/gcc/aarch64-none-elf/8.3.0/../../../../aarch64-none-elf/lib/pic\libg.a(lib_a-init.o)
 .text          0x0000000000000000        0x0 c:/devkitpro/devkita64/bin/../lib/gcc/aarch64-none-elf/8.3.0/../../../../aarch64-none-elf/lib/pic\libg.a(lib_a-malign.o)
 .data          0x0000000000000000        0x0 c:/devkitpro/devkita64/bin/../lib/gcc/aarch64-none-elf/8.3.0/../../../../aarch64-none-elf/lib/pic\libg.a(lib_a-malign.o)
 .bss           0x0000000000000000        0x0 c:/devkitpro/devkita64/bin/../lib/gcc/aarch64-none-elf/8.3.0/../../../../aarch64-none-elf/lib/pic\libg.a(lib_a-malign.o)
 .comment       0x0000000000000000       0x23 c:/devkitpro/devkita64/bin/../lib/gcc/aarch64-none-elf/8.3.0/../../../../aarch64-none-elf/lib/pic\libg.a(lib_a-malign.o)
 .text          0x0000000000000000        0x0 c:/devkitpro/devkita64/bin/../lib/gcc/aarch64-none-elf/8.3.0/../../../../aarch64-none-elf/lib/pic\libg.a(lib_a-malignr.o)
 .data          0x0000000000000000        0x0 c:/devkitpro/devkita64/bin/../lib/gcc/aarch64-none-elf/8.3.0/../../../../aarch64-none-elf/lib/pic\libg.a(lib_a-malignr.o)
 .bss           0x0000000000000000        0x0 c:/devkitpro/devkita64/bin/../lib/gcc/aarch64-none-elf/8.3.0/../../../../aarch64-none-elf/lib/pic\libg.a(lib_a-malignr.o)
 .comment       0x0000000000000000       0x23 c:/devkitpro/devkita64/bin/../lib/gcc/aarch64-none-elf/8.3.0/../../../../aarch64-none-elf/lib/pic\libg.a(lib_a-malignr.o)
 .text          0x0000000000000000        0x0 c:/devkitpro/devkita64/bin/../lib/gcc/aarch64-none-elf/8.3.0/../../../../aarch64-none-elf/lib/pic\libg.a(lib_a-malloc.o)
 .data          0x0000000000000000        0x0 c:/devkitpro/devkita64/bin/../lib/gcc/aarch64-none-elf/8.3.0/../../../../aarch64-none-elf/lib/pic\libg.a(lib_a-malloc.o)
 .bss           0x0000000000000000        0x0 c:/devkitpro/devkita64/bin/../lib/gcc/aarch64-none-elf/8.3.0/../../../../aarch64-none-elf/lib/pic\libg.a(lib_a-malloc.o)
 .comment       0x0000000000000000       0x23 c:/devkitpro/devkita64/bin/../lib/gcc/aarch64-none-elf/8.3.0/../../../../aarch64-none-elf/lib/pic\libg.a(lib_a-malloc.o)
 .text          0x0000000000000000        0x0 c:/devkitpro/devkita64/bin/../lib/gcc/aarch64-none-elf/8.3.0/../../../../aarch64-none-elf/lib/pic\libg.a(lib_a-mallocr.o)
 .data          0x0000000000000000        0x0 c:/devkitpro/devkita64/bin/../lib/gcc/aarch64-none-elf/8.3.0/../../../../aarch64-none-elf/lib/pic\libg.a(lib_a-mallocr.o)
 .bss           0x0000000000000000        0x0 c:/devkitpro/devkita64/bin/../lib/gcc/aarch64-none-elf/8.3.0/../../../../aarch64-none-elf/lib/pic\libg.a(lib_a-mallocr.o)
 .comment       0x0000000000000000       0x23 c:/devkitpro/devkita64/bin/../lib/gcc/aarch64-none-elf/8.3.0/../../../../aarch64-none-elf/lib/pic\libg.a(lib_a-mallocr.o)
 .data          0x0000000000000000        0x0 c:/devkitpro/devkita64/bin/../lib/gcc/aarch64-none-elf/8.3.0/../../../../aarch64-none-elf/lib/pic\libg.a(lib_a-memcpy.o)
 .bss           0x0000000000000000        0x0 c:/devkitpro/devkita64/bin/../lib/gcc/aarch64-none-elf/8.3.0/../../../../aarch64-none-elf/lib/pic\libg.a(lib_a-memcpy.o)
 .data          0x0000000000000000        0x0 c:/devkitpro/devkita64/bin/../lib/gcc/aarch64-none-elf/8.3.0/../../../../aarch64-none-elf/lib/pic\libg.a(lib_a-memset.o)
 .bss           0x0000000000000000        0x0 c:/devkitpro/devkita64/bin/../lib/gcc/aarch64-none-elf/8.3.0/../../../../aarch64-none-elf/lib/pic\libg.a(lib_a-memset.o)
 .text          0x0000000000000000        0x0 c:/devkitpro/devkita64/bin/../lib/gcc/aarch64-none-elf/8.3.0/../../../../aarch64-none-elf/lib/pic\libg.a(lib_a-mlock.o)
 .data          0x0000000000000000        0x0 c:/devkitpro/devkita64/bin/../lib/gcc/aarch64-none-elf/8.3.0/../../../../aarch64-none-elf/lib/pic\libg.a(lib_a-mlock.o)
 .bss           0x0000000000000000        0x0 c:/devkitpro/devkita64/bin/../lib/gcc/aarch64-none-elf/8.3.0/../../../../aarch64-none-elf/lib/pic\libg.a(lib_a-mlock.o)
 .comment       0x0000000000000000       0x23 c:/devkitpro/devkita64/bin/../lib/gcc/aarch64-none-elf/8.3.0/../../../../aarch64-none-elf/lib/pic\libg.a(lib_a-mlock.o)
 .text          0x0000000000000000        0x0 c:/devkitpro/devkita64/bin/../lib/gcc/aarch64-none-elf/8.3.0/../../../../aarch64-none-elf/lib/pic\libg.a(lib_a-setenv.o)
 .data          0x0000000000000000        0x0 c:/devkitpro/devkita64/bin/../lib/gcc/aarch64-none-elf/8.3.0/../../../../aarch64-none-elf/lib/pic\libg.a(lib_a-setenv.o)
 .bss           0x0000000000000000        0x0 c:/devkitpro/devkita64/bin/../lib/gcc/aarch64-none-elf/8.3.0/../../../../aarch64-none-elf/lib/pic\libg.a(lib_a-setenv.o)
 .comment       0x0000000000000000       0x23 c:/devkitpro/devkita64/bin/../lib/gcc/aarch64-none-elf/8.3.0/../../../../aarch64-none-elf/lib/pic\libg.a(lib_a-setenv.o)
 .text          0x0000000000000000        0x0 c:/devkitpro/devkita64/bin/../lib/gcc/aarch64-none-elf/8.3.0/../../../../aarch64-none-elf/lib/pic\libg.a(lib_a-setenv_r.o)
 .data          0x0000000000000000        0x0 c:/devkitpro/devkita64/bin/../lib/gcc/aarch64-none-elf/8.3.0/../../../../aarch64-none-elf/lib/pic\libg.a(lib_a-setenv_r.o)
 .bss           0x0000000000000000        0x0 c:/devkitpro/devkita64/bin/../lib/gcc/aarch64-none-elf/8.3.0/../../../../aarch64-none-elf/lib/pic\libg.a(lib_a-setenv_r.o)
 .comment       0x0000000000000000       0x23 c:/devkitpro/devkita64/bin/../lib/gcc/aarch64-none-elf/8.3.0/../../../../aarch64-none-elf/lib/pic\libg.a(lib_a-setenv_r.o)
 .data          0x0000000000000000        0x0 c:/devkitpro/devkita64/bin/../lib/gcc/aarch64-none-elf/8.3.0/../../../../aarch64-none-elf/lib/pic\libg.a(lib_a-strchr.o)
 .bss           0x0000000000000000        0x0 c:/devkitpro/devkita64/bin/../lib/gcc/aarch64-none-elf/8.3.0/../../../../aarch64-none-elf/lib/pic\libg.a(lib_a-strchr.o)
 .data          0x0000000000000000        0x0 c:/devkitpro/devkita64/bin/../lib/gcc/aarch64-none-elf/8.3.0/../../../../aarch64-none-elf/lib/pic\libg.a(lib_a-strcpy.o)
 .bss           0x0000000000000000        0x0 c:/devkitpro/devkita64/bin/../lib/gcc/aarch64-none-elf/8.3.0/../../../../aarch64-none-elf/lib/pic\libg.a(lib_a-strcpy.o)
 .data          0x0000000000000000        0x0 c:/devkitpro/devkita64/bin/../lib/gcc/aarch64-none-elf/8.3.0/../../../../aarch64-none-elf/lib/pic\libg.a(lib_a-strlen.o)
 .bss           0x0000000000000000        0x0 c:/devkitpro/devkita64/bin/../lib/gcc/aarch64-none-elf/8.3.0/../../../../aarch64-none-elf/lib/pic\libg.a(lib_a-strlen.o)
 .text          0x0000000000000000        0x0 c:/devkitpro/devkita64/bin/../lib/gcc/aarch64-none-elf/8.3.0/../../../../aarch64-none-elf/lib/pic\libg.a(lib_a-strncat.o)
 .data          0x0000000000000000        0x0 c:/devkitpro/devkita64/bin/../lib/gcc/aarch64-none-elf/8.3.0/../../../../aarch64-none-elf/lib/pic\libg.a(lib_a-strncat.o)
 .bss           0x0000000000000000        0x0 c:/devkitpro/devkita64/bin/../lib/gcc/aarch64-none-elf/8.3.0/../../../../aarch64-none-elf/lib/pic\libg.a(lib_a-strncat.o)
 .comment       0x0000000000000000       0x23 c:/devkitpro/devkita64/bin/../lib/gcc/aarch64-none-elf/8.3.0/../../../../aarch64-none-elf/lib/pic\libg.a(lib_a-strncat.o)
 .data          0x0000000000000000        0x0 c:/devkitpro/devkita64/bin/../lib/gcc/aarch64-none-elf/8.3.0/../../../../aarch64-none-elf/lib/pic\libg.a(lib_a-strncmp.o)
 .bss           0x0000000000000000        0x0 c:/devkitpro/devkita64/bin/../lib/gcc/aarch64-none-elf/8.3.0/../../../../aarch64-none-elf/lib/pic\libg.a(lib_a-strncmp.o)
 .text          0x0000000000000000        0x0 c:/devkitpro/devkita64/bin/../lib/gcc/aarch64-none-elf/8.3.0/../../../../aarch64-none-elf/lib/pic\libg.a(lib_a-strncpy.o)
 .data          0x0000000000000000        0x0 c:/devkitpro/devkita64/bin/../lib/gcc/aarch64-none-elf/8.3.0/../../../../aarch64-none-elf/lib/pic\libg.a(lib_a-strncpy.o)
 .bss           0x0000000000000000        0x0 c:/devkitpro/devkita64/bin/../lib/gcc/aarch64-none-elf/8.3.0/../../../../aarch64-none-elf/lib/pic\libg.a(lib_a-strncpy.o)
 .comment       0x0000000000000000       0x23 c:/devkitpro/devkita64/bin/../lib/gcc/aarch64-none-elf/8.3.0/../../../../aarch64-none-elf/lib/pic\libg.a(lib_a-strncpy.o)
 .data          0x0000000000000000        0x0 c:/devkitpro/devkita64/bin/../lib/gcc/aarch64-none-elf/8.3.0/../../../../aarch64-none-elf/lib/pic\libg.a(lib_a-strnlen.o)
 .bss           0x0000000000000000        0x0 c:/devkitpro/devkita64/bin/../lib/gcc/aarch64-none-elf/8.3.0/../../../../aarch64-none-elf/lib/pic\libg.a(lib_a-strnlen.o)
 .text          0x0000000000000000        0x0 c:/devkitpro/devkita64/bin/../lib/gcc/aarch64-none-elf/8.3.0/../../../../aarch64-none-elf/lib/pic\libg.a(lib_a-toupper.o)
 .data          0x0000000000000000        0x0 c:/devkitpro/devkita64/bin/../lib/gcc/aarch64-none-elf/8.3.0/../../../../aarch64-none-elf/lib/pic\libg.a(lib_a-toupper.o)
 .bss           0x0000000000000000        0x0 c:/devkitpro/devkita64/bin/../lib/gcc/aarch64-none-elf/8.3.0/../../../../aarch64-none-elf/lib/pic\libg.a(lib_a-toupper.o)
 .comment       0x0000000000000000       0x23 c:/devkitpro/devkita64/bin/../lib/gcc/aarch64-none-elf/8.3.0/../../../../aarch64-none-elf/lib/pic\libg.a(lib_a-toupper.o)
 .text          0x0000000000000000        0x0 c:/devkitpro/devkita64/bin/../lib/gcc/aarch64-none-elf/8.3.0/../../../../aarch64-none-elf/lib/pic\libg.a(lib_a-vsnprintf.o)
 .data          0x0000000000000000        0x0 c:/devkitpro/devkita64/bin/../lib/gcc/aarch64-none-elf/8.3.0/../../../../aarch64-none-elf/lib/pic\libg.a(lib_a-vsnprintf.o)
 .bss           0x0000000000000000        0x0 c:/devkitpro/devkita64/bin/../lib/gcc/aarch64-none-elf/8.3.0/../../../../aarch64-none-elf/lib/pic\libg.a(lib_a-vsnprintf.o)
 .comment       0x0000000000000000       0x23 c:/devkitpro/devkita64/bin/../lib/gcc/aarch64-none-elf/8.3.0/../../../../aarch64-none-elf/lib/pic\libg.a(lib_a-vsnprintf.o)
 .text          0x0000000000000000        0x0 c:/devkitpro/devkita64/bin/../lib/gcc/aarch64-none-elf/8.3.0/../../../../aarch64-none-elf/lib/pic\libg.a(lib_a-__call_atexit.o)
 .data          0x0000000000000000        0x0 c:/devkitpro/devkita64/bin/../lib/gcc/aarch64-none-elf/8.3.0/../../../../aarch64-none-elf/lib/pic\libg.a(lib_a-__call_atexit.o)
 .bss           0x0000000000000000        0x0 c:/devkitpro/devkita64/bin/../lib/gcc/aarch64-none-elf/8.3.0/../../../../aarch64-none-elf/lib/pic\libg.a(lib_a-__call_atexit.o)
 .comment       0x0000000000000000       0x23 c:/devkitpro/devkita64/bin/../lib/gcc/aarch64-none-elf/8.3.0/../../../../aarch64-none-elf/lib/pic\libg.a(lib_a-__call_atexit.o)
 .text          0x0000000000000000        0x0 c:/devkitpro/devkita64/bin/../lib/gcc/aarch64-none-elf/8.3.0/../../../../aarch64-none-elf/lib/pic\libg.a(lib_a-environ.o)
 .data          0x0000000000000000        0x0 c:/devkitpro/devkita64/bin/../lib/gcc/aarch64-none-elf/8.3.0/../../../../aarch64-none-elf/lib/pic\libg.a(lib_a-environ.o)
 .bss           0x0000000000000000        0x0 c:/devkitpro/devkita64/bin/../lib/gcc/aarch64-none-elf/8.3.0/../../../../aarch64-none-elf/lib/pic\libg.a(lib_a-environ.o)
 .comment       0x0000000000000000       0x23 c:/devkitpro/devkita64/bin/../lib/gcc/aarch64-none-elf/8.3.0/../../../../aarch64-none-elf/lib/pic\libg.a(lib_a-environ.o)
 .text          0x0000000000000000        0x0 c:/devkitpro/devkita64/bin/../lib/gcc/aarch64-none-elf/8.3.0/../../../../aarch64-none-elf/lib/pic\libg.a(lib_a-envlock.o)
 .data          0x0000000000000000        0x0 c:/devkitpro/devkita64/bin/../lib/gcc/aarch64-none-elf/8.3.0/../../../../aarch64-none-elf/lib/pic\libg.a(lib_a-envlock.o)
 .bss           0x0000000000000000        0x0 c:/devkitpro/devkita64/bin/../lib/gcc/aarch64-none-elf/8.3.0/../../../../aarch64-none-elf/lib/pic\libg.a(lib_a-envlock.o)
 .comment       0x0000000000000000       0x23 c:/devkitpro/devkita64/bin/../lib/gcc/aarch64-none-elf/8.3.0/../../../../aarch64-none-elf/lib/pic\libg.a(lib_a-envlock.o)
 .text          0x0000000000000000        0x0 c:/devkitpro/devkita64/bin/../lib/gcc/aarch64-none-elf/8.3.0/../../../../aarch64-none-elf/lib/pic\libg.a(lib_a-freer.o)
 .data          0x0000000000000000        0x0 c:/devkitpro/devkita64/bin/../lib/gcc/aarch64-none-elf/8.3.0/../../../../aarch64-none-elf/lib/pic\libg.a(lib_a-freer.o)
 .bss           0x0000000000000000        0x0 c:/devkitpro/devkita64/bin/../lib/gcc/aarch64-none-elf/8.3.0/../../../../aarch64-none-elf/lib/pic\libg.a(lib_a-freer.o)
 .comment       0x0000000000000000       0x23 c:/devkitpro/devkita64/bin/../lib/gcc/aarch64-none-elf/8.3.0/../../../../aarch64-none-elf/lib/pic\libg.a(lib_a-freer.o)
 .text          0x0000000000000000        0x0 c:/devkitpro/devkita64/bin/../lib/gcc/aarch64-none-elf/8.3.0/../../../../aarch64-none-elf/lib/pic\libg.a(lib_a-getenv_r.o)
 .data          0x0000000000000000        0x0 c:/devkitpro/devkita64/bin/../lib/gcc/aarch64-none-elf/8.3.0/../../../../aarch64-none-elf/lib/pic\libg.a(lib_a-getenv_r.o)
 .bss           0x0000000000000000        0x0 c:/devkitpro/devkita64/bin/../lib/gcc/aarch64-none-elf/8.3.0/../../../../aarch64-none-elf/lib/pic\libg.a(lib_a-getenv_r.o)
 .comment       0x0000000000000000       0x23 c:/devkitpro/devkita64/bin/../lib/gcc/aarch64-none-elf/8.3.0/../../../../aarch64-none-elf/lib/pic\libg.a(lib_a-getenv_r.o)
 .text          0x0000000000000000        0x0 c:/devkitpro/devkita64/bin/../lib/gcc/aarch64-none-elf/8.3.0/../../../../aarch64-none-elf/lib/pic\libg.a(lib_a-reallocr.o)
 .data          0x0000000000000000        0x0 c:/devkitpro/devkita64/bin/../lib/gcc/aarch64-none-elf/8.3.0/../../../../aarch64-none-elf/lib/pic\libg.a(lib_a-reallocr.o)
 .bss           0x0000000000000000        0x0 c:/devkitpro/devkita64/bin/../lib/gcc/aarch64-none-elf/8.3.0/../../../../aarch64-none-elf/lib/pic\libg.a(lib_a-reallocr.o)
 .comment       0x0000000000000000       0x23 c:/devkitpro/devkita64/bin/../lib/gcc/aarch64-none-elf/8.3.0/../../../../aarch64-none-elf/lib/pic\libg.a(lib_a-reallocr.o)
 .text          0x0000000000000000        0x0 c:/devkitpro/devkita64/bin/../lib/gcc/aarch64-none-elf/8.3.0/../../../../aarch64-none-elf/lib/pic\libg.a(lib_a-svfprintf.o)
 .data          0x0000000000000000        0x0 c:/devkitpro/devkita64/bin/../lib/gcc/aarch64-none-elf/8.3.0/../../../../aarch64-none-elf/lib/pic\libg.a(lib_a-svfprintf.o)
 .bss           0x0000000000000000        0x0 c:/devkitpro/devkita64/bin/../lib/gcc/aarch64-none-elf/8.3.0/../../../../aarch64-none-elf/lib/pic\libg.a(lib_a-svfprintf.o)
 .comment       0x0000000000000000       0x23 c:/devkitpro/devkita64/bin/../lib/gcc/aarch64-none-elf/8.3.0/../../../../aarch64-none-elf/lib/pic\libg.a(lib_a-svfprintf.o)
 .text          0x0000000000000000        0x0 c:/devkitpro/devkita64/bin/../lib/gcc/aarch64-none-elf/8.3.0/../../../../aarch64-none-elf/lib/pic\libg.a(lib_a-wcrtomb.o)
 .data          0x0000000000000000        0x0 c:/devkitpro/devkita64/bin/../lib/gcc/aarch64-none-elf/8.3.0/../../../../aarch64-none-elf/lib/pic\libg.a(lib_a-wcrtomb.o)
 .bss           0x0000000000000000        0x0 c:/devkitpro/devkita64/bin/../lib/gcc/aarch64-none-elf/8.3.0/../../../../aarch64-none-elf/lib/pic\libg.a(lib_a-wcrtomb.o)
 .comment       0x0000000000000000       0x23 c:/devkitpro/devkita64/bin/../lib/gcc/aarch64-none-elf/8.3.0/../../../../aarch64-none-elf/lib/pic\libg.a(lib_a-wcrtomb.o)
 .text          0x0000000000000000        0x0 c:/devkitpro/devkita64/bin/../lib/gcc/aarch64-none-elf/8.3.0/../../../../aarch64-none-elf/lib/pic\libg.a(lib_a-wcsrtombs.o)
 .data          0x0000000000000000        0x0 c:/devkitpro/devkita64/bin/../lib/gcc/aarch64-none-elf/8.3.0/../../../../aarch64-none-elf/lib/pic\libg.a(lib_a-wcsrtombs.o)
 .bss           0x0000000000000000        0x0 c:/devkitpro/devkita64/bin/../lib/gcc/aarch64-none-elf/8.3.0/../../../../aarch64-none-elf/lib/pic\libg.a(lib_a-wcsrtombs.o)
 .comment       0x0000000000000000       0x23 c:/devkitpro/devkita64/bin/../lib/gcc/aarch64-none-elf/8.3.0/../../../../aarch64-none-elf/lib/pic\libg.a(lib_a-wcsrtombs.o)
 .text          0x0000000000000000        0x0 c:/devkitpro/devkita64/bin/../lib/gcc/aarch64-none-elf/8.3.0/../../../../aarch64-none-elf/lib/pic\libg.a(lib_a-dtoa.o)
 .data          0x0000000000000000        0x0 c:/devkitpro/devkita64/bin/../lib/gcc/aarch64-none-elf/8.3.0/../../../../aarch64-none-elf/lib/pic\libg.a(lib_a-dtoa.o)
 .bss           0x0000000000000000        0x0 c:/devkitpro/devkita64/bin/../lib/gcc/aarch64-none-elf/8.3.0/../../../../aarch64-none-elf/lib/pic\libg.a(lib_a-dtoa.o)
 .comment       0x0000000000000000       0x23 c:/devkitpro/devkita64/bin/../lib/gcc/aarch64-none-elf/8.3.0/../../../../aarch64-none-elf/lib/pic\libg.a(lib_a-dtoa.o)
 .text          0x0000000000000000        0x0 c:/devkitpro/devkita64/bin/../lib/gcc/aarch64-none-elf/8.3.0/../../../../aarch64-none-elf/lib/pic\libg.a(lib_a-localeconv.o)
 .data          0x0000000000000000        0x0 c:/devkitpro/devkita64/bin/../lib/gcc/aarch64-none-elf/8.3.0/../../../../aarch64-none-elf/lib/pic\libg.a(lib_a-localeconv.o)
 .bss           0x0000000000000000        0x0 c:/devkitpro/devkita64/bin/../lib/gcc/aarch64-none-elf/8.3.0/../../../../aarch64-none-elf/lib/pic\libg.a(lib_a-localeconv.o)
 .comment       0x0000000000000000       0x23 c:/devkitpro/devkita64/bin/../lib/gcc/aarch64-none-elf/8.3.0/../../../../aarch64-none-elf/lib/pic\libg.a(lib_a-localeconv.o)
 .text          0x0000000000000000        0x0 c:/devkitpro/devkita64/bin/../lib/gcc/aarch64-none-elf/8.3.0/../../../../aarch64-none-elf/lib/pic\libg.a(lib_a-locale.o)
 .data          0x0000000000000000        0x0 c:/devkitpro/devkita64/bin/../lib/gcc/aarch64-none-elf/8.3.0/../../../../aarch64-none-elf/lib/pic\libg.a(lib_a-locale.o)
 .bss           0x0000000000000000        0x0 c:/devkitpro/devkita64/bin/../lib/gcc/aarch64-none-elf/8.3.0/../../../../aarch64-none-elf/lib/pic\libg.a(lib_a-locale.o)
 .comment       0x0000000000000000       0x23 c:/devkitpro/devkita64/bin/../lib/gcc/aarch64-none-elf/8.3.0/../../../../aarch64-none-elf/lib/pic\libg.a(lib_a-locale.o)
 .text          0x0000000000000000        0x0 c:/devkitpro/devkita64/bin/../lib/gcc/aarch64-none-elf/8.3.0/../../../../aarch64-none-elf/lib/pic\libg.a(lib_a-mbtowc_r.o)
 .data          0x0000000000000000        0x0 c:/devkitpro/devkita64/bin/../lib/gcc/aarch64-none-elf/8.3.0/../../../../aarch64-none-elf/lib/pic\libg.a(lib_a-mbtowc_r.o)
 .bss           0x0000000000000000        0x0 c:/devkitpro/devkita64/bin/../lib/gcc/aarch64-none-elf/8.3.0/../../../../aarch64-none-elf/lib/pic\libg.a(lib_a-mbtowc_r.o)
 .comment       0x0000000000000000       0x23 c:/devkitpro/devkita64/bin/../lib/gcc/aarch64-none-elf/8.3.0/../../../../aarch64-none-elf/lib/pic\libg.a(lib_a-mbtowc_r.o)
 .data          0x0000000000000000        0x0 c:/devkitpro/devkita64/bin/../lib/gcc/aarch64-none-elf/8.3.0/../../../../aarch64-none-elf/lib/pic\libg.a(lib_a-memchr.o)
 .bss           0x0000000000000000        0x0 c:/devkitpro/devkita64/bin/../lib/gcc/aarch64-none-elf/8.3.0/../../../../aarch64-none-elf/lib/pic\libg.a(lib_a-memchr.o)
 .data          0x0000000000000000        0x0 c:/devkitpro/devkita64/bin/../lib/gcc/aarch64-none-elf/8.3.0/../../../../aarch64-none-elf/lib/pic\libg.a(lib_a-memmove.o)
 .bss           0x0000000000000000        0x0 c:/devkitpro/devkita64/bin/../lib/gcc/aarch64-none-elf/8.3.0/../../../../aarch64-none-elf/lib/pic\libg.a(lib_a-memmove.o)
 .text          0x0000000000000000        0x0 c:/devkitpro/devkita64/bin/../lib/gcc/aarch64-none-elf/8.3.0/../../../../aarch64-none-elf/lib/pic\libg.a(lib_a-mprec.o)
 .data          0x0000000000000000        0x0 c:/devkitpro/devkita64/bin/../lib/gcc/aarch64-none-elf/8.3.0/../../../../aarch64-none-elf/lib/pic\libg.a(lib_a-mprec.o)
 .bss           0x0000000000000000        0x0 c:/devkitpro/devkita64/bin/../lib/gcc/aarch64-none-elf/8.3.0/../../../../aarch64-none-elf/lib/pic\libg.a(lib_a-mprec.o)
 .comment       0x0000000000000000       0x23 c:/devkitpro/devkita64/bin/../lib/gcc/aarch64-none-elf/8.3.0/../../../../aarch64-none-elf/lib/pic\libg.a(lib_a-mprec.o)
 .text          0x0000000000000000        0x0 c:/devkitpro/devkita64/bin/../lib/gcc/aarch64-none-elf/8.3.0/../../../../aarch64-none-elf/lib/pic\libg.a(lib_a-s_frexp.o)
 .data          0x0000000000000000        0x0 c:/devkitpro/devkita64/bin/../lib/gcc/aarch64-none-elf/8.3.0/../../../../aarch64-none-elf/lib/pic\libg.a(lib_a-s_frexp.o)
 .bss           0x0000000000000000        0x0 c:/devkitpro/devkita64/bin/../lib/gcc/aarch64-none-elf/8.3.0/../../../../aarch64-none-elf/lib/pic\libg.a(lib_a-s_frexp.o)
 .comment       0x0000000000000000       0x23 c:/devkitpro/devkita64/bin/../lib/gcc/aarch64-none-elf/8.3.0/../../../../aarch64-none-elf/lib/pic\libg.a(lib_a-s_frexp.o)
 .text          0x0000000000000000        0x0 c:/devkitpro/devkita64/bin/../lib/gcc/aarch64-none-elf/8.3.0/../../../../aarch64-none-elf/lib/pic\libg.a(lib_a-strcasecmp.o)
 .data          0x0000000000000000        0x0 c:/devkitpro/devkita64/bin/../lib/gcc/aarch64-none-elf/8.3.0/../../../../aarch64-none-elf/lib/pic\libg.a(lib_a-strcasecmp.o)
 .bss           0x0000000000000000        0x0 c:/devkitpro/devkita64/bin/../lib/gcc/aarch64-none-elf/8.3.0/../../../../aarch64-none-elf/lib/pic\libg.a(lib_a-strcasecmp.o)
 .comment       0x0000000000000000       0x23 c:/devkitpro/devkita64/bin/../lib/gcc/aarch64-none-elf/8.3.0/../../../../aarch64-none-elf/lib/pic\libg.a(lib_a-strcasecmp.o)
 .text          0x0000000000000000        0x0 c:/devkitpro/devkita64/bin/../lib/gcc/aarch64-none-elf/8.3.0/../../../../aarch64-none-elf/lib/pic\libg.a(lib_a-strcat.o)
 .data          0x0000000000000000        0x0 c:/devkitpro/devkita64/bin/../lib/gcc/aarch64-none-elf/8.3.0/../../../../aarch64-none-elf/lib/pic\libg.a(lib_a-strcat.o)
 .bss           0x0000000000000000        0x0 c:/devkitpro/devkita64/bin/../lib/gcc/aarch64-none-elf/8.3.0/../../../../aarch64-none-elf/lib/pic\libg.a(lib_a-strcat.o)
 .comment       0x0000000000000000       0x23 c:/devkitpro/devkita64/bin/../lib/gcc/aarch64-none-elf/8.3.0/../../../../aarch64-none-elf/lib/pic\libg.a(lib_a-strcat.o)
 .data          0x0000000000000000        0x0 c:/devkitpro/devkita64/bin/../lib/gcc/aarch64-none-elf/8.3.0/../../../../aarch64-none-elf/lib/pic\libg.a(lib_a-strcmp.o)
 .bss           0x0000000000000000        0x0 c:/devkitpro/devkita64/bin/../lib/gcc/aarch64-none-elf/8.3.0/../../../../aarch64-none-elf/lib/pic\libg.a(lib_a-strcmp.o)
 .text          0x0000000000000000        0x0 c:/devkitpro/devkita64/bin/../lib/gcc/aarch64-none-elf/8.3.0/../../../../aarch64-none-elf/lib/pic\libg.a(lib_a-strlcpy.o)
 .data          0x0000000000000000        0x0 c:/devkitpro/devkita64/bin/../lib/gcc/aarch64-none-elf/8.3.0/../../../../aarch64-none-elf/lib/pic\libg.a(lib_a-strlcpy.o)
 .bss           0x0000000000000000        0x0 c:/devkitpro/devkita64/bin/../lib/gcc/aarch64-none-elf/8.3.0/../../../../aarch64-none-elf/lib/pic\libg.a(lib_a-strlcpy.o)
 .comment       0x0000000000000000       0x23 c:/devkitpro/devkita64/bin/../lib/gcc/aarch64-none-elf/8.3.0/../../../../aarch64-none-elf/lib/pic\libg.a(lib_a-strlcpy.o)
 .text          0x0000000000000000        0x0 c:/devkitpro/devkita64/bin/../lib/gcc/aarch64-none-elf/8.3.0/../../../../aarch64-none-elf/lib/pic\libg.a(lib_a-strncasecmp.o)
 .data          0x0000000000000000        0x0 c:/devkitpro/devkita64/bin/../lib/gcc/aarch64-none-elf/8.3.0/../../../../aarch64-none-elf/lib/pic\libg.a(lib_a-strncasecmp.o)
 .bss           0x0000000000000000        0x0 c:/devkitpro/devkita64/bin/../lib/gcc/aarch64-none-elf/8.3.0/../../../../aarch64-none-elf/lib/pic\libg.a(lib_a-strncasecmp.o)
 .comment       0x0000000000000000       0x23 c:/devkitpro/devkita64/bin/../lib/gcc/aarch64-none-elf/8.3.0/../../../../aarch64-none-elf/lib/pic\libg.a(lib_a-strncasecmp.o)
 .text          0x0000000000000000        0x0 c:/devkitpro/devkita64/bin/../lib/gcc/aarch64-none-elf/8.3.0/../../../../aarch64-none-elf/lib/pic\libg.a(lib_a-strtol.o)
 .data          0x0000000000000000        0x0 c:/devkitpro/devkita64/bin/../lib/gcc/aarch64-none-elf/8.3.0/../../../../aarch64-none-elf/lib/pic\libg.a(lib_a-strtol.o)
 .bss           0x0000000000000000        0x0 c:/devkitpro/devkita64/bin/../lib/gcc/aarch64-none-elf/8.3.0/../../../../aarch64-none-elf/lib/pic\libg.a(lib_a-strtol.o)
 .comment       0x0000000000000000       0x23 c:/devkitpro/devkita64/bin/../lib/gcc/aarch64-none-elf/8.3.0/../../../../aarch64-none-elf/lib/pic\libg.a(lib_a-strtol.o)
 .text          0x0000000000000000        0x0 c:/devkitpro/devkita64/bin/../lib/gcc/aarch64-none-elf/8.3.0/../../../../aarch64-none-elf/lib/pic\libg.a(lib_a-svfiprintf.o)
 .data          0x0000000000000000        0x0 c:/devkitpro/devkita64/bin/../lib/gcc/aarch64-none-elf/8.3.0/../../../../aarch64-none-elf/lib/pic\libg.a(lib_a-svfiprintf.o)
 .bss           0x0000000000000000        0x0 c:/devkitpro/devkita64/bin/../lib/gcc/aarch64-none-elf/8.3.0/../../../../aarch64-none-elf/lib/pic\libg.a(lib_a-svfiprintf.o)
 .comment       0x0000000000000000       0x23 c:/devkitpro/devkita64/bin/../lib/gcc/aarch64-none-elf/8.3.0/../../../../aarch64-none-elf/lib/pic\libg.a(lib_a-svfiprintf.o)
 .text          0x0000000000000000        0x0 c:/devkitpro/devkita64/bin/../lib/gcc/aarch64-none-elf/8.3.0/../../../../aarch64-none-elf/lib/pic\libg.a(lib_a-wcsnrtombs.o)
 .data          0x0000000000000000        0x0 c:/devkitpro/devkita64/bin/../lib/gcc/aarch64-none-elf/8.3.0/../../../../aarch64-none-elf/lib/pic\libg.a(lib_a-wcsnrtombs.o)
 .bss           0x0000000000000000        0x0 c:/devkitpro/devkita64/bin/../lib/gcc/aarch64-none-elf/8.3.0/../../../../aarch64-none-elf/lib/pic\libg.a(lib_a-wcsnrtombs.o)
 .comment       0x0000000000000000       0x23 c:/devkitpro/devkita64/bin/../lib/gcc/aarch64-none-elf/8.3.0/../../../../aarch64-none-elf/lib/pic\libg.a(lib_a-wcsnrtombs.o)
 .text          0x0000000000000000        0x0 c:/devkitpro/devkita64/bin/../lib/gcc/aarch64-none-elf/8.3.0/../../../../aarch64-none-elf/lib/pic\libg.a(lib_a-wctomb_r.o)
 .data          0x0000000000000000        0x0 c:/devkitpro/devkita64/bin/../lib/gcc/aarch64-none-elf/8.3.0/../../../../aarch64-none-elf/lib/pic\libg.a(lib_a-wctomb_r.o)
 .bss           0x0000000000000000        0x0 c:/devkitpro/devkita64/bin/../lib/gcc/aarch64-none-elf/8.3.0/../../../../aarch64-none-elf/lib/pic\libg.a(lib_a-wctomb_r.o)
 .comment       0x0000000000000000       0x23 c:/devkitpro/devkita64/bin/../lib/gcc/aarch64-none-elf/8.3.0/../../../../aarch64-none-elf/lib/pic\libg.a(lib_a-wctomb_r.o)
 .text          0x0000000000000000        0x0 c:/devkitpro/devkita64/bin/../lib/gcc/aarch64-none-elf/8.3.0/../../../../aarch64-none-elf/lib/pic\libg.a(lib_a-callocr.o)
 .data          0x0000000000000000        0x0 c:/devkitpro/devkita64/bin/../lib/gcc/aarch64-none-elf/8.3.0/../../../../aarch64-none-elf/lib/pic\libg.a(lib_a-callocr.o)
 .bss           0x0000000000000000        0x0 c:/devkitpro/devkita64/bin/../lib/gcc/aarch64-none-elf/8.3.0/../../../../aarch64-none-elf/lib/pic\libg.a(lib_a-callocr.o)
 .comment       0x0000000000000000       0x23 c:/devkitpro/devkita64/bin/../lib/gcc/aarch64-none-elf/8.3.0/../../../../aarch64-none-elf/lib/pic\libg.a(lib_a-callocr.o)
 .text          0x0000000000000000        0x0 c:/devkitpro/devkita64/bin/../lib/gcc/aarch64-none-elf/8.3.0/../../../../aarch64-none-elf/lib/pic\libsysbase.a(iosupport.o)
 .data          0x0000000000000000        0x0 c:/devkitpro/devkita64/bin/../lib/gcc/aarch64-none-elf/8.3.0/../../../../aarch64-none-elf/lib/pic\libsysbase.a(iosupport.o)
 .bss           0x0000000000000000        0x0 c:/devkitpro/devkita64/bin/../lib/gcc/aarch64-none-elf/8.3.0/../../../../aarch64-none-elf/lib/pic\libsysbase.a(iosupport.o)
 .comment       0x0000000000000000       0x23 c:/devkitpro/devkita64/bin/../lib/gcc/aarch64-none-elf/8.3.0/../../../../aarch64-none-elf/lib/pic\libsysbase.a(iosupport.o)
 .text          0x0000000000000000        0x0 c:/devkitpro/devkita64/bin/../lib/gcc/aarch64-none-elf/8.3.0/../../../../aarch64-none-elf/lib/pic\libsysbase.a(sbrk.o)
 .data          0x0000000000000000        0x0 c:/devkitpro/devkita64/bin/../lib/gcc/aarch64-none-elf/8.3.0/../../../../aarch64-none-elf/lib/pic\libsysbase.a(sbrk.o)
 .bss           0x0000000000000000        0x0 c:/devkitpro/devkita64/bin/../lib/gcc/aarch64-none-elf/8.3.0/../../../../aarch64-none-elf/lib/pic\libsysbase.a(sbrk.o)
 .comment       0x0000000000000000       0x23 c:/devkitpro/devkita64/bin/../lib/gcc/aarch64-none-elf/8.3.0/../../../../aarch64-none-elf/lib/pic\libsysbase.a(sbrk.o)
 .text          0x0000000000000000        0x0 c:/devkitpro/devkita64/bin/../lib/gcc/aarch64-none-elf/8.3.0/../../../../aarch64-none-elf/lib/pic\libsysbase.a(_exit.o)
 .data          0x0000000000000000        0x0 c:/devkitpro/devkita64/bin/../lib/gcc/aarch64-none-elf/8.3.0/../../../../aarch64-none-elf/lib/pic\libsysbase.a(_exit.o)
 .bss           0x0000000000000000        0x0 c:/devkitpro/devkita64/bin/../lib/gcc/aarch64-none-elf/8.3.0/../../../../aarch64-none-elf/lib/pic\libsysbase.a(_exit.o)
 .comment       0x0000000000000000       0x23 c:/devkitpro/devkita64/bin/../lib/gcc/aarch64-none-elf/8.3.0/../../../../aarch64-none-elf/lib/pic\libsysbase.a(_exit.o)
 .text          0x0000000000000000        0x0 c:/devkitpro/devkita64/bin/../lib/gcc/aarch64-none-elf/8.3.0/../../../../aarch64-none-elf/lib/pic\libsysbase.a(malloc_vars.o)
 .data          0x0000000000000000        0x0 c:/devkitpro/devkita64/bin/../lib/gcc/aarch64-none-elf/8.3.0/../../../../aarch64-none-elf/lib/pic\libsysbase.a(malloc_vars.o)
 .bss           0x0000000000000000        0x0 c:/devkitpro/devkita64/bin/../lib/gcc/aarch64-none-elf/8.3.0/../../../../aarch64-none-elf/lib/pic\libsysbase.a(malloc_vars.o)
 .comment       0x0000000000000000       0x23 c:/devkitpro/devkita64/bin/../lib/gcc/aarch64-none-elf/8.3.0/../../../../aarch64-none-elf/lib/pic\libsysbase.a(malloc_vars.o)
 .text          0x0000000000000000        0x0 c:/devkitpro/devkita64/bin/../lib/gcc/aarch64-none-elf/8.3.0/../../../../aarch64-none-elf/lib/pic\libsysbase.a(chdir.o)
 .data          0x0000000000000000        0x0 c:/devkitpro/devkita64/bin/../lib/gcc/aarch64-none-elf/8.3.0/../../../../aarch64-none-elf/lib/pic\libsysbase.a(chdir.o)
 .bss           0x0000000000000000        0x0 c:/devkitpro/devkita64/bin/../lib/gcc/aarch64-none-elf/8.3.0/../../../../aarch64-none-elf/lib/pic\libsysbase.a(chdir.o)
 .comment       0x0000000000000000       0x23 c:/devkitpro/devkita64/bin/../lib/gcc/aarch64-none-elf/8.3.0/../../../../aarch64-none-elf/lib/pic\libsysbase.a(chdir.o)
 .text          0x0000000000000000        0x0 c:/devkitpro/devkita64/bin/../lib/gcc/aarch64-none-elf/8.3.0/../../../../aarch64-none-elf/lib/pic\libsysbase.a(locks.o)
 .data          0x0000000000000000        0x0 c:/devkitpro/devkita64/bin/../lib/gcc/aarch64-none-elf/8.3.0/../../../../aarch64-none-elf/lib/pic\libsysbase.a(locks.o)
 .bss           0x0000000000000000        0x0 c:/devkitpro/devkita64/bin/../lib/gcc/aarch64-none-elf/8.3.0/../../../../aarch64-none-elf/lib/pic\libsysbase.a(locks.o)
 .comment       0x0000000000000000       0x23 c:/devkitpro/devkita64/bin/../lib/gcc/aarch64-none-elf/8.3.0/../../../../aarch64-none-elf/lib/pic\libsysbase.a(locks.o)
 .text          0x0000000000000000        0x0 c:/devkitpro/devkita64/bin/../lib/gcc/aarch64-none-elf/8.3.0/../../../../aarch64-none-elf/lib/pic\libsysbase.a(getreent.o)
 .data          0x0000000000000000        0x0 c:/devkitpro/devkita64/bin/../lib/gcc/aarch64-none-elf/8.3.0/../../../../aarch64-none-elf/lib/pic\libsysbase.a(getreent.o)
 .bss           0x0000000000000000        0x0 c:/devkitpro/devkita64/bin/../lib/gcc/aarch64-none-elf/8.3.0/../../../../aarch64-none-elf/lib/pic\libsysbase.a(getreent.o)
 .comment       0x0000000000000000       0x23 c:/devkitpro/devkita64/bin/../lib/gcc/aarch64-none-elf/8.3.0/../../../../aarch64-none-elf/lib/pic\libsysbase.a(getreent.o)
 .text          0x0000000000000000        0x0 c:/devkitpro/devkita64/bin/../lib/gcc/aarch64-none-elf/8.3.0/../../../../aarch64-none-elf/lib/pic\libsysbase.a(clocks.o)
 .data          0x0000000000000000        0x0 c:/devkitpro/devkita64/bin/../lib/gcc/aarch64-none-elf/8.3.0/../../../../aarch64-none-elf/lib/pic\libsysbase.a(clocks.o)
 .bss           0x0000000000000000        0x0 c:/devkitpro/devkita64/bin/../lib/gcc/aarch64-none-elf/8.3.0/../../../../aarch64-none-elf/lib/pic\libsysbase.a(clocks.o)
 .comment       0x0000000000000000       0x23 c:/devkitpro/devkita64/bin/../lib/gcc/aarch64-none-elf/8.3.0/../../../../aarch64-none-elf/lib/pic\libsysbase.a(clocks.o)
 .text          0x0000000000000000        0x0 c:/devkitpro/devkita64/bin/../lib/gcc/aarch64-none-elf/8.3.0/pic\libgcc.a(trunctfdf2.o)
 .data          0x0000000000000000        0x0 c:/devkitpro/devkita64/bin/../lib/gcc/aarch64-none-elf/8.3.0/pic\libgcc.a(trunctfdf2.o)
 .bss           0x0000000000000000        0x0 c:/devkitpro/devkita64/bin/../lib/gcc/aarch64-none-elf/8.3.0/pic\libgcc.a(trunctfdf2.o)
 .comment       0x0000000000000000       0x23 c:/devkitpro/devkita64/bin/../lib/gcc/aarch64-none-elf/8.3.0/pic\libgcc.a(trunctfdf2.o)
 .text          0x0000000000000000        0x0 c:/devkitpro/devkita64/bin/../lib/gcc/aarch64-none-elf/8.3.0/pic\libgcc.a(sfp-exceptions.o)
 .data          0x0000000000000000        0x0 c:/devkitpro/devkita64/bin/../lib/gcc/aarch64-none-elf/8.3.0/pic\libgcc.a(sfp-exceptions.o)
 .bss           0x0000000000000000        0x0 c:/devkitpro/devkita64/bin/../lib/gcc/aarch64-none-elf/8.3.0/pic\libgcc.a(sfp-exceptions.o)
 .comment       0x0000000000000000       0x23 c:/devkitpro/devkita64/bin/../lib/gcc/aarch64-none-elf/8.3.0/pic\libgcc.a(sfp-exceptions.o)
 .data          0x0000000000000000        0x0 c:/devkitpro/devkita64/bin/../lib/gcc/aarch64-none-elf/8.3.0/../../../../aarch64-none-elf/lib/pic\libg.a(lib_a-strrchr.o)
 .bss           0x0000000000000000        0x0 c:/devkitpro/devkita64/bin/../lib/gcc/aarch64-none-elf/8.3.0/../../../../aarch64-none-elf/lib/pic\libg.a(lib_a-strrchr.o)
 .text          0x0000000000000000        0x0 c:/devkitpro/devkita64/bin/../lib/gcc/aarch64-none-elf/8.3.0/pic/crtend.o
 .data          0x0000000000000000        0x0 c:/devkitpro/devkita64/bin/../lib/gcc/aarch64-none-elf/8.3.0/pic/crtend.o
 .bss           0x0000000000000000        0x0 c:/devkitpro/devkita64/bin/../lib/gcc/aarch64-none-elf/8.3.0/pic/crtend.o
 .comment       0x0000000000000000       0x23 c:/devkitpro/devkita64/bin/../lib/gcc/aarch64-none-elf/8.3.0/pic/crtend.o
 .text          0x0000000000000000        0x0 c:/devkitpro/devkita64/bin/../lib/gcc/aarch64-none-elf/8.3.0/pic/crtn.o
 .data          0x0000000000000000        0x0 c:/devkitpro/devkita64/bin/../lib/gcc/aarch64-none-elf/8.3.0/pic/crtn.o
 .bss           0x0000000000000000        0x0 c:/devkitpro/devkita64/bin/../lib/gcc/aarch64-none-elf/8.3.0/pic/crtn.o

Memory Configuration

Name             Origin             Length             Attributes
*default*        0x0000000000000000 0xffffffffffffffff

Linker script and memory map

                0x0000000000000000                PROVIDE (__start__ = 0x0)
                0x0000000000000000                . = __start__

.crt0           0x0000000000000000      0x158
 *(.crt0)
 .crt0          0x0000000000000000      0x158 S:/UltimateEnvironment/code-mod-example/param-replace/code-mod-framework/lib/libnx_min/nx/lib\libnx_min.a(switch_crt0.o)
                0x0000000000000000                _start
                0x0000000000000120                __nx_exit
                0x0000000000000130                __nx_mod0
                0x0000000000000158                . = ALIGN (0x8)

.init           0x0000000000000158       0x38
 *(.init)
 .init          0x0000000000000158       0x18 c:/devkitpro/devkita64/bin/../lib/gcc/aarch64-none-elf/8.3.0/pic/crti.o
                0x0000000000000158                _init
 .init          0x0000000000000170       0x1c c:/devkitpro/devkita64/bin/../lib/gcc/aarch64-none-elf/8.3.0/pic/crtn.o
                0x0000000000000190                . = ALIGN (0x8)
 *fill*         0x000000000000018c        0x4 

.plt            0x0000000000000190       0xa0
 *(.plt)
 .plt           0x0000000000000190       0xa0 c:/devkitpro/devkita64/bin/../lib/gcc/aarch64-none-elf/8.3.0/pic/crti.o
 *(.iplt)
                0x0000000000000230                . = ALIGN (0x8)

.text           0x0000000000000240    0x2aa08
 *(.text.unlikely .text.*_unlikely .text.unlikely.*)
 *(.text.exit .text.exit.*)
 .text.exit     0x0000000000000240       0x38 c:/devkitpro/devkita64/bin/../lib/gcc/aarch64-none-elf/8.3.0/../../../../aarch64-none-elf/lib/pic\libg.a(lib_a-exit.o)
                0x0000000000000240                exit
 *(.text.startup .text.startup.*)
 *fill*         0x0000000000000278        0x8 
 .text.startup  0x0000000000000280       0x78 main.o
                0x0000000000000280                main
 *(.text.hot .text.hot.*)
 *(.text .stub .text.* .gnu.linkonce.t.*)
 .text.deregister_tm_clones
                0x00000000000002f8       0x2c c:/devkitpro/devkita64/bin/../lib/gcc/aarch64-none-elf/8.3.0/pic/crtbegin.o
 *fill*         0x0000000000000324        0x4 
 .text.register_tm_clones
                0x0000000000000328       0x38 c:/devkitpro/devkita64/bin/../lib/gcc/aarch64-none-elf/8.3.0/pic/crtbegin.o
 .text.__do_global_dtors_aux
                0x0000000000000360       0x48 c:/devkitpro/devkita64/bin/../lib/gcc/aarch64-none-elf/8.3.0/pic/crtbegin.o
 .text.frame_dummy
                0x00000000000003a8       0x34 c:/devkitpro/devkita64/bin/../lib/gcc/aarch64-none-elf/8.3.0/pic/crtbegin.o
 *fill*         0x00000000000003dc        0x4 
 .text          0x00000000000003e0     0x1bb0 main.o
                0x00000000000003e0                end_shieldbreakfly_replace(unsigned long, unsigned long)
                0x00000000000004a0                LoadModule_intercept(nn::ro::Module*, void const*, void*, unsigned long, int)
                0x0000000000000500                __init_settings(unsigned long, unsigned long, int, unsigned long, unsigned long, bool, int, int, int, int)
                0x0000000000000660                shine_replace(lib::L2CAgent*, void*)
                0x0000000000000d80                squirtle_utilt(lib::L2CAgent*, void*)
                0x00000000000011e0                ivy_upsmash(lib::L2CAgent*, void*)
                0x0000000000001700                get_param_float_replace(unsigned long, unsigned long, unsigned long)
                0x0000000000001d20                replace_scripts(lib::L2CAgent*, unsigned char, int)
                0x0000000000001d80                sv_get_status_func(unsigned long, int, unsigned long)
                0x0000000000001dd0                sv_replace_status_func(unsigned long, int, unsigned long, void*)
                0x0000000000001e10                clear_lua_stack_replace(lib::L2CAgent*)
                0x0000000000001ea0                script_replacement()
                0x0000000000001ef0                __libnx_init
                0x0000000000001f40                __libnx_exit
 .text          0x0000000000001f90      0x8c8 acmd_wrapper.o
                0x0000000000001f90                is_before_frame(unsigned long, float)
                0x0000000000001fc0                load_module(unsigned long, unsigned long)
                0x0000000000001fd0                load_module_impl(unsigned long, unsigned long)
                0x0000000000001fe0                ACMD::ACMD(lib::L2CAgent*)
                0x0000000000001fe0                ACMD::ACMD(lib::L2CAgent*)
                0x0000000000002020                ACMD::frame(float)
                0x00000000000020b0                ACMD::_frame(float)
                0x00000000000021a0                ACMD::wait(float)
                0x0000000000002230                ACMD::is_excute()
                0x00000000000022d0                ACMD::wrap(unsigned long (*)(unsigned long), std::initializer_list<lib::L2CValue>)
                0x0000000000002370                ACMD::ATTACK(unsigned long, unsigned long, unsigned long, float, unsigned long, unsigned long, unsigned long, unsigned long, float, float, float, float, float, float, unsigned long, unsigned long, unsigned long, unsigned long, float, unsigned long, unsigned long, unsigned long, unsigned long, unsigned long, unsigned long, unsigned long, unsigned long, unsigned long, unsigned long, unsigned long, unsigned long, unsigned long, unsigned long)
                0x00000000000025f0                ACMD::ATTACK(unsigned long, unsigned long, unsigned long, float, unsigned long, unsigned long, unsigned long, unsigned long, float, float, float, float, float, float, float, float, float, unsigned long, unsigned long, unsigned long, unsigned long, float, unsigned long, unsigned long, unsigned long, unsigned long, unsigned long, unsigned long, unsigned long, unsigned long, unsigned long, unsigned long, unsigned long, unsigned long, unsigned long, unsigned long)
 *fill*         0x0000000000002858        0x8 
 .text          0x0000000000002860       0x94 saltysd_helper.o
                0x0000000000002860                SaltySD_function_replace(unsigned long, unsigned long)
                0x00000000000028d0                SaltySD_function_replace_sym(char*, unsigned long)
 *fill*         0x00000000000028f4        0xc 
 .text          0x0000000000002900      0x350 lua_bind_hash.o
                0x0000000000002900                lua_bind_hash(void const*, unsigned long)
                0x0000000000002c20                lua_bind_hash_str(char const*)
 .text          0x0000000000002c50      0x128 l2c_imports.o
                0x0000000000002c50                lib::lua_const(char const*)
                0x0000000000002c90                lib::L2CValue::L2CValue()
                0x0000000000002c90                lib::L2CValue::L2CValue()
                0x0000000000002ca0                lib::L2CValue::L2CValue(bool)
                0x0000000000002ca0                lib::L2CValue::L2CValue(bool)
                0x0000000000002cc0                lib::L2CValue::L2CValue(int)
                0x0000000000002cc0                lib::L2CValue::L2CValue(int)
                0x0000000000002ce0                lib::L2CValue::L2CValue(unsigned long)
                0x0000000000002ce0                lib::L2CValue::L2CValue(unsigned long)
                0x0000000000002cf0                lib::L2CValue::L2CValue(float)
                0x0000000000002cf0                lib::L2CValue::L2CValue(float)
                0x0000000000002d00                lib::L2CValue::L2CValue(double)
                0x0000000000002d00                lib::L2CValue::L2CValue(double)
                0x0000000000002d20                lib::L2CValue::L2CValue(char const*)
                0x0000000000002d20                lib::L2CValue::L2CValue(char const*)
                0x0000000000002d30                lib::L2CAgent::get_lua_stack(int, lib::L2CValue*)
                0x0000000000002d40                lib::L2CAgent::_clear_lua_stack()
 *fill*         0x0000000000002d78        0x8 
 .text          0x0000000000002d80      0x500 raygun_printer.o
                0x0000000000002d80                show_segment(unsigned long, float, float, float, float, float)
                0x0000000000002e50                alphabet_index(char)
                0x0000000000002ec0                print_char(unsigned long, char, int, float, float)
                0x0000000000003020                print_string(unsigned long, char const*, ...)
 .text.__libnx_exception_entry
                0x0000000000003280      0x1c0 S:/UltimateEnvironment/code-mod-example/param-replace/code-mod-framework/lib/libnx_min/nx/lib\libnx_min.a(exception.o)
                0x0000000000003280                __libnx_exception_entry
 .text.__libnx_exception_returnentry
                0x0000000000003440       0x18 S:/UltimateEnvironment/code-mod-example/param-replace/code-mod-framework/lib/libnx_min/nx/lib\libnx_min.a(exception.o)
                0x0000000000003440                __libnx_exception_returnentry
 *fill*         0x0000000000003458        0x8 
 .text.argvSetup
                0x0000000000003460      0x318 S:/UltimateEnvironment/code-mod-example/param-replace/code-mod-framework/lib/libnx_min/nx/lib\libnx_min.a(argv.o)
                0x0000000000003460                argvSetup
 *fill*         0x0000000000003778        0x8 
 .text.envSetup
                0x0000000000003780      0x208 S:/UltimateEnvironment/code-mod-example/param-replace/code-mod-framework/lib/libnx_min/nx/lib\libnx_min.a(env.o)
                0x0000000000003780                envSetup
 *fill*         0x0000000000003988        0x8 
 .text.envGetMainThreadHandle
                0x0000000000003990       0x20 S:/UltimateEnvironment/code-mod-example/param-replace/code-mod-framework/lib/libnx_min/nx/lib\libnx_min.a(env.o)
                0x0000000000003990                envGetMainThreadHandle
 .text.envIsNso
                0x00000000000039b0        0xc S:/UltimateEnvironment/code-mod-example/param-replace/code-mod-framework/lib/libnx_min/nx/lib\libnx_min.a(env.o)
                0x00000000000039b0                envIsNso
 *fill*         0x00000000000039bc        0x4 
 .text.envHasHeapOverride
                0x00000000000039c0       0x14 S:/UltimateEnvironment/code-mod-example/param-replace/code-mod-framework/lib/libnx_min/nx/lib\libnx_min.a(env.o)
                0x00000000000039c0                envHasHeapOverride
 *fill*         0x00000000000039d4        0xc 
 .text.envGetHeapOverrideAddr
                0x00000000000039e0        0xc S:/UltimateEnvironment/code-mod-example/param-replace/code-mod-framework/lib/libnx_min/nx/lib\libnx_min.a(env.o)
                0x00000000000039e0                envGetHeapOverrideAddr
 *fill*         0x00000000000039ec        0x4 
 .text.envGetHeapOverrideSize
                0x00000000000039f0        0xc S:/UltimateEnvironment/code-mod-example/param-replace/code-mod-framework/lib/libnx_min/nx/lib\libnx_min.a(env.o)
                0x00000000000039f0                envGetHeapOverrideSize
 *fill*         0x00000000000039fc        0x4 
 .text.envHasArgv
                0x0000000000003a00       0x14 S:/UltimateEnvironment/code-mod-example/param-replace/code-mod-framework/lib/libnx_min/nx/lib\libnx_min.a(env.o)
                0x0000000000003a00                envHasArgv
 *fill*         0x0000000000003a14        0xc 
 .text.envGetArgv
                0x0000000000003a20        0xc S:/UltimateEnvironment/code-mod-example/param-replace/code-mod-framework/lib/libnx_min/nx/lib\libnx_min.a(env.o)
                0x0000000000003a20                envGetArgv
 *fill*         0x0000000000003a2c        0x4 
 .text.envIsSyscallHinted
                0x0000000000003a30       0x20 S:/UltimateEnvironment/code-mod-example/param-replace/code-mod-framework/lib/libnx_min/nx/lib\libnx_min.a(env.o)
                0x0000000000003a30                envIsSyscallHinted
 .text.envGetOwnProcessHandle
                0x0000000000003a50        0xc S:/UltimateEnvironment/code-mod-example/param-replace/code-mod-framework/lib/libnx_min/nx/lib\libnx_min.a(env.o)
                0x0000000000003a50                envGetOwnProcessHandle
 *fill*         0x0000000000003a5c        0x4 
 .text.envGetExitFuncPtr
                0x0000000000003a60        0xc S:/UltimateEnvironment/code-mod-example/param-replace/code-mod-framework/lib/libnx_min/nx/lib\libnx_min.a(env.o)
                0x0000000000003a60                envGetExitFuncPtr
 *fill*         0x0000000000003a6c        0x4 
 .text.envSetExitFuncPtr
                0x0000000000003a70        0xc S:/UltimateEnvironment/code-mod-example/param-replace/code-mod-framework/lib/libnx_min/nx/lib\libnx_min.a(env.o)
                0x0000000000003a70                envSetExitFuncPtr
 *fill*         0x0000000000003a7c        0x4 
 .text.envSetNextLoad
                0x0000000000003a80       0x7c S:/UltimateEnvironment/code-mod-example/param-replace/code-mod-framework/lib/libnx_min/nx/lib\libnx_min.a(env.o)
                0x0000000000003a80                envSetNextLoad
 *fill*         0x0000000000003afc        0x4 
 .text.envHasNextLoad
                0x0000000000003b00       0x14 S:/UltimateEnvironment/code-mod-example/param-replace/code-mod-framework/lib/libnx_min/nx/lib\libnx_min.a(env.o)
                0x0000000000003b00                envHasNextLoad
 *fill*         0x0000000000003b14        0xc 
 .text.envGetLastLoadResult
                0x0000000000003b20        0xc S:/UltimateEnvironment/code-mod-example/param-replace/code-mod-framework/lib/libnx_min/nx/lib\libnx_min.a(env.o)
                0x0000000000003b20                envGetLastLoadResult
 *fill*         0x0000000000003b2c        0x4 
 .text.envHasRandomSeed
                0x0000000000003b30        0xc S:/UltimateEnvironment/code-mod-example/param-replace/code-mod-framework/lib/libnx_min/nx/lib\libnx_min.a(env.o)
                0x0000000000003b30                envHasRandomSeed
 *fill*         0x0000000000003b3c        0x4 
 .text.envGetRandomSeed
                0x0000000000003b40       0x18 S:/UltimateEnvironment/code-mod-example/param-replace/code-mod-framework/lib/libnx_min/nx/lib\libnx_min.a(env.o)
                0x0000000000003b40                envGetRandomSeed
 *fill*         0x0000000000003b58        0x8 
 .text.__libnx_initheap
                0x0000000000003b60       0xd8 S:/UltimateEnvironment/code-mod-example/param-replace/code-mod-framework/lib/libnx_min/nx/lib\libnx_min.a(init.o)
                0x0000000000003b60                __libnx_initheap
 *fill*         0x0000000000003c38        0x8 
 .text.__appInit
                0x0000000000003c40       0xdc S:/UltimateEnvironment/code-mod-example/param-replace/code-mod-framework/lib/libnx_min/nx/lib\libnx_min.a(init.o)
                0x0000000000003c40                __appInit
 *fill*         0x0000000000003d1c        0x4 
 .text.__appExit
                0x0000000000003d20       0x44 S:/UltimateEnvironment/code-mod-example/param-replace/code-mod-framework/lib/libnx_min/nx/lib\libnx_min.a(init.o)
                0x0000000000003d20                __appExit
 *fill*         0x0000000000003d64        0xc 
 .text.hosversionGet
                0x0000000000003d70       0x10 S:/UltimateEnvironment/code-mod-example/param-replace/code-mod-framework/lib/libnx_min/nx/lib\libnx_min.a(hosversion.o)
                0x0000000000003d70                hosversionGet
 .text.hosversionSet
                0x0000000000003d80       0x10 S:/UltimateEnvironment/code-mod-example/param-replace/code-mod-framework/lib/libnx_min/nx/lib\libnx_min.a(hosversion.o)
                0x0000000000003d80                hosversionSet
 .text.__nx_dynamic
                0x0000000000003d90       0xa0 S:/UltimateEnvironment/code-mod-example/param-replace/code-mod-framework/lib/libnx_min/nx/lib\libnx_min.a(dynamic.o)
                0x0000000000003d90                __nx_dynamic
 .text.fsdev_link
                0x0000000000003e30       0x10 S:/UltimateEnvironment/code-mod-example/param-replace/code-mod-framework/lib/libnx_min/nx/lib\libnx_min.a(fs_dev.o)
 .text.fsdev_dirreset
                0x0000000000003e40       0x10 S:/UltimateEnvironment/code-mod-example/param-replace/code-mod-framework/lib/libnx_min/nx/lib\libnx_min.a(fs_dev.o)
 .text.fsdev_chmod
                0x0000000000003e50       0x10 S:/UltimateEnvironment/code-mod-example/param-replace/code-mod-framework/lib/libnx_min/nx/lib\libnx_min.a(fs_dev.o)
 .text.error_cmp
                0x0000000000003e60       0x1c S:/UltimateEnvironment/code-mod-example/param-replace/code-mod-framework/lib/libnx_min/nx/lib\libnx_min.a(fs_dev.o)
 *fill*         0x0000000000003e7c        0x4 
 .text.fsdev_translate_error
                0x0000000000003e80       0x5c S:/UltimateEnvironment/code-mod-example/param-replace/code-mod-framework/lib/libnx_min/nx/lib\libnx_min.a(fs_dev.o)
 *fill*         0x0000000000003edc        0x4 
 .text.fsdev_fsync
                0x0000000000003ee0       0x40 S:/UltimateEnvironment/code-mod-example/param-replace/code-mod-framework/lib/libnx_min/nx/lib\libnx_min.a(fs_dev.o)
 .text.fsdev_ftruncate
                0x0000000000003f20       0x60 S:/UltimateEnvironment/code-mod-example/param-replace/code-mod-framework/lib/libnx_min/nx/lib\libnx_min.a(fs_dev.o)
 .text.fsdev_dirclose
                0x0000000000003f80       0x20 S:/UltimateEnvironment/code-mod-example/param-replace/code-mod-framework/lib/libnx_min/nx/lib\libnx_min.a(fs_dev.o)
 .text.fsdev_dirnext
                0x0000000000003fa0      0x16c S:/UltimateEnvironment/code-mod-example/param-replace/code-mod-framework/lib/libnx_min/nx/lib\libnx_min.a(fs_dev.o)
 *fill*         0x000000000000410c        0x4 
 .text.fsdev_close
                0x0000000000004110       0x1c S:/UltimateEnvironment/code-mod-example/param-replace/code-mod-framework/lib/libnx_min/nx/lib\libnx_min.a(fs_dev.o)
 *fill*         0x000000000000412c        0x4 
 .text.fsdev_fstat
                0x0000000000004130       0xa4 S:/UltimateEnvironment/code-mod-example/param-replace/code-mod-framework/lib/libnx_min/nx/lib\libnx_min.a(fs_dev.o)
 *fill*         0x00000000000041d4        0xc 
 .text.fsdev_seek
                0x00000000000041e0       0xb0 S:/UltimateEnvironment/code-mod-example/param-replace/code-mod-framework/lib/libnx_min/nx/lib\libnx_min.a(fs_dev.o)
 .text.fsdev_read
                0x0000000000004290      0x1a0 S:/UltimateEnvironment/code-mod-example/param-replace/code-mod-framework/lib/libnx_min/nx/lib\libnx_min.a(fs_dev.o)
 .text.fsdev_write
                0x0000000000004430      0x1a8 S:/UltimateEnvironment/code-mod-example/param-replace/code-mod-framework/lib/libnx_min/nx/lib\libnx_min.a(fs_dev.o)
 *fill*         0x00000000000045d8        0x8 
 .text.fsdevFindDevice
                0x00000000000045e0      0x120 S:/UltimateEnvironment/code-mod-example/param-replace/code-mod-framework/lib/libnx_min/nx/lib\libnx_min.a(fs_dev.o)
 .text._fsdevMountDevice
                0x0000000000004700      0x140 S:/UltimateEnvironment/code-mod-example/param-replace/code-mod-framework/lib/libnx_min/nx/lib\libnx_min.a(fs_dev.o)
 .text.fsdev_getfspath
                0x0000000000004840      0x1fc S:/UltimateEnvironment/code-mod-example/param-replace/code-mod-framework/lib/libnx_min/nx/lib\libnx_min.a(fs_dev.o)
 *fill*         0x0000000000004a3c        0x4 
 .text.fsdev_rmdir
                0x0000000000004a40       0x70 S:/UltimateEnvironment/code-mod-example/param-replace/code-mod-framework/lib/libnx_min/nx/lib\libnx_min.a(fs_dev.o)
 .text.fsdev_statvfs
                0x0000000000004ab0       0xd4 S:/UltimateEnvironment/code-mod-example/param-replace/code-mod-framework/lib/libnx_min/nx/lib\libnx_min.a(fs_dev.o)
 *fill*         0x0000000000004b84        0xc 
 .text.fsdev_diropen
                0x0000000000004b90       0xec S:/UltimateEnvironment/code-mod-example/param-replace/code-mod-framework/lib/libnx_min/nx/lib\libnx_min.a(fs_dev.o)
 *fill*         0x0000000000004c7c        0x4 
 .text.fsdev_mkdir
                0x0000000000004c80       0x70 S:/UltimateEnvironment/code-mod-example/param-replace/code-mod-framework/lib/libnx_min/nx/lib\libnx_min.a(fs_dev.o)
 .text.fsdev_rename
                0x0000000000004cf0      0x114 S:/UltimateEnvironment/code-mod-example/param-replace/code-mod-framework/lib/libnx_min/nx/lib\libnx_min.a(fs_dev.o)
 *fill*         0x0000000000004e04        0xc 
 .text.fsdev_chdir
                0x0000000000004e10       0xe8 S:/UltimateEnvironment/code-mod-example/param-replace/code-mod-framework/lib/libnx_min/nx/lib\libnx_min.a(fs_dev.o)
 *fill*         0x0000000000004ef8        0x8 
 .text.fsdev_unlink
                0x0000000000004f00       0x70 S:/UltimateEnvironment/code-mod-example/param-replace/code-mod-framework/lib/libnx_min/nx/lib\libnx_min.a(fs_dev.o)
 .text.fsdev_stat
                0x0000000000004f70      0x1bc S:/UltimateEnvironment/code-mod-example/param-replace/code-mod-framework/lib/libnx_min/nx/lib\libnx_min.a(fs_dev.o)
 *fill*         0x000000000000512c        0x4 
 .text.fsdev_open
                0x0000000000005130      0x19c S:/UltimateEnvironment/code-mod-example/param-replace/code-mod-framework/lib/libnx_min/nx/lib\libnx_min.a(fs_dev.o)
 *fill*         0x00000000000052cc        0x4 
 .text._fsdevUnmountDeviceStruct.part.4
                0x00000000000052d0       0xb8 S:/UltimateEnvironment/code-mod-example/param-replace/code-mod-framework/lib/libnx_min/nx/lib\libnx_min.a(fs_dev.o)
 *fill*         0x0000000000005388        0x8 
 .text.fsdev_fchmod
                0x0000000000005390       0x10 S:/UltimateEnvironment/code-mod-example/param-replace/code-mod-framework/lib/libnx_min/nx/lib\libnx_min.a(fs_dev.o)
 .text.fsdevMountDevice
                0x00000000000053a0       0x14 S:/UltimateEnvironment/code-mod-example/param-replace/code-mod-framework/lib/libnx_min/nx/lib\libnx_min.a(fs_dev.o)
                0x00000000000053a0                fsdevMountDevice
 *fill*         0x00000000000053b4        0xc 
 .text.fsdevUnmountDevice
                0x00000000000053c0       0x3c S:/UltimateEnvironment/code-mod-example/param-replace/code-mod-framework/lib/libnx_min/nx/lib\libnx_min.a(fs_dev.o)
                0x00000000000053c0                fsdevUnmountDevice
 *fill*         0x00000000000053fc        0x4 
 .text.fsdevCommitDevice
                0x0000000000005400       0x28 S:/UltimateEnvironment/code-mod-example/param-replace/code-mod-framework/lib/libnx_min/nx/lib\libnx_min.a(fs_dev.o)
                0x0000000000005400                fsdevCommitDevice
 *fill*         0x0000000000005428        0x8 
 .text.fsdevSetArchiveBit
                0x0000000000005430       0x68 S:/UltimateEnvironment/code-mod-example/param-replace/code-mod-framework/lib/libnx_min/nx/lib\libnx_min.a(fs_dev.o)
                0x0000000000005430                fsdevSetArchiveBit
 *fill*         0x0000000000005498        0x8 
 .text.fsdevCreateFile
                0x00000000000054a0       0x88 S:/UltimateEnvironment/code-mod-example/param-replace/code-mod-framework/lib/libnx_min/nx/lib\libnx_min.a(fs_dev.o)
                0x00000000000054a0                fsdevCreateFile
 *fill*         0x0000000000005528        0x8 
 .text.fsdevDeleteDirectoryRecursively
                0x0000000000005530       0x68 S:/UltimateEnvironment/code-mod-example/param-replace/code-mod-framework/lib/libnx_min/nx/lib\libnx_min.a(fs_dev.o)
                0x0000000000005530                fsdevDeleteDirectoryRecursively
 *fill*         0x0000000000005598        0x8 
 .text.fsdevMountSdmc
                0x00000000000055a0      0x170 S:/UltimateEnvironment/code-mod-example/param-replace/code-mod-framework/lib/libnx_min/nx/lib\libnx_min.a(fs_dev.o)
                0x00000000000055a0                fsdevMountSdmc
 .text.fsdevUnmountAll
                0x0000000000005710       0x64 S:/UltimateEnvironment/code-mod-example/param-replace/code-mod-framework/lib/libnx_min/nx/lib\libnx_min.a(fs_dev.o)
                0x0000000000005710                fsdevUnmountAll
 *fill*         0x0000000000005774        0xc 
 .text.fsdevGetDeviceFileSystem
                0x0000000000005780       0x20 S:/UltimateEnvironment/code-mod-example/param-replace/code-mod-framework/lib/libnx_min/nx/lib\libnx_min.a(fs_dev.o)
                0x0000000000005780                fsdevGetDeviceFileSystem
 .text.fsdevGetDefaultFileSystem
                0x00000000000057a0       0x40 S:/UltimateEnvironment/code-mod-example/param-replace/code-mod-framework/lib/libnx_min/nx/lib\libnx_min.a(fs_dev.o)
                0x00000000000057a0                fsdevGetDefaultFileSystem
 .text.fsdevTranslatePath
                0x00000000000057e0       0x58 S:/UltimateEnvironment/code-mod-example/param-replace/code-mod-framework/lib/libnx_min/nx/lib\libnx_min.a(fs_dev.o)
                0x00000000000057e0                fsdevTranslatePath
 *fill*         0x0000000000005838        0x8 
 .text.fsdev_getmtime
                0x0000000000005840       0x20 S:/UltimateEnvironment/code-mod-example/param-replace/code-mod-framework/lib/libnx_min/nx/lib\libnx_min.a(fs_dev.o)
                0x0000000000005840                fsdev_getmtime
 .text.fsdevGetLastResult
                0x0000000000005860       0x20 S:/UltimateEnvironment/code-mod-example/param-replace/code-mod-framework/lib/libnx_min/nx/lib\libnx_min.a(fs_dev.o)
                0x0000000000005860                fsdevGetLastResult
 .text.decode_utf8
                0x0000000000005880      0x12c S:/UltimateEnvironment/code-mod-example/param-replace/code-mod-framework/lib/libnx_min/nx/lib\libnx_min.a(decode_utf8.o)
                0x0000000000005880                decode_utf8
 .text.svcSetHeapSize
                0x00000000000059ac       0x14 S:/UltimateEnvironment/code-mod-example/param-replace/code-mod-framework/lib/libnx_min/nx/lib\libnx_min.a(svc.o)
                0x00000000000059ac                svcSetHeapSize
 .text.svcSetMemoryPermission
                0x00000000000059c0        0x8 S:/UltimateEnvironment/code-mod-example/param-replace/code-mod-framework/lib/libnx_min/nx/lib\libnx_min.a(svc.o)
                0x00000000000059c0                svcSetMemoryPermission
 .text.svcSetMemoryAttribute
                0x00000000000059c8        0x8 S:/UltimateEnvironment/code-mod-example/param-replace/code-mod-framework/lib/libnx_min/nx/lib\libnx_min.a(svc.o)
                0x00000000000059c8                svcSetMemoryAttribute
 .text.svcMapMemory
                0x00000000000059d0        0x8 S:/UltimateEnvironment/code-mod-example/param-replace/code-mod-framework/lib/libnx_min/nx/lib\libnx_min.a(svc.o)
                0x00000000000059d0                svcMapMemory
 .text.svcUnmapMemory
                0x00000000000059d8        0x8 S:/UltimateEnvironment/code-mod-example/param-replace/code-mod-framework/lib/libnx_min/nx/lib\libnx_min.a(svc.o)
                0x00000000000059d8                svcUnmapMemory
 .text.svcQueryMemory
                0x00000000000059e0       0x14 S:/UltimateEnvironment/code-mod-example/param-replace/code-mod-framework/lib/libnx_min/nx/lib\libnx_min.a(svc.o)
                0x00000000000059e0                svcQueryMemory
 .text.svcExitProcess
                0x00000000000059f4        0x8 S:/UltimateEnvironment/code-mod-example/param-replace/code-mod-framework/lib/libnx_min/nx/lib\libnx_min.a(svc.o)
                0x00000000000059f4                svcExitProcess
 .text.svcCreateThread
                0x00000000000059fc       0x14 S:/UltimateEnvironment/code-mod-example/param-replace/code-mod-framework/lib/libnx_min/nx/lib\libnx_min.a(svc.o)
                0x00000000000059fc                svcCreateThread
 .text.svcStartThread
                0x0000000000005a10        0x8 S:/UltimateEnvironment/code-mod-example/param-replace/code-mod-framework/lib/libnx_min/nx/lib\libnx_min.a(svc.o)
                0x0000000000005a10                svcStartThread
 .text.svcExitThread
                0x0000000000005a18        0x8 S:/UltimateEnvironment/code-mod-example/param-replace/code-mod-framework/lib/libnx_min/nx/lib\libnx_min.a(svc.o)
                0x0000000000005a18                svcExitThread
 .text.svcSleepThread
                0x0000000000005a20        0x8 S:/UltimateEnvironment/code-mod-example/param-replace/code-mod-framework/lib/libnx_min/nx/lib\libnx_min.a(svc.o)
                0x0000000000005a20                svcSleepThread
 .text.svcGetThreadPriority
                0x0000000000005a28       0x14 S:/UltimateEnvironment/code-mod-example/param-replace/code-mod-framework/lib/libnx_min/nx/lib\libnx_min.a(svc.o)
                0x0000000000005a28                svcGetThreadPriority
 .text.svcSetThreadPriority
                0x0000000000005a3c        0x8 S:/UltimateEnvironment/code-mod-example/param-replace/code-mod-framework/lib/libnx_min/nx/lib\libnx_min.a(svc.o)
                0x0000000000005a3c                svcSetThreadPriority
 .text.svcGetThreadCoreMask
                0x0000000000005a44       0x18 S:/UltimateEnvironment/code-mod-example/param-replace/code-mod-framework/lib/libnx_min/nx/lib\libnx_min.a(svc.o)
                0x0000000000005a44                svcGetThreadCoreMask
 .text.svcSetThreadCoreMask
                0x0000000000005a5c        0x8 S:/UltimateEnvironment/code-mod-example/param-replace/code-mod-framework/lib/libnx_min/nx/lib\libnx_min.a(svc.o)
                0x0000000000005a5c                svcSetThreadCoreMask
 .text.svcGetCurrentProcessorNumber
                0x0000000000005a64        0x8 S:/UltimateEnvironment/code-mod-example/param-replace/code-mod-framework/lib/libnx_min/nx/lib\libnx_min.a(svc.o)
                0x0000000000005a64                svcGetCurrentProcessorNumber
 .text.svcSignalEvent
                0x0000000000005a6c        0x8 S:/UltimateEnvironment/code-mod-example/param-replace/code-mod-framework/lib/libnx_min/nx/lib\libnx_min.a(svc.o)
                0x0000000000005a6c                svcSignalEvent
 .text.svcClearEvent
                0x0000000000005a74        0x8 S:/UltimateEnvironment/code-mod-example/param-replace/code-mod-framework/lib/libnx_min/nx/lib\libnx_min.a(svc.o)
                0x0000000000005a74                svcClearEvent
 .text.svcMapSharedMemory
                0x0000000000005a7c        0x8 S:/UltimateEnvironment/code-mod-example/param-replace/code-mod-framework/lib/libnx_min/nx/lib\libnx_min.a(svc.o)
                0x0000000000005a7c                svcMapSharedMemory
 .text.svcUnmapSharedMemory
                0x0000000000005a84        0x8 S:/UltimateEnvironment/code-mod-example/param-replace/code-mod-framework/lib/libnx_min/nx/lib\libnx_min.a(svc.o)
                0x0000000000005a84                svcUnmapSharedMemory
 .text.svcCreateTransferMemory
                0x0000000000005a8c       0x14 S:/UltimateEnvironment/code-mod-example/param-replace/code-mod-framework/lib/libnx_min/nx/lib\libnx_min.a(svc.o)
                0x0000000000005a8c                svcCreateTransferMemory
 .text.svcCloseHandle
                0x0000000000005aa0        0x8 S:/UltimateEnvironment/code-mod-example/param-replace/code-mod-framework/lib/libnx_min/nx/lib\libnx_min.a(svc.o)
                0x0000000000005aa0                svcCloseHandle
 .text.svcResetSignal
                0x0000000000005aa8        0x8 S:/UltimateEnvironment/code-mod-example/param-replace/code-mod-framework/lib/libnx_min/nx/lib\libnx_min.a(svc.o)
                0x0000000000005aa8                svcResetSignal
 .text.svcWaitSynchronization
                0x0000000000005ab0       0x14 S:/UltimateEnvironment/code-mod-example/param-replace/code-mod-framework/lib/libnx_min/nx/lib\libnx_min.a(svc.o)
                0x0000000000005ab0                svcWaitSynchronization
 .text.svcCancelSynchronization
                0x0000000000005ac4        0x8 S:/UltimateEnvironment/code-mod-example/param-replace/code-mod-framework/lib/libnx_min/nx/lib\libnx_min.a(svc.o)
                0x0000000000005ac4                svcCancelSynchronization
 .text.svcArbitrateLock
                0x0000000000005acc        0x8 S:/UltimateEnvironment/code-mod-example/param-replace/code-mod-framework/lib/libnx_min/nx/lib\libnx_min.a(svc.o)
                0x0000000000005acc                svcArbitrateLock
 .text.svcArbitrateUnlock
                0x0000000000005ad4        0x8 S:/UltimateEnvironment/code-mod-example/param-replace/code-mod-framework/lib/libnx_min/nx/lib\libnx_min.a(svc.o)
                0x0000000000005ad4                svcArbitrateUnlock
 .text.svcWaitProcessWideKeyAtomic
                0x0000000000005adc        0x8 S:/UltimateEnvironment/code-mod-example/param-replace/code-mod-framework/lib/libnx_min/nx/lib\libnx_min.a(svc.o)
                0x0000000000005adc                svcWaitProcessWideKeyAtomic
 .text.svcSignalProcessWideKey
                0x0000000000005ae4        0x8 S:/UltimateEnvironment/code-mod-example/param-replace/code-mod-framework/lib/libnx_min/nx/lib\libnx_min.a(svc.o)
                0x0000000000005ae4                svcSignalProcessWideKey
 .text.svcGetSystemTick
                0x0000000000005aec        0x8 S:/UltimateEnvironment/code-mod-example/param-replace/code-mod-framework/lib/libnx_min/nx/lib\libnx_min.a(svc.o)
                0x0000000000005aec                svcGetSystemTick
 .text.svcConnectToNamedPort
                0x0000000000005af4       0x14 S:/UltimateEnvironment/code-mod-example/param-replace/code-mod-framework/lib/libnx_min/nx/lib\libnx_min.a(svc.o)
                0x0000000000005af4                svcConnectToNamedPort
 .text.svcSendSyncRequest
                0x0000000000005b08        0x8 S:/UltimateEnvironment/code-mod-example/param-replace/code-mod-framework/lib/libnx_min/nx/lib\libnx_min.a(svc.o)
                0x0000000000005b08                svcSendSyncRequest
 .text.svcSendSyncRequestWithUserBuffer
                0x0000000000005b10        0x8 S:/UltimateEnvironment/code-mod-example/param-replace/code-mod-framework/lib/libnx_min/nx/lib\libnx_min.a(svc.o)
                0x0000000000005b10                svcSendSyncRequestWithUserBuffer
 .text.svcSendAsyncRequestWithUserBuffer
                0x0000000000005b18       0x14 S:/UltimateEnvironment/code-mod-example/param-replace/code-mod-framework/lib/libnx_min/nx/lib\libnx_min.a(svc.o)
                0x0000000000005b18                svcSendAsyncRequestWithUserBuffer
 .text.svcGetProcessId
                0x0000000000005b2c       0x14 S:/UltimateEnvironment/code-mod-example/param-replace/code-mod-framework/lib/libnx_min/nx/lib\libnx_min.a(svc.o)
                0x0000000000005b2c                svcGetProcessId
 .text.svcGetThreadId
                0x0000000000005b40       0x14 S:/UltimateEnvironment/code-mod-example/param-replace/code-mod-framework/lib/libnx_min/nx/lib\libnx_min.a(svc.o)
                0x0000000000005b40                svcGetThreadId
 .text.svcBreak
                0x0000000000005b54        0x8 S:/UltimateEnvironment/code-mod-example/param-replace/code-mod-framework/lib/libnx_min/nx/lib\libnx_min.a(svc.o)
                0x0000000000005b54                svcBreak
 .text.svcOutputDebugString
                0x0000000000005b5c        0x8 S:/UltimateEnvironment/code-mod-example/param-replace/code-mod-framework/lib/libnx_min/nx/lib\libnx_min.a(svc.o)
                0x0000000000005b5c                svcOutputDebugString
 .text.svcReturnFromException
                0x0000000000005b64        0x8 S:/UltimateEnvironment/code-mod-example/param-replace/code-mod-framework/lib/libnx_min/nx/lib\libnx_min.a(svc.o)
                0x0000000000005b64                svcReturnFromException
 .text.svcGetInfo
                0x0000000000005b6c       0x14 S:/UltimateEnvironment/code-mod-example/param-replace/code-mod-framework/lib/libnx_min/nx/lib\libnx_min.a(svc.o)
                0x0000000000005b6c                svcGetInfo
 .text.svcMapPhysicalMemory
                0x0000000000005b80        0x8 S:/UltimateEnvironment/code-mod-example/param-replace/code-mod-framework/lib/libnx_min/nx/lib\libnx_min.a(svc.o)
                0x0000000000005b80                svcMapPhysicalMemory
 .text.svcUnmapPhysicalMemory
                0x0000000000005b88        0x8 S:/UltimateEnvironment/code-mod-example/param-replace/code-mod-framework/lib/libnx_min/nx/lib\libnx_min.a(svc.o)
                0x0000000000005b88                svcUnmapPhysicalMemory
 .text.svcGetResourceLimitLimitValue
                0x0000000000005b90       0x14 S:/UltimateEnvironment/code-mod-example/param-replace/code-mod-framework/lib/libnx_min/nx/lib\libnx_min.a(svc.o)
                0x0000000000005b90                svcGetResourceLimitLimitValue
 .text.svcGetResourceLimitCurrentValue
                0x0000000000005ba4       0x14 S:/UltimateEnvironment/code-mod-example/param-replace/code-mod-framework/lib/libnx_min/nx/lib\libnx_min.a(svc.o)
                0x0000000000005ba4                svcGetResourceLimitCurrentValue
 .text.svcSetThreadActivity
                0x0000000000005bb8        0x8 S:/UltimateEnvironment/code-mod-example/param-replace/code-mod-framework/lib/libnx_min/nx/lib\libnx_min.a(svc.o)
                0x0000000000005bb8                svcSetThreadActivity
 .text.svcGetThreadContext3
                0x0000000000005bc0        0x8 S:/UltimateEnvironment/code-mod-example/param-replace/code-mod-framework/lib/libnx_min/nx/lib\libnx_min.a(svc.o)
                0x0000000000005bc0                svcGetThreadContext3
 .text.svcCreateSession
                0x0000000000005bc8       0x18 S:/UltimateEnvironment/code-mod-example/param-replace/code-mod-framework/lib/libnx_min/nx/lib\libnx_min.a(svc.o)
                0x0000000000005bc8                svcCreateSession
 .text.svcAcceptSession
                0x0000000000005be0       0x14 S:/UltimateEnvironment/code-mod-example/param-replace/code-mod-framework/lib/libnx_min/nx/lib\libnx_min.a(svc.o)
                0x0000000000005be0                svcAcceptSession
 .text.svcReplyAndReceive
                0x0000000000005bf4       0x14 S:/UltimateEnvironment/code-mod-example/param-replace/code-mod-framework/lib/libnx_min/nx/lib\libnx_min.a(svc.o)
                0x0000000000005bf4                svcReplyAndReceive
 .text.svcReplyAndReceiveWithUserBuffer
                0x0000000000005c08       0x14 S:/UltimateEnvironment/code-mod-example/param-replace/code-mod-framework/lib/libnx_min/nx/lib\libnx_min.a(svc.o)
                0x0000000000005c08                svcReplyAndReceiveWithUserBuffer
 .text.svcCreateEvent
                0x0000000000005c1c       0x18 S:/UltimateEnvironment/code-mod-example/param-replace/code-mod-framework/lib/libnx_min/nx/lib\libnx_min.a(svc.o)
                0x0000000000005c1c                svcCreateEvent
 .text.svcMapPhysicalMemoryUnsafe
                0x0000000000005c34        0x8 S:/UltimateEnvironment/code-mod-example/param-replace/code-mod-framework/lib/libnx_min/nx/lib\libnx_min.a(svc.o)
                0x0000000000005c34                svcMapPhysicalMemoryUnsafe
 .text.svcUnmapPhysicalMemoryUnsafe
                0x0000000000005c3c        0x8 S:/UltimateEnvironment/code-mod-example/param-replace/code-mod-framework/lib/libnx_min/nx/lib\libnx_min.a(svc.o)
                0x0000000000005c3c                svcUnmapPhysicalMemoryUnsafe
 .text.svcSetUnsafeLimit
                0x0000000000005c44        0x8 S:/UltimateEnvironment/code-mod-example/param-replace/code-mod-framework/lib/libnx_min/nx/lib\libnx_min.a(svc.o)
                0x0000000000005c44                svcSetUnsafeLimit
 .text.svcCreateCodeMemory
                0x0000000000005c4c       0x14 S:/UltimateEnvironment/code-mod-example/param-replace/code-mod-framework/lib/libnx_min/nx/lib\libnx_min.a(svc.o)
                0x0000000000005c4c                svcCreateCodeMemory
 .text.svcControlCodeMemory
                0x0000000000005c60        0x8 S:/UltimateEnvironment/code-mod-example/param-replace/code-mod-framework/lib/libnx_min/nx/lib\libnx_min.a(svc.o)
                0x0000000000005c60                svcControlCodeMemory
 .text.svcReadWriteRegister
                0x0000000000005c68       0x14 S:/UltimateEnvironment/code-mod-example/param-replace/code-mod-framework/lib/libnx_min/nx/lib\libnx_min.a(svc.o)
                0x0000000000005c68                svcReadWriteRegister
 .text.svcCreateSharedMemory
                0x0000000000005c7c       0x14 S:/UltimateEnvironment/code-mod-example/param-replace/code-mod-framework/lib/libnx_min/nx/lib\libnx_min.a(svc.o)
                0x0000000000005c7c                svcCreateSharedMemory
 .text.svcMapTransferMemory
                0x0000000000005c90        0x8 S:/UltimateEnvironment/code-mod-example/param-replace/code-mod-framework/lib/libnx_min/nx/lib\libnx_min.a(svc.o)
                0x0000000000005c90                svcMapTransferMemory
 .text.svcUnmapTransferMemory
                0x0000000000005c98        0x8 S:/UltimateEnvironment/code-mod-example/param-replace/code-mod-framework/lib/libnx_min/nx/lib\libnx_min.a(svc.o)
                0x0000000000005c98                svcUnmapTransferMemory
 .text.svcCreateInterruptEvent
                0x0000000000005ca0       0x14 S:/UltimateEnvironment/code-mod-example/param-replace/code-mod-framework/lib/libnx_min/nx/lib\libnx_min.a(svc.o)
                0x0000000000005ca0                svcCreateInterruptEvent
 .text.svcQueryPhysicalAddress
                0x0000000000005cb4       0x18 S:/UltimateEnvironment/code-mod-example/param-replace/code-mod-framework/lib/libnx_min/nx/lib\libnx_min.a(svc.o)
                0x0000000000005cb4                svcQueryPhysicalAddress
 .text.svcQueryIoMapping
                0x0000000000005ccc       0x14 S:/UltimateEnvironment/code-mod-example/param-replace/code-mod-framework/lib/libnx_min/nx/lib\libnx_min.a(svc.o)
                0x0000000000005ccc                svcQueryIoMapping
 .text.svcCreateDeviceAddressSpace
                0x0000000000005ce0       0x14 S:/UltimateEnvironment/code-mod-example/param-replace/code-mod-framework/lib/libnx_min/nx/lib\libnx_min.a(svc.o)
                0x0000000000005ce0                svcCreateDeviceAddressSpace
 .text.svcAttachDeviceAddressSpace
                0x0000000000005cf4        0x8 S:/UltimateEnvironment/code-mod-example/param-replace/code-mod-framework/lib/libnx_min/nx/lib\libnx_min.a(svc.o)
                0x0000000000005cf4                svcAttachDeviceAddressSpace
 .text.svcDetachDeviceAddressSpace
                0x0000000000005cfc        0x8 S:/UltimateEnvironment/code-mod-example/param-replace/code-mod-framework/lib/libnx_min/nx/lib\libnx_min.a(svc.o)
                0x0000000000005cfc                svcDetachDeviceAddressSpace
 .text.svcMapDeviceAddressSpaceByForce
                0x0000000000005d04        0x8 S:/UltimateEnvironment/code-mod-example/param-replace/code-mod-framework/lib/libnx_min/nx/lib\libnx_min.a(svc.o)
                0x0000000000005d04                svcMapDeviceAddressSpaceByForce
 .text.svcMapDeviceAddressSpaceAligned
                0x0000000000005d0c        0x8 S:/UltimateEnvironment/code-mod-example/param-replace/code-mod-framework/lib/libnx_min/nx/lib\libnx_min.a(svc.o)
                0x0000000000005d0c                svcMapDeviceAddressSpaceAligned
 .text.svcUnmapDeviceAddressSpace
                0x0000000000005d14        0x8 S:/UltimateEnvironment/code-mod-example/param-replace/code-mod-framework/lib/libnx_min/nx/lib\libnx_min.a(svc.o)
                0x0000000000005d14                svcUnmapDeviceAddressSpace
 .text.svcDebugActiveProcess
                0x0000000000005d1c       0x14 S:/UltimateEnvironment/code-mod-example/param-replace/code-mod-framework/lib/libnx_min/nx/lib\libnx_min.a(svc.o)
                0x0000000000005d1c                svcDebugActiveProcess
 .text.svcBreakDebugProcess
                0x0000000000005d30        0x8 S:/UltimateEnvironment/code-mod-example/param-replace/code-mod-framework/lib/libnx_min/nx/lib\libnx_min.a(svc.o)
                0x0000000000005d30                svcBreakDebugProcess
 .text.svcTerminateDebugProcess
                0x0000000000005d38        0x8 S:/UltimateEnvironment/code-mod-example/param-replace/code-mod-framework/lib/libnx_min/nx/lib\libnx_min.a(svc.o)
                0x0000000000005d38                svcTerminateDebugProcess
 .text.svcGetDebugEvent
                0x0000000000005d40        0x8 S:/UltimateEnvironment/code-mod-example/param-replace/code-mod-framework/lib/libnx_min/nx/lib\libnx_min.a(svc.o)
                0x0000000000005d40                svcGetDebugEvent
 .text.svcLegacyContinueDebugEvent
                0x0000000000005d48        0x8 S:/UltimateEnvironment/code-mod-example/param-replace/code-mod-framework/lib/libnx_min/nx/lib\libnx_min.a(svc.o)
                0x0000000000005d48                svcLegacyContinueDebugEvent
 .text.svcContinueDebugEvent
                0x0000000000005d50        0x8 S:/UltimateEnvironment/code-mod-example/param-replace/code-mod-framework/lib/libnx_min/nx/lib\libnx_min.a(svc.o)
                0x0000000000005d50                svcContinueDebugEvent
 .text.svcGetProcessList
                0x0000000000005d58       0x14 S:/UltimateEnvironment/code-mod-example/param-replace/code-mod-framework/lib/libnx_min/nx/lib\libnx_min.a(svc.o)
                0x0000000000005d58                svcGetProcessList
 .text.svcGetThreadList
                0x0000000000005d6c       0x14 S:/UltimateEnvironment/code-mod-example/param-replace/code-mod-framework/lib/libnx_min/nx/lib\libnx_min.a(svc.o)
                0x0000000000005d6c                svcGetThreadList
 .text.svcGetDebugThreadContext
                0x0000000000005d80        0x8 S:/UltimateEnvironment/code-mod-example/param-replace/code-mod-framework/lib/libnx_min/nx/lib\libnx_min.a(svc.o)
                0x0000000000005d80                svcGetDebugThreadContext
 .text.svcSetDebugThreadContext
                0x0000000000005d88        0x8 S:/UltimateEnvironment/code-mod-example/param-replace/code-mod-framework/lib/libnx_min/nx/lib\libnx_min.a(svc.o)
                0x0000000000005d88                svcSetDebugThreadContext
 .text.svcQueryDebugProcessMemory
                0x0000000000005d90       0x14 S:/UltimateEnvironment/code-mod-example/param-replace/code-mod-framework/lib/libnx_min/nx/lib\libnx_min.a(svc.o)
                0x0000000000005d90                svcQueryDebugProcessMemory
 .text.svcReadDebugProcessMemory
                0x0000000000005da4        0x8 S:/UltimateEnvironment/code-mod-example/param-replace/code-mod-framework/lib/libnx_min/nx/lib\libnx_min.a(svc.o)
                0x0000000000005da4                svcReadDebugProcessMemory
 .text.svcWriteDebugProcessMemory
                0x0000000000005dac        0x8 S:/UltimateEnvironment/code-mod-example/param-replace/code-mod-framework/lib/libnx_min/nx/lib\libnx_min.a(svc.o)
                0x0000000000005dac                svcWriteDebugProcessMemory
 .text.svcGetDebugThreadParam
                0x0000000000005db4       0x18 S:/UltimateEnvironment/code-mod-example/param-replace/code-mod-framework/lib/libnx_min/nx/lib\libnx_min.a(svc.o)
                0x0000000000005db4                svcGetDebugThreadParam
 .text.svcGetSystemInfo
                0x0000000000005dcc       0x14 S:/UltimateEnvironment/code-mod-example/param-replace/code-mod-framework/lib/libnx_min/nx/lib\libnx_min.a(svc.o)
                0x0000000000005dcc                svcGetSystemInfo
 .text.svcCreatePort
                0x0000000000005de0       0x18 S:/UltimateEnvironment/code-mod-example/param-replace/code-mod-framework/lib/libnx_min/nx/lib\libnx_min.a(svc.o)
                0x0000000000005de0                svcCreatePort
 .text.svcManageNamedPort
                0x0000000000005df8       0x14 S:/UltimateEnvironment/code-mod-example/param-replace/code-mod-framework/lib/libnx_min/nx/lib\libnx_min.a(svc.o)
                0x0000000000005df8                svcManageNamedPort
 .text.svcConnectToPort
                0x0000000000005e0c       0x14 S:/UltimateEnvironment/code-mod-example/param-replace/code-mod-framework/lib/libnx_min/nx/lib\libnx_min.a(svc.o)
                0x0000000000005e0c                svcConnectToPort
 .text.svcSetProcessMemoryPermission
                0x0000000000005e20        0x8 S:/UltimateEnvironment/code-mod-example/param-replace/code-mod-framework/lib/libnx_min/nx/lib\libnx_min.a(svc.o)
                0x0000000000005e20                svcSetProcessMemoryPermission
 .text.svcMapProcessMemory
                0x0000000000005e28        0x8 S:/UltimateEnvironment/code-mod-example/param-replace/code-mod-framework/lib/libnx_min/nx/lib\libnx_min.a(svc.o)
                0x0000000000005e28                svcMapProcessMemory
 .text.svcUnmapProcessMemory
                0x0000000000005e30        0x8 S:/UltimateEnvironment/code-mod-example/param-replace/code-mod-framework/lib/libnx_min/nx/lib\libnx_min.a(svc.o)
                0x0000000000005e30                svcUnmapProcessMemory
 .text.svcQueryProcessMemory
                0x0000000000005e38       0x14 S:/UltimateEnvironment/code-mod-example/param-replace/code-mod-framework/lib/libnx_min/nx/lib\libnx_min.a(svc.o)
                0x0000000000005e38                svcQueryProcessMemory
 .text.svcMapProcessCodeMemory
                0x0000000000005e4c        0x8 S:/UltimateEnvironment/code-mod-example/param-replace/code-mod-framework/lib/libnx_min/nx/lib\libnx_min.a(svc.o)
                0x0000000000005e4c                svcMapProcessCodeMemory
 .text.svcUnmapProcessCodeMemory
                0x0000000000005e54        0x8 S:/UltimateEnvironment/code-mod-example/param-replace/code-mod-framework/lib/libnx_min/nx/lib\libnx_min.a(svc.o)
                0x0000000000005e54                svcUnmapProcessCodeMemory
 .text.svcCreateProcess
                0x0000000000005e5c       0x14 S:/UltimateEnvironment/code-mod-example/param-replace/code-mod-framework/lib/libnx_min/nx/lib\libnx_min.a(svc.o)
                0x0000000000005e5c                svcCreateProcess
 .text.svcStartProcess
                0x0000000000005e70        0x8 S:/UltimateEnvironment/code-mod-example/param-replace/code-mod-framework/lib/libnx_min/nx/lib\libnx_min.a(svc.o)
                0x0000000000005e70                svcStartProcess
 .text.svcTerminateProcess
                0x0000000000005e78        0x8 S:/UltimateEnvironment/code-mod-example/param-replace/code-mod-framework/lib/libnx_min/nx/lib\libnx_min.a(svc.o)
                0x0000000000005e78                svcTerminateProcess
 .text.svcGetProcessInfo
                0x0000000000005e80       0x14 S:/UltimateEnvironment/code-mod-example/param-replace/code-mod-framework/lib/libnx_min/nx/lib\libnx_min.a(svc.o)
                0x0000000000005e80                svcGetProcessInfo
 .text.svcCreateResourceLimit
                0x0000000000005e94       0x14 S:/UltimateEnvironment/code-mod-example/param-replace/code-mod-framework/lib/libnx_min/nx/lib\libnx_min.a(svc.o)
                0x0000000000005e94                svcCreateResourceLimit
 .text.svcSetResourceLimitLimitValue
                0x0000000000005ea8        0x8 S:/UltimateEnvironment/code-mod-example/param-replace/code-mod-framework/lib/libnx_min/nx/lib\libnx_min.a(svc.o)
                0x0000000000005ea8                svcSetResourceLimitLimitValue
 .text.svcCallSecureMonitor
                0x0000000000005eb0       0x34 S:/UltimateEnvironment/code-mod-example/param-replace/code-mod-framework/lib/libnx_min/nx/lib\libnx_min.a(svc.o)
                0x0000000000005eb0                svcCallSecureMonitor
 .text.__aarch64_read_tp
                0x0000000000005ee4        0xc S:/UltimateEnvironment/code-mod-example/param-replace/code-mod-framework/lib/libnx_min/nx/lib\libnx_min.a(readtp.o)
                0x0000000000005ee4                __aarch64_read_tp
 .text._GetRegionFromInfo.isra.1
                0x0000000000005ef0       0x7c S:/UltimateEnvironment/code-mod-example/param-replace/code-mod-framework/lib/libnx_min/nx/lib\libnx_min.a(virtmem.o)
 *fill*         0x0000000000005f6c        0x4 
 .text.virtmemSetup
                0x0000000000005f70      0x114 S:/UltimateEnvironment/code-mod-example/param-replace/code-mod-framework/lib/libnx_min/nx/lib\libnx_min.a(virtmem.o)
                0x0000000000005f70                virtmemSetup
 *fill*         0x0000000000006084        0xc 
 .text.virtmemReserve
                0x0000000000006090      0x13c S:/UltimateEnvironment/code-mod-example/param-replace/code-mod-framework/lib/libnx_min/nx/lib\libnx_min.a(virtmem.o)
                0x0000000000006090                virtmemReserve
 *fill*         0x00000000000061cc        0x4 
 .text.virtmemFree
                0x00000000000061d0        0x4 S:/UltimateEnvironment/code-mod-example/param-replace/code-mod-framework/lib/libnx_min/nx/lib\libnx_min.a(virtmem.o)
                0x00000000000061d0                virtmemFree
 *fill*         0x00000000000061d4        0xc 
 .text.virtmemReserveStack
                0x00000000000061e0       0xc8 S:/UltimateEnvironment/code-mod-example/param-replace/code-mod-framework/lib/libnx_min/nx/lib\libnx_min.a(virtmem.o)
                0x00000000000061e0                virtmemReserveStack
 *fill*         0x00000000000062a8        0x8 
 .text.virtmemFreeStack
                0x00000000000062b0        0x4 S:/UltimateEnvironment/code-mod-example/param-replace/code-mod-framework/lib/libnx_min/nx/lib\libnx_min.a(virtmem.o)
                0x00000000000062b0                virtmemFreeStack
 *fill*         0x00000000000062b4        0xc 
 .text.mutexLock
                0x00000000000062c0       0x8c S:/UltimateEnvironment/code-mod-example/param-replace/code-mod-framework/lib/libnx_min/nx/lib\libnx_min.a(mutex.o)
                0x00000000000062c0                mutexLock
 *fill*         0x000000000000634c        0x4 
 .text.mutexTryLock
                0x0000000000006350       0x34 S:/UltimateEnvironment/code-mod-example/param-replace/code-mod-framework/lib/libnx_min/nx/lib\libnx_min.a(mutex.o)
                0x0000000000006350                mutexTryLock
 *fill*         0x0000000000006384        0xc 
 .text.mutexUnlock
                0x0000000000006390       0x30 S:/UltimateEnvironment/code-mod-example/param-replace/code-mod-framework/lib/libnx_min/nx/lib\libnx_min.a(mutex.o)
                0x0000000000006390                mutexUnlock
 .text.rmutexLock
                0x00000000000063c0       0x4c S:/UltimateEnvironment/code-mod-example/param-replace/code-mod-framework/lib/libnx_min/nx/lib\libnx_min.a(mutex.o)
                0x00000000000063c0                rmutexLock
 *fill*         0x000000000000640c        0x4 
 .text.rmutexTryLock
                0x0000000000006410       0x5c S:/UltimateEnvironment/code-mod-example/param-replace/code-mod-framework/lib/libnx_min/nx/lib\libnx_min.a(mutex.o)
                0x0000000000006410                rmutexTryLock
 *fill*         0x000000000000646c        0x4 
 .text.rmutexUnlock
                0x0000000000006470       0x1c S:/UltimateEnvironment/code-mod-example/param-replace/code-mod-framework/lib/libnx_min/nx/lib\libnx_min.a(mutex.o)
                0x0000000000006470                rmutexUnlock
 *fill*         0x000000000000648c        0x4 
 .text.ipcPrepareHeader
                0x0000000000006490      0x220 S:/UltimateEnvironment/code-mod-example/param-replace/code-mod-framework/lib/libnx_min/nx/lib\libnx_min.a(fs.o)
 .text.ipcParse
                0x00000000000066b0      0x22c S:/UltimateEnvironment/code-mod-example/param-replace/code-mod-framework/lib/libnx_min/nx/lib\libnx_min.a(fs.o)
 *fill*         0x00000000000068dc        0x4 
 .text.serviceIpcParse
                0x00000000000068e0       0xb0 S:/UltimateEnvironment/code-mod-example/param-replace/code-mod-framework/lib/libnx_min/nx/lib\libnx_min.a(fs.o)
 .text.ipcCloseObjectById
                0x0000000000006990       0x34 S:/UltimateEnvironment/code-mod-example/param-replace/code-mod-framework/lib/libnx_min/nx/lib\libnx_min.a(fs.o)
 *fill*         0x00000000000069c4        0xc 
 .text._fsDeviceOperatorCheckInserted
                0x00000000000069d0      0x19c S:/UltimateEnvironment/code-mod-example/param-replace/code-mod-framework/lib/libnx_min/nx/lib\libnx_min.a(fs.o)
 *fill*         0x0000000000006b6c        0x4 
 .text.fsFsQueryEntry.part.12
                0x0000000000006b70      0x274 S:/UltimateEnvironment/code-mod-example/param-replace/code-mod-framework/lib/libnx_min/nx/lib\libnx_min.a(fs.o)
 *fill*         0x0000000000006de4        0xc 
 .text.fsInitialize
                0x0000000000006df0      0x200 S:/UltimateEnvironment/code-mod-example/param-replace/code-mod-framework/lib/libnx_min/nx/lib\libnx_min.a(fs.o)
                0x0000000000006df0                fsInitialize
 .text.fsExit   0x0000000000006ff0       0x9c S:/UltimateEnvironment/code-mod-example/param-replace/code-mod-framework/lib/libnx_min/nx/lib\libnx_min.a(fs.o)
                0x0000000000006ff0                fsExit
 *fill*         0x000000000000708c        0x4 
 .text.fsGetServiceSession
                0x0000000000007090        0xc S:/UltimateEnvironment/code-mod-example/param-replace/code-mod-framework/lib/libnx_min/nx/lib\libnx_min.a(fs.o)
                0x0000000000007090                fsGetServiceSession
 *fill*         0x000000000000709c        0x4 
 .text.fsOpenBisStorage
                0x00000000000070a0      0x1ec S:/UltimateEnvironment/code-mod-example/param-replace/code-mod-framework/lib/libnx_min/nx/lib\libnx_min.a(fs.o)
                0x00000000000070a0                fsOpenBisStorage
 *fill*         0x000000000000728c        0x4 
 .text.fsOpenBisFileSystem
                0x0000000000007290      0x170 S:/UltimateEnvironment/code-mod-example/param-replace/code-mod-framework/lib/libnx_min/nx/lib\libnx_min.a(fs.o)
                0x0000000000007290                fsOpenBisFileSystem
 .text.fsMountSdcard
                0x0000000000007400      0x1cc S:/UltimateEnvironment/code-mod-example/param-replace/code-mod-framework/lib/libnx_min/nx/lib\libnx_min.a(fs.o)
                0x0000000000007400                fsMountSdcard
 *fill*         0x00000000000075cc        0x4 
 .text.fsMountSaveData
                0x00000000000075d0      0x208 S:/UltimateEnvironment/code-mod-example/param-replace/code-mod-framework/lib/libnx_min/nx/lib\libnx_min.a(fs.o)
                0x00000000000075d0                fsMountSaveData
 *fill*         0x00000000000077d8        0x8 
 .text.fsMountSystemSaveData
                0x00000000000077e0      0x208 S:/UltimateEnvironment/code-mod-example/param-replace/code-mod-framework/lib/libnx_min/nx/lib\libnx_min.a(fs.o)
                0x00000000000077e0                fsMountSystemSaveData
 *fill*         0x00000000000079e8        0x8 
 .text.fsOpenSaveDataIterator
                0x00000000000079f0      0x1e0 S:/UltimateEnvironment/code-mod-example/param-replace/code-mod-framework/lib/libnx_min/nx/lib\libnx_min.a(fs.o)
                0x00000000000079f0                fsOpenSaveDataIterator
 .text.fsOpenContentStorageFileSystem
                0x0000000000007bd0      0x1d4 S:/UltimateEnvironment/code-mod-example/param-replace/code-mod-framework/lib/libnx_min/nx/lib\libnx_min.a(fs.o)
                0x0000000000007bd0                fsOpenContentStorageFileSystem
 *fill*         0x0000000000007da4        0xc 
 .text.fsOpenDataStorageByCurrentProcess
                0x0000000000007db0      0x1cc S:/UltimateEnvironment/code-mod-example/param-replace/code-mod-framework/lib/libnx_min/nx/lib\libnx_min.a(fs.o)
                0x0000000000007db0                fsOpenDataStorageByCurrentProcess
 *fill*         0x0000000000007f7c        0x4 
 .text.fsOpenDataStorageByDataId
                0x0000000000007f80      0x200 S:/UltimateEnvironment/code-mod-example/param-replace/code-mod-framework/lib/libnx_min/nx/lib\libnx_min.a(fs.o)
                0x0000000000007f80                fsOpenDataStorageByDataId
 .text.fsOpenDeviceOperator
                0x0000000000008180      0x1cc S:/UltimateEnvironment/code-mod-example/param-replace/code-mod-framework/lib/libnx_min/nx/lib\libnx_min.a(fs.o)
                0x0000000000008180                fsOpenDeviceOperator
 *fill*         0x000000000000834c        0x4 
 .text.fsOpenSdCardDetectionEventNotifier
                0x0000000000008350      0x1cc S:/UltimateEnvironment/code-mod-example/param-replace/code-mod-framework/lib/libnx_min/nx/lib\libnx_min.a(fs.o)
                0x0000000000008350                fsOpenSdCardDetectionEventNotifier
 *fill*         0x000000000000851c        0x4 
 .text.fsGetRightsIdByPath
                0x0000000000008520      0x174 S:/UltimateEnvironment/code-mod-example/param-replace/code-mod-framework/lib/libnx_min/nx/lib\libnx_min.a(fs.o)
                0x0000000000008520                fsGetRightsIdByPath
 *fill*         0x0000000000008694        0xc 
 .text.fsGetRightsIdAndKeyGenerationByPath
                0x00000000000086a0      0x184 S:/UltimateEnvironment/code-mod-example/param-replace/code-mod-framework/lib/libnx_min/nx/lib\libnx_min.a(fs.o)
                0x00000000000086a0                fsGetRightsIdAndKeyGenerationByPath
 *fill*         0x0000000000008824        0xc 
 .text.fsIsExFatSupported
                0x0000000000008830      0x138 S:/UltimateEnvironment/code-mod-example/param-replace/code-mod-framework/lib/libnx_min/nx/lib\libnx_min.a(fs.o)
                0x0000000000008830                fsIsExFatSupported
 *fill*         0x0000000000008968        0x8 
 .text.fsMount_SaveData
                0x0000000000008970       0x3c S:/UltimateEnvironment/code-mod-example/param-replace/code-mod-framework/lib/libnx_min/nx/lib\libnx_min.a(fs.o)
                0x0000000000008970                fsMount_SaveData
 *fill*         0x00000000000089ac        0x4 
 .text.fsMount_SystemSaveData
                0x00000000000089b0       0x30 S:/UltimateEnvironment/code-mod-example/param-replace/code-mod-framework/lib/libnx_min/nx/lib\libnx_min.a(fs.o)
                0x00000000000089b0                fsMount_SystemSaveData
 .text.fsOpenFileSystemWithId
                0x00000000000089e0      0x248 S:/UltimateEnvironment/code-mod-example/param-replace/code-mod-framework/lib/libnx_min/nx/lib\libnx_min.a(fs.o)
                0x00000000000089e0                fsOpenFileSystemWithId
 *fill*         0x0000000000008c28        0x8 
 .text.fsOpenFileSystem
                0x0000000000008c30       0x10 S:/UltimateEnvironment/code-mod-example/param-replace/code-mod-framework/lib/libnx_min/nx/lib\libnx_min.a(fs.o)
                0x0000000000008c30                fsOpenFileSystem
 .text.fsOpenFileSystemWithPatch
                0x0000000000008c40      0x184 S:/UltimateEnvironment/code-mod-example/param-replace/code-mod-framework/lib/libnx_min/nx/lib\libnx_min.a(fs.o)
                0x0000000000008c40                fsOpenFileSystemWithPatch
 *fill*         0x0000000000008dc4        0xc 
 .text.fsFsCreateFile
                0x0000000000008dd0      0x1a4 S:/UltimateEnvironment/code-mod-example/param-replace/code-mod-framework/lib/libnx_min/nx/lib\libnx_min.a(fs.o)
                0x0000000000008dd0                fsFsCreateFile
 *fill*         0x0000000000008f74        0xc 
 .text.fsFsDeleteFile
                0x0000000000008f80      0x19c S:/UltimateEnvironment/code-mod-example/param-replace/code-mod-framework/lib/libnx_min/nx/lib\libnx_min.a(fs.o)
                0x0000000000008f80                fsFsDeleteFile
 *fill*         0x000000000000911c        0x4 
 .text.fsFsCreateDirectory
                0x0000000000009120      0x19c S:/UltimateEnvironment/code-mod-example/param-replace/code-mod-framework/lib/libnx_min/nx/lib\libnx_min.a(fs.o)
                0x0000000000009120                fsFsCreateDirectory
 *fill*         0x00000000000092bc        0x4 
 .text.fsFsDeleteDirectory
                0x00000000000092c0      0x19c S:/UltimateEnvironment/code-mod-example/param-replace/code-mod-framework/lib/libnx_min/nx/lib\libnx_min.a(fs.o)
                0x00000000000092c0                fsFsDeleteDirectory
 *fill*         0x000000000000945c        0x4 
 .text.fsFsDeleteDirectoryRecursively
                0x0000000000009460      0x19c S:/UltimateEnvironment/code-mod-example/param-replace/code-mod-framework/lib/libnx_min/nx/lib\libnx_min.a(fs.o)
                0x0000000000009460                fsFsDeleteDirectoryRecursively
 *fill*         0x00000000000095fc        0x4 
 .text.fsFsRenameFile
                0x0000000000009600      0x214 S:/UltimateEnvironment/code-mod-example/param-replace/code-mod-framework/lib/libnx_min/nx/lib\libnx_min.a(fs.o)
                0x0000000000009600                fsFsRenameFile
 *fill*         0x0000000000009814        0xc 
 .text.fsFsRenameDirectory
                0x0000000000009820      0x214 S:/UltimateEnvironment/code-mod-example/param-replace/code-mod-framework/lib/libnx_min/nx/lib\libnx_min.a(fs.o)
                0x0000000000009820                fsFsRenameDirectory
 *fill*         0x0000000000009a34        0xc 
 .text.fsFsGetEntryType
                0x0000000000009a40      0x1b0 S:/UltimateEnvironment/code-mod-example/param-replace/code-mod-framework/lib/libnx_min/nx/lib\libnx_min.a(fs.o)
                0x0000000000009a40                fsFsGetEntryType
 .text.fsFsOpenFile
                0x0000000000009bf0      0x1e4 S:/UltimateEnvironment/code-mod-example/param-replace/code-mod-framework/lib/libnx_min/nx/lib\libnx_min.a(fs.o)
                0x0000000000009bf0                fsFsOpenFile
 *fill*         0x0000000000009dd4        0xc 
 .text.fsFsOpenDirectory
                0x0000000000009de0      0x1f8 S:/UltimateEnvironment/code-mod-example/param-replace/code-mod-framework/lib/libnx_min/nx/lib\libnx_min.a(fs.o)
                0x0000000000009de0                fsFsOpenDirectory
 *fill*         0x0000000000009fd8        0x8 
 .text.fsFsCommit
                0x0000000000009fe0      0x17c S:/UltimateEnvironment/code-mod-example/param-replace/code-mod-framework/lib/libnx_min/nx/lib\libnx_min.a(fs.o)
                0x0000000000009fe0                fsFsCommit
 *fill*         0x000000000000a15c        0x4 
 .text.fsFsGetFreeSpace
                0x000000000000a160      0x1b0 S:/UltimateEnvironment/code-mod-example/param-replace/code-mod-framework/lib/libnx_min/nx/lib\libnx_min.a(fs.o)
                0x000000000000a160                fsFsGetFreeSpace
 .text.fsFsGetTotalSpace
                0x000000000000a310      0x1b0 S:/UltimateEnvironment/code-mod-example/param-replace/code-mod-framework/lib/libnx_min/nx/lib\libnx_min.a(fs.o)
                0x000000000000a310                fsFsGetTotalSpace
 .text.fsFsCleanDirectoryRecursively
                0x000000000000a4c0      0x140 S:/UltimateEnvironment/code-mod-example/param-replace/code-mod-framework/lib/libnx_min/nx/lib\libnx_min.a(fs.o)
                0x000000000000a4c0                fsFsCleanDirectoryRecursively
 .text.fsFsGetFileTimeStampRaw
                0x000000000000a600      0x194 S:/UltimateEnvironment/code-mod-example/param-replace/code-mod-framework/lib/libnx_min/nx/lib\libnx_min.a(fs.o)
                0x000000000000a600                fsFsGetFileTimeStampRaw
 *fill*         0x000000000000a794        0xc 
 .text.fsFsQueryEntry
                0x000000000000a7a0       0x60 S:/UltimateEnvironment/code-mod-example/param-replace/code-mod-framework/lib/libnx_min/nx/lib\libnx_min.a(fs.o)
                0x000000000000a7a0                fsFsQueryEntry
 .text.fsFsSetArchiveBit
                0x000000000000a800       0x1c S:/UltimateEnvironment/code-mod-example/param-replace/code-mod-framework/lib/libnx_min/nx/lib\libnx_min.a(fs.o)
                0x000000000000a800                fsFsSetArchiveBit
 *fill*         0x000000000000a81c        0x4 
 .text.fsFsClose
                0x000000000000a820       0x6c S:/UltimateEnvironment/code-mod-example/param-replace/code-mod-framework/lib/libnx_min/nx/lib\libnx_min.a(fs.o)
                0x000000000000a820                fsFsClose
 *fill*         0x000000000000a88c        0x4 
 .text.fsFileRead
                0x000000000000a890      0x1f8 S:/UltimateEnvironment/code-mod-example/param-replace/code-mod-framework/lib/libnx_min/nx/lib\libnx_min.a(fs.o)
                0x000000000000a890                fsFileRead
 *fill*         0x000000000000aa88        0x8 
 .text.fsFileWrite
                0x000000000000aa90      0x1cc S:/UltimateEnvironment/code-mod-example/param-replace/code-mod-framework/lib/libnx_min/nx/lib\libnx_min.a(fs.o)
                0x000000000000aa90                fsFileWrite
 *fill*         0x000000000000ac5c        0x4 
 .text.fsFileFlush
                0x000000000000ac60      0x17c S:/UltimateEnvironment/code-mod-example/param-replace/code-mod-framework/lib/libnx_min/nx/lib\libnx_min.a(fs.o)
                0x000000000000ac60                fsFileFlush
 *fill*         0x000000000000addc        0x4 
 .text.fsFileSetSize
                0x000000000000ade0      0x18c S:/UltimateEnvironment/code-mod-example/param-replace/code-mod-framework/lib/libnx_min/nx/lib\libnx_min.a(fs.o)
                0x000000000000ade0                fsFileSetSize
 *fill*         0x000000000000af6c        0x4 
 .text.fsFileGetSize
                0x000000000000af70      0x194 S:/UltimateEnvironment/code-mod-example/param-replace/code-mod-framework/lib/libnx_min/nx/lib\libnx_min.a(fs.o)
                0x000000000000af70                fsFileGetSize
 *fill*         0x000000000000b104        0xc 
 .text.fsFileOperateRange
                0x000000000000b110      0x180 S:/UltimateEnvironment/code-mod-example/param-replace/code-mod-framework/lib/libnx_min/nx/lib\libnx_min.a(fs.o)
                0x000000000000b110                fsFileOperateRange
 .text.fsFileClose
                0x000000000000b290       0x6c S:/UltimateEnvironment/code-mod-example/param-replace/code-mod-framework/lib/libnx_min/nx/lib\libnx_min.a(fs.o)
                0x000000000000b290                fsFileClose
 *fill*         0x000000000000b2fc        0x4 
 .text.fsDirClose
                0x000000000000b300       0x6c S:/UltimateEnvironment/code-mod-example/param-replace/code-mod-framework/lib/libnx_min/nx/lib\libnx_min.a(fs.o)
                0x000000000000b300                fsDirClose
 *fill*         0x000000000000b36c        0x4 
 .text.fsDirRead
                0x000000000000b370      0x1ec S:/UltimateEnvironment/code-mod-example/param-replace/code-mod-framework/lib/libnx_min/nx/lib\libnx_min.a(fs.o)
                0x000000000000b370                fsDirRead
 *fill*         0x000000000000b55c        0x4 
 .text.fsDirGetEntryCount
                0x000000000000b560      0x198 S:/UltimateEnvironment/code-mod-example/param-replace/code-mod-framework/lib/libnx_min/nx/lib\libnx_min.a(fs.o)
                0x000000000000b560                fsDirGetEntryCount
 *fill*         0x000000000000b6f8        0x8 
 .text.fsStorageRead
                0x000000000000b700      0x1d0 S:/UltimateEnvironment/code-mod-example/param-replace/code-mod-framework/lib/libnx_min/nx/lib\libnx_min.a(fs.o)
                0x000000000000b700                fsStorageRead
 .text.fsStorageWrite
                0x000000000000b8d0      0x1d0 S:/UltimateEnvironment/code-mod-example/param-replace/code-mod-framework/lib/libnx_min/nx/lib\libnx_min.a(fs.o)
                0x000000000000b8d0                fsStorageWrite
 .text.fsStorageFlush
                0x000000000000baa0      0x17c S:/UltimateEnvironment/code-mod-example/param-replace/code-mod-framework/lib/libnx_min/nx/lib\libnx_min.a(fs.o)
                0x000000000000baa0                fsStorageFlush
 *fill*         0x000000000000bc1c        0x4 
 .text.fsStorageSetSize
                0x000000000000bc20      0x18c S:/UltimateEnvironment/code-mod-example/param-replace/code-mod-framework/lib/libnx_min/nx/lib\libnx_min.a(fs.o)
                0x000000000000bc20                fsStorageSetSize
 *fill*         0x000000000000bdac        0x4 
 .text.fsStorageGetSize
                0x000000000000bdb0      0x194 S:/UltimateEnvironment/code-mod-example/param-replace/code-mod-framework/lib/libnx_min/nx/lib\libnx_min.a(fs.o)
                0x000000000000bdb0                fsStorageGetSize
 *fill*         0x000000000000bf44        0xc 
 .text.fsStorageOperateRange
                0x000000000000bf50      0x180 S:/UltimateEnvironment/code-mod-example/param-replace/code-mod-framework/lib/libnx_min/nx/lib\libnx_min.a(fs.o)
                0x000000000000bf50                fsStorageOperateRange
 .text.fsStorageClose
                0x000000000000c0d0       0x6c S:/UltimateEnvironment/code-mod-example/param-replace/code-mod-framework/lib/libnx_min/nx/lib\libnx_min.a(fs.o)
                0x000000000000c0d0                fsStorageClose
 *fill*         0x000000000000c13c        0x4 
 .text.fsSaveDataIteratorRead
                0x000000000000c140      0x1d0 S:/UltimateEnvironment/code-mod-example/param-replace/code-mod-framework/lib/libnx_min/nx/lib\libnx_min.a(fs.o)
                0x000000000000c140                fsSaveDataIteratorRead
 .text.fsSaveDataIteratorClose
                0x000000000000c310       0x6c S:/UltimateEnvironment/code-mod-example/param-replace/code-mod-framework/lib/libnx_min/nx/lib\libnx_min.a(fs.o)
                0x000000000000c310                fsSaveDataIteratorClose
 *fill*         0x000000000000c37c        0x4 
 .text.fsEventNotifierGetEventHandle
                0x000000000000c380      0x188 S:/UltimateEnvironment/code-mod-example/param-replace/code-mod-framework/lib/libnx_min/nx/lib\libnx_min.a(fs.o)
                0x000000000000c380                fsEventNotifierGetEventHandle
 *fill*         0x000000000000c508        0x8 
 .text.fsEventNotifierClose
                0x000000000000c510       0x6c S:/UltimateEnvironment/code-mod-example/param-replace/code-mod-framework/lib/libnx_min/nx/lib\libnx_min.a(fs.o)
                0x000000000000c510                fsEventNotifierClose
 *fill*         0x000000000000c57c        0x4 
 .text.fsDeviceOperatorIsSdCardInserted
                0x000000000000c580        0xc S:/UltimateEnvironment/code-mod-example/param-replace/code-mod-framework/lib/libnx_min/nx/lib\libnx_min.a(fs.o)
                0x000000000000c580                fsDeviceOperatorIsSdCardInserted
 *fill*         0x000000000000c58c        0x4 
 .text.fsDeviceOperatorIsGameCardInserted
                0x000000000000c590        0xc S:/UltimateEnvironment/code-mod-example/param-replace/code-mod-framework/lib/libnx_min/nx/lib\libnx_min.a(fs.o)
                0x000000000000c590                fsDeviceOperatorIsGameCardInserted
 *fill*         0x000000000000c59c        0x4 
 .text.fsDeviceOperatorGetGameCardHandle
                0x000000000000c5a0      0x190 S:/UltimateEnvironment/code-mod-example/param-replace/code-mod-framework/lib/libnx_min/nx/lib\libnx_min.a(fs.o)
                0x000000000000c5a0                fsDeviceOperatorGetGameCardHandle
 .text.fsDeviceOperatorGetGameCardAttribute
                0x000000000000c730      0x18c S:/UltimateEnvironment/code-mod-example/param-replace/code-mod-framework/lib/libnx_min/nx/lib\libnx_min.a(fs.o)
                0x000000000000c730                fsDeviceOperatorGetGameCardAttribute
 *fill*         0x000000000000c8bc        0x4 
 .text.fsDeviceOperatorClose
                0x000000000000c8c0       0x6c S:/UltimateEnvironment/code-mod-example/param-replace/code-mod-framework/lib/libnx_min/nx/lib\libnx_min.a(fs.o)
                0x000000000000c8c0                fsDeviceOperatorClose
 *fill*         0x000000000000c92c        0x4 
 .text.ipcCloseObjectById
                0x000000000000c930       0x34 S:/UltimateEnvironment/code-mod-example/param-replace/code-mod-framework/lib/libnx_min/nx/lib\libnx_min.a(set.o)
 *fill*         0x000000000000c964        0xc 
 .text._setMakeLanguageCode
                0x000000000000c970       0xf4 S:/UltimateEnvironment/code-mod-example/param-replace/code-mod-framework/lib/libnx_min/nx/lib\libnx_min.a(set.o)
 *fill*         0x000000000000ca64        0xc 
 .text._setsysGetFirmwareVersionImpl
                0x000000000000ca70      0x1d4 S:/UltimateEnvironment/code-mod-example/param-replace/code-mod-framework/lib/libnx_min/nx/lib\libnx_min.a(set.o)
 *fill*         0x000000000000cc44        0xc 
 .text.setInitialize
                0x000000000000cc50       0x44 S:/UltimateEnvironment/code-mod-example/param-replace/code-mod-framework/lib/libnx_min/nx/lib\libnx_min.a(set.o)
                0x000000000000cc50                setInitialize
 *fill*         0x000000000000cc94        0xc 
 .text.setExit  0x000000000000cca0       0x9c S:/UltimateEnvironment/code-mod-example/param-replace/code-mod-framework/lib/libnx_min/nx/lib\libnx_min.a(set.o)
                0x000000000000cca0                setExit
 *fill*         0x000000000000cd3c        0x4 
 .text.setsysInitialize
                0x000000000000cd40       0x3c S:/UltimateEnvironment/code-mod-example/param-replace/code-mod-framework/lib/libnx_min/nx/lib\libnx_min.a(set.o)
                0x000000000000cd40                setsysInitialize
 *fill*         0x000000000000cd7c        0x4 
 .text.setsysExit
                0x000000000000cd80       0x9c S:/UltimateEnvironment/code-mod-example/param-replace/code-mod-framework/lib/libnx_min/nx/lib\libnx_min.a(set.o)
                0x000000000000cd80                setsysExit
 *fill*         0x000000000000ce1c        0x4 
 .text.setGetLanguageCode
                0x000000000000ce20       0xec S:/UltimateEnvironment/code-mod-example/param-replace/code-mod-framework/lib/libnx_min/nx/lib\libnx_min.a(set.o)
                0x000000000000ce20                setGetLanguageCode
 *fill*         0x000000000000cf0c        0x4 
 .text.setGetSystemLanguage
                0x000000000000cf10        0x4 S:/UltimateEnvironment/code-mod-example/param-replace/code-mod-framework/lib/libnx_min/nx/lib\libnx_min.a(set.o)
                0x000000000000cf10                setGetSystemLanguage
 *fill*         0x000000000000cf14        0xc 
 .text.setGetAvailableLanguageCodeCount
                0x000000000000cf20      0x10c S:/UltimateEnvironment/code-mod-example/param-replace/code-mod-framework/lib/libnx_min/nx/lib\libnx_min.a(set.o)
                0x000000000000cf20                setGetAvailableLanguageCodeCount
 *fill*         0x000000000000d02c        0x4 
 .text.setGetAvailableLanguageCodes
                0x000000000000d030      0x1b4 S:/UltimateEnvironment/code-mod-example/param-replace/code-mod-framework/lib/libnx_min/nx/lib\libnx_min.a(set.o)
                0x000000000000d030                setGetAvailableLanguageCodes
 *fill*         0x000000000000d1e4        0xc 
 .text.setInitializeLanguageCodesCache
                0x000000000000d1f0       0x70 S:/UltimateEnvironment/code-mod-example/param-replace/code-mod-framework/lib/libnx_min/nx/lib\libnx_min.a(set.o)
 .text.setMakeLanguage
                0x000000000000d260       0x8c S:/UltimateEnvironment/code-mod-example/param-replace/code-mod-framework/lib/libnx_min/nx/lib\libnx_min.a(set.o)
                0x000000000000d260                setMakeLanguage
 *fill*         0x000000000000d2ec        0x4 
 .text.setMakeLanguageCode
                0x000000000000d2f0       0x80 S:/UltimateEnvironment/code-mod-example/param-replace/code-mod-framework/lib/libnx_min/nx/lib\libnx_min.a(set.o)
                0x000000000000d2f0                setMakeLanguageCode
 .text.setGetRegionCode
                0x000000000000d370       0xf0 S:/UltimateEnvironment/code-mod-example/param-replace/code-mod-framework/lib/libnx_min/nx/lib\libnx_min.a(set.o)
                0x000000000000d370                setGetRegionCode
 .text.setsysGetColorSetId
                0x000000000000d460       0xe4 S:/UltimateEnvironment/code-mod-example/param-replace/code-mod-framework/lib/libnx_min/nx/lib\libnx_min.a(set.o)
                0x000000000000d460                setsysGetColorSetId
 *fill*         0x000000000000d544        0xc 
 .text.setsysSetColorSetId
                0x000000000000d550       0xd0 S:/UltimateEnvironment/code-mod-example/param-replace/code-mod-framework/lib/libnx_min/nx/lib\libnx_min.a(set.o)
                0x000000000000d550                setsysSetColorSetId
 .text.setsysGetSettingsItemValue
                0x000000000000d620      0x19c S:/UltimateEnvironment/code-mod-example/param-replace/code-mod-framework/lib/libnx_min/nx/lib\libnx_min.a(set.o)
                0x000000000000d620                setsysGetSettingsItemValue
 *fill*         0x000000000000d7bc        0x4 
 .text.setsysGetSettingsItemValueSize
                0x000000000000d7c0      0x198 S:/UltimateEnvironment/code-mod-example/param-replace/code-mod-framework/lib/libnx_min/nx/lib\libnx_min.a(set.o)
                0x000000000000d7c0                setsysGetSettingsItemValueSize
 *fill*         0x000000000000d958        0x8 
 .text.setsysGetSerialNumber
                0x000000000000d960      0x108 S:/UltimateEnvironment/code-mod-example/param-replace/code-mod-framework/lib/libnx_min/nx/lib\libnx_min.a(set.o)
                0x000000000000d960                setsysGetSerialNumber
 *fill*         0x000000000000da68        0x8 
 .text.setsysGetFlag
                0x000000000000da70       0xec S:/UltimateEnvironment/code-mod-example/param-replace/code-mod-framework/lib/libnx_min/nx/lib\libnx_min.a(set.o)
                0x000000000000da70                setsysGetFlag
 *fill*         0x000000000000db5c        0x4 
 .text.setsysSetFlag
                0x000000000000db60       0xd0 S:/UltimateEnvironment/code-mod-example/param-replace/code-mod-framework/lib/libnx_min/nx/lib\libnx_min.a(set.o)
                0x000000000000db60                setsysSetFlag
 .text.setsysGetFirmwareVersion
                0x000000000000dc30       0x44 S:/UltimateEnvironment/code-mod-example/param-replace/code-mod-framework/lib/libnx_min/nx/lib\libnx_min.a(set.o)
                0x000000000000dc30                setsysGetFirmwareVersion
 *fill*         0x000000000000dc74        0xc 
 .text.setsysBindFatalDirtyFlagEvent
                0x000000000000dc80      0x13c S:/UltimateEnvironment/code-mod-example/param-replace/code-mod-framework/lib/libnx_min/nx/lib\libnx_min.a(set.o)
                0x000000000000dc80                setsysBindFatalDirtyFlagEvent
 *fill*         0x000000000000ddbc        0x4 
 .text.setsysGetFatalDirtyFlags
                0x000000000000ddc0       0xf8 S:/UltimateEnvironment/code-mod-example/param-replace/code-mod-framework/lib/libnx_min/nx/lib\libnx_min.a(set.o)
                0x000000000000ddc0                setsysGetFatalDirtyFlags
 *fill*         0x000000000000deb8        0x8 
 .text.setsysGetDeviceNickname
                0x000000000000dec0       0xf8 S:/UltimateEnvironment/code-mod-example/param-replace/code-mod-framework/lib/libnx_min/nx/lib\libnx_min.a(set.o)
                0x000000000000dec0                setsysGetDeviceNickname
 *fill*         0x000000000000dfb8        0x8 
 .text.setsysSetDeviceNickname
                0x000000000000dfc0      0x134 S:/UltimateEnvironment/code-mod-example/param-replace/code-mod-framework/lib/libnx_min/nx/lib\libnx_min.a(set.o)
                0x000000000000dfc0                setsysSetDeviceNickname
 *fill*         0x000000000000e0f4        0xc 
 .text._fatalImpl
                0x000000000000e100      0x140 S:/UltimateEnvironment/code-mod-example/param-replace/code-mod-framework/lib/libnx_min/nx/lib\libnx_min.a(fatal.o)
 .text.fatalWithType
                0x000000000000e240       0x14 S:/UltimateEnvironment/code-mod-example/param-replace/code-mod-framework/lib/libnx_min/nx/lib\libnx_min.a(fatal.o)
                0x000000000000e240                fatalWithType
 *fill*         0x000000000000e254        0xc 
 .text.fatalSimple
                0x000000000000e260       0x14 S:/UltimateEnvironment/code-mod-example/param-replace/code-mod-framework/lib/libnx_min/nx/lib\libnx_min.a(fatal.o)
                0x000000000000e260                fatalSimple
 *fill*         0x000000000000e274        0xc 
 .text.fatalWithContext
                0x000000000000e280       0x14 S:/UltimateEnvironment/code-mod-example/param-replace/code-mod-framework/lib/libnx_min/nx/lib\libnx_min.a(fatal.o)
                0x000000000000e280                fatalWithContext
 *fill*         0x000000000000e294        0xc 
 .text.ipcCloseObjectById
                0x000000000000e2a0       0x34 S:/UltimateEnvironment/code-mod-example/param-replace/code-mod-framework/lib/libnx_min/nx/lib\libnx_min.a(sm.o)
 *fill*         0x000000000000e2d4        0xc 
 .text.smAddOverrideHandle
                0x000000000000e2e0       0x44 S:/UltimateEnvironment/code-mod-example/param-replace/code-mod-framework/lib/libnx_min/nx/lib\libnx_min.a(sm.o)
                0x000000000000e2e0                smAddOverrideHandle
 *fill*         0x000000000000e324        0xc 
 .text.smGetServiceOverride
                0x000000000000e330       0x60 S:/UltimateEnvironment/code-mod-example/param-replace/code-mod-framework/lib/libnx_min/nx/lib\libnx_min.a(sm.o)
                0x000000000000e330                smGetServiceOverride
 .text.smHasInitialized
                0x000000000000e390       0x14 S:/UltimateEnvironment/code-mod-example/param-replace/code-mod-framework/lib/libnx_min/nx/lib\libnx_min.a(sm.o)
                0x000000000000e390                smHasInitialized
 *fill*         0x000000000000e3a4        0xc 
 .text.smExit   0x000000000000e3b0       0x9c S:/UltimateEnvironment/code-mod-example/param-replace/code-mod-framework/lib/libnx_min/nx/lib\libnx_min.a(sm.o)
                0x000000000000e3b0                smExit
 *fill*         0x000000000000e44c        0x4 
 .text.smGetServiceSession
                0x000000000000e450        0xc S:/UltimateEnvironment/code-mod-example/param-replace/code-mod-framework/lib/libnx_min/nx/lib\libnx_min.a(sm.o)
                0x000000000000e450                smGetServiceSession
 *fill*         0x000000000000e45c        0x4 
 .text.smEncodeName
                0x000000000000e460       0x38 S:/UltimateEnvironment/code-mod-example/param-replace/code-mod-framework/lib/libnx_min/nx/lib\libnx_min.a(sm.o)
                0x000000000000e460                smEncodeName
 *fill*         0x000000000000e498        0x8 
 .text.smGetServiceOriginal
                0x000000000000e4a0      0x22c S:/UltimateEnvironment/code-mod-example/param-replace/code-mod-framework/lib/libnx_min/nx/lib\libnx_min.a(sm.o)
                0x000000000000e4a0                smGetServiceOriginal
 *fill*         0x000000000000e6cc        0x4 
 .text.smInitialize
                0x000000000000e6d0      0x27c S:/UltimateEnvironment/code-mod-example/param-replace/code-mod-framework/lib/libnx_min/nx/lib\libnx_min.a(sm.o)
                0x000000000000e6d0                smInitialize
 *fill*         0x000000000000e94c        0x4 
 .text.smGetService
                0x000000000000e950       0x74 S:/UltimateEnvironment/code-mod-example/param-replace/code-mod-framework/lib/libnx_min/nx/lib\libnx_min.a(sm.o)
                0x000000000000e950                smGetService
 *fill*         0x000000000000e9c4        0xc 
 .text.smRegisterService
                0x000000000000e9d0      0x25c S:/UltimateEnvironment/code-mod-example/param-replace/code-mod-framework/lib/libnx_min/nx/lib\libnx_min.a(sm.o)
                0x000000000000e9d0                smRegisterService
 *fill*         0x000000000000ec2c        0x4 
 .text.smUnregisterService
                0x000000000000ec30      0x1ac S:/UltimateEnvironment/code-mod-example/param-replace/code-mod-framework/lib/libnx_min/nx/lib\libnx_min.a(sm.o)
                0x000000000000ec30                smUnregisterService
 *fill*         0x000000000000eddc        0x4 
 .text._hidGetDeviceHandles.part.7
                0x000000000000ede0       0xec S:/UltimateEnvironment/code-mod-example/param-replace/code-mod-framework/lib/libnx_min/nx/lib\libnx_min.a(hid.o)
 *fill*         0x000000000000eecc        0x4 
 .text.ipcCloseObjectById
                0x000000000000eed0       0x34 S:/UltimateEnvironment/code-mod-example/param-replace/code-mod-framework/lib/libnx_min/nx/lib\libnx_min.a(hid.o)
 *fill*         0x000000000000ef04        0xc 
 .text._hidActivateVibrationDevice
                0x000000000000ef10       0xc8 S:/UltimateEnvironment/code-mod-example/param-replace/code-mod-framework/lib/libnx_min/nx/lib\libnx_min.a(hid.o)
 *fill*         0x000000000000efd8        0x8 
 .text._hidGetSharedMemoryHandle.constprop.17
                0x000000000000efe0      0x124 S:/UltimateEnvironment/code-mod-example/param-replace/code-mod-framework/lib/libnx_min/nx/lib\libnx_min.a(hid.o)
 *fill*         0x000000000000f104        0xc 
 .text._hidCreateActiveVibrationDeviceList
                0x000000000000f110      0x134 S:/UltimateEnvironment/code-mod-example/param-replace/code-mod-framework/lib/libnx_min/nx/lib\libnx_min.a(hid.o)
 *fill*         0x000000000000f244        0xc 
 .text._hidCmdWithNoInput
                0x000000000000f250      0x100 S:/UltimateEnvironment/code-mod-example/param-replace/code-mod-framework/lib/libnx_min/nx/lib\libnx_min.a(hid.o)
 .text._hidCreateAppletResource.constprop.16
                0x000000000000f350      0x134 S:/UltimateEnvironment/code-mod-example/param-replace/code-mod-framework/lib/libnx_min/nx/lib\libnx_min.a(hid.o)
 *fill*         0x000000000000f484        0xc 
 .text._hidCmdWithInputU32
                0x000000000000f490      0x10c S:/UltimateEnvironment/code-mod-example/param-replace/code-mod-framework/lib/libnx_min/nx/lib\libnx_min.a(hid.o)
 *fill*         0x000000000000f59c        0x4 
 .text._hidCmdWithInputU64.constprop.18
                0x000000000000f5a0      0x108 S:/UltimateEnvironment/code-mod-example/param-replace/code-mod-framework/lib/libnx_min/nx/lib\libnx_min.a(hid.o)
 *fill*         0x000000000000f6a8        0x8 
 .text._hidInitializeSevenSixAxisSensor.isra.11.constprop.19
                0x000000000000f6b0      0x1f8 S:/UltimateEnvironment/code-mod-example/param-replace/code-mod-framework/lib/libnx_min/nx/lib\libnx_min.a(hid.o)
 *fill*         0x000000000000f8a8        0x8 
 .text.hidReset
                0x000000000000f8b0      0x1f8 S:/UltimateEnvironment/code-mod-example/param-replace/code-mod-framework/lib/libnx_min/nx/lib\libnx_min.a(hid.o)
                0x000000000000f8b0                hidReset
 *fill*         0x000000000000faa8        0x8 
 .text.hidGetSessionService
                0x000000000000fab0        0xc S:/UltimateEnvironment/code-mod-example/param-replace/code-mod-framework/lib/libnx_min/nx/lib\libnx_min.a(hid.o)
                0x000000000000fab0                hidGetSessionService
 *fill*         0x000000000000fabc        0x4 
 .text.hidGetSharedmemAddr
                0x000000000000fac0        0xc S:/UltimateEnvironment/code-mod-example/param-replace/code-mod-framework/lib/libnx_min/nx/lib\libnx_min.a(hid.o)
                0x000000000000fac0                hidGetSharedmemAddr
 *fill*         0x000000000000facc        0x4 
 .text.hidSetControllerLayout
                0x000000000000fad0       0x54 S:/UltimateEnvironment/code-mod-example/param-replace/code-mod-framework/lib/libnx_min/nx/lib\libnx_min.a(hid.o)
                0x000000000000fad0                hidSetControllerLayout
 *fill*         0x000000000000fb24        0xc 
 .text.hidGetControllerLayout
                0x000000000000fb30       0x50 S:/UltimateEnvironment/code-mod-example/param-replace/code-mod-framework/lib/libnx_min/nx/lib\libnx_min.a(hid.o)
                0x000000000000fb30                hidGetControllerLayout
 .text.hidGetControllerType
                0x000000000000fb80       0x78 S:/UltimateEnvironment/code-mod-example/param-replace/code-mod-framework/lib/libnx_min/nx/lib\libnx_min.a(hid.o)
                0x000000000000fb80                hidGetControllerType
 *fill*         0x000000000000fbf8        0x8 
 .text.hidGetControllerColors
                0x000000000000fc00       0xd4 S:/UltimateEnvironment/code-mod-example/param-replace/code-mod-framework/lib/libnx_min/nx/lib\libnx_min.a(hid.o)
                0x000000000000fc00                hidGetControllerColors
 *fill*         0x000000000000fcd4        0xc 
 .text.hidIsControllerConnected
                0x000000000000fce0       0x7c S:/UltimateEnvironment/code-mod-example/param-replace/code-mod-framework/lib/libnx_min/nx/lib\libnx_min.a(hid.o)
                0x000000000000fce0                hidIsControllerConnected
 *fill*         0x000000000000fd5c        0x4 
 .text.hidGetControllerDeviceType
                0x000000000000fd60       0x70 S:/UltimateEnvironment/code-mod-example/param-replace/code-mod-framework/lib/libnx_min/nx/lib\libnx_min.a(hid.o)
                0x000000000000fd60                hidGetControllerDeviceType
 .text.hidGetControllerFlags
                0x000000000000fdd0       0x90 S:/UltimateEnvironment/code-mod-example/param-replace/code-mod-framework/lib/libnx_min/nx/lib\libnx_min.a(hid.o)
                0x000000000000fdd0                hidGetControllerFlags
 .text.hidGetControllerPowerInfo
                0x000000000000fe60      0x114 S:/UltimateEnvironment/code-mod-example/param-replace/code-mod-framework/lib/libnx_min/nx/lib\libnx_min.a(hid.o)
                0x000000000000fe60                hidGetControllerPowerInfo
 *fill*         0x000000000000ff74        0xc 
 .text.hidKeysHeld
                0x000000000000ff80       0x6c S:/UltimateEnvironment/code-mod-example/param-replace/code-mod-framework/lib/libnx_min/nx/lib\libnx_min.a(hid.o)
                0x000000000000ff80                hidKeysHeld
 *fill*         0x000000000000ffec        0x4 
 .text.hidKeysDown
                0x000000000000fff0       0x6c S:/UltimateEnvironment/code-mod-example/param-replace/code-mod-framework/lib/libnx_min/nx/lib\libnx_min.a(hid.o)
                0x000000000000fff0                hidKeysDown
 *fill*         0x000000000001005c        0x4 
 .text.hidKeysUp
                0x0000000000010060       0x6c S:/UltimateEnvironment/code-mod-example/param-replace/code-mod-framework/lib/libnx_min/nx/lib\libnx_min.a(hid.o)
                0x0000000000010060                hidKeysUp
 *fill*         0x00000000000100cc        0x4 
 .text.hidMouseButtonsHeld
                0x00000000000100d0       0x3c S:/UltimateEnvironment/code-mod-example/param-replace/code-mod-framework/lib/libnx_min/nx/lib\libnx_min.a(hid.o)
                0x00000000000100d0                hidMouseButtonsHeld
 *fill*         0x000000000001010c        0x4 
 .text.hidMouseButtonsDown
                0x0000000000010110       0x3c S:/UltimateEnvironment/code-mod-example/param-replace/code-mod-framework/lib/libnx_min/nx/lib\libnx_min.a(hid.o)
                0x0000000000010110                hidMouseButtonsDown
 *fill*         0x000000000001014c        0x4 
 .text.hidMouseButtonsUp
                0x0000000000010150       0x3c S:/UltimateEnvironment/code-mod-example/param-replace/code-mod-framework/lib/libnx_min/nx/lib\libnx_min.a(hid.o)
                0x0000000000010150                hidMouseButtonsUp
 *fill*         0x000000000001018c        0x4 
 .text.hidMouseRead
                0x0000000000010190       0x48 S:/UltimateEnvironment/code-mod-example/param-replace/code-mod-framework/lib/libnx_min/nx/lib\libnx_min.a(hid.o)
                0x0000000000010190                hidMouseRead
 *fill*         0x00000000000101d8        0x8 
 .text.hidMouseMultiRead
                0x00000000000101e0      0x150 S:/UltimateEnvironment/code-mod-example/param-replace/code-mod-framework/lib/libnx_min/nx/lib\libnx_min.a(hid.o)
                0x00000000000101e0                hidMouseMultiRead
 .text.hidKeyboardModifierHeld
                0x0000000000010330       0x48 S:/UltimateEnvironment/code-mod-example/param-replace/code-mod-framework/lib/libnx_min/nx/lib\libnx_min.a(hid.o)
                0x0000000000010330                hidKeyboardModifierHeld
 *fill*         0x0000000000010378        0x8 
 .text.hidKeyboardModifierDown
                0x0000000000010380       0x48 S:/UltimateEnvironment/code-mod-example/param-replace/code-mod-framework/lib/libnx_min/nx/lib\libnx_min.a(hid.o)
                0x0000000000010380                hidKeyboardModifierDown
 *fill*         0x00000000000103c8        0x8 
 .text.hidKeyboardModifierUp
                0x00000000000103d0       0x48 S:/UltimateEnvironment/code-mod-example/param-replace/code-mod-framework/lib/libnx_min/nx/lib\libnx_min.a(hid.o)
                0x00000000000103d0                hidKeyboardModifierUp
 *fill*         0x0000000000010418        0x8 
 .text.hidKeyboardHeld
                0x0000000000010420       0x60 S:/UltimateEnvironment/code-mod-example/param-replace/code-mod-framework/lib/libnx_min/nx/lib\libnx_min.a(hid.o)
                0x0000000000010420                hidKeyboardHeld
 .text.hidKeyboardDown
                0x0000000000010480       0x60 S:/UltimateEnvironment/code-mod-example/param-replace/code-mod-framework/lib/libnx_min/nx/lib\libnx_min.a(hid.o)
                0x0000000000010480                hidKeyboardDown
 .text.hidKeyboardUp
                0x00000000000104e0       0x60 S:/UltimateEnvironment/code-mod-example/param-replace/code-mod-framework/lib/libnx_min/nx/lib\libnx_min.a(hid.o)
                0x00000000000104e0                hidKeyboardUp
 .text.hidTouchCount
                0x0000000000010540        0xc S:/UltimateEnvironment/code-mod-example/param-replace/code-mod-framework/lib/libnx_min/nx/lib\libnx_min.a(hid.o)
                0x0000000000010540                hidTouchCount
 *fill*         0x000000000001054c        0x4 
 .text.hidScanInput
                0x0000000000010550      0x598 S:/UltimateEnvironment/code-mod-example/param-replace/code-mod-framework/lib/libnx_min/nx/lib\libnx_min.a(hid.o)
                0x0000000000010550                hidScanInput
 *fill*         0x0000000000010ae8        0x8 
 .text.hidTouchRead
                0x0000000000010af0       0x54 S:/UltimateEnvironment/code-mod-example/param-replace/code-mod-framework/lib/libnx_min/nx/lib\libnx_min.a(hid.o)
                0x0000000000010af0                hidTouchRead
 *fill*         0x0000000000010b44        0xc 
 .text.hidJoystickRead
                0x0000000000010b50       0xac S:/UltimateEnvironment/code-mod-example/param-replace/code-mod-framework/lib/libnx_min/nx/lib\libnx_min.a(hid.o)
                0x0000000000010b50                hidJoystickRead
 *fill*         0x0000000000010bfc        0x4 
 .text.hidSixAxisSensorValuesRead
                0x0000000000010c00      0x214 S:/UltimateEnvironment/code-mod-example/param-replace/code-mod-framework/lib/libnx_min/nx/lib\libnx_min.a(hid.o)
                0x0000000000010c00                hidSixAxisSensorValuesRead
 *fill*         0x0000000000010e14        0xc 
 .text.hidGetHandheldMode
                0x0000000000010e20       0x14 S:/UltimateEnvironment/code-mod-example/param-replace/code-mod-framework/lib/libnx_min/nx/lib\libnx_min.a(hid.o)
                0x0000000000010e20                hidGetHandheldMode
 *fill*         0x0000000000010e34        0xc 
 .text.hidSetSupportedNpadIdType
                0x0000000000010e40      0x198 S:/UltimateEnvironment/code-mod-example/param-replace/code-mod-framework/lib/libnx_min/nx/lib\libnx_min.a(hid.o)
                0x0000000000010e40                hidSetSupportedNpadIdType
 *fill*         0x0000000000010fd8        0x8 
 .text.hidSetSupportedNpadStyleSet
                0x0000000000010fe0        0xc S:/UltimateEnvironment/code-mod-example/param-replace/code-mod-framework/lib/libnx_min/nx/lib\libnx_min.a(hid.o)
                0x0000000000010fe0                hidSetSupportedNpadStyleSet
 *fill*         0x0000000000010fec        0x4 
 .text.hidAcquireNpadStyleSetUpdateEventHandle
                0x0000000000010ff0      0x194 S:/UltimateEnvironment/code-mod-example/param-replace/code-mod-framework/lib/libnx_min/nx/lib\libnx_min.a(hid.o)
                0x0000000000010ff0                hidAcquireNpadStyleSetUpdateEventHandle
 *fill*         0x0000000000011184        0xc 
 .text.hidSetNpadJoyHoldType
                0x0000000000011190        0x8 S:/UltimateEnvironment/code-mod-example/param-replace/code-mod-framework/lib/libnx_min/nx/lib\libnx_min.a(hid.o)
                0x0000000000011190                hidSetNpadJoyHoldType
 *fill*         0x0000000000011198        0x8 
 .text.hidSetNpadJoyAssignmentModeSingleByDefault
                0x00000000000111a0        0xc S:/UltimateEnvironment/code-mod-example/param-replace/code-mod-framework/lib/libnx_min/nx/lib\libnx_min.a(hid.o)
                0x00000000000111a0                hidSetNpadJoyAssignmentModeSingleByDefault
 *fill*         0x00000000000111ac        0x4 
 .text.hidSetNpadJoyAssignmentModeDual
                0x00000000000111b0        0xc S:/UltimateEnvironment/code-mod-example/param-replace/code-mod-framework/lib/libnx_min/nx/lib\libnx_min.a(hid.o)
                0x00000000000111b0                hidSetNpadJoyAssignmentModeDual
 *fill*         0x00000000000111bc        0x4 
 .text.hidMergeSingleJoyAsDualJoy
                0x00000000000111c0      0x110 S:/UltimateEnvironment/code-mod-example/param-replace/code-mod-framework/lib/libnx_min/nx/lib\libnx_min.a(hid.o)
                0x00000000000111c0                hidMergeSingleJoyAsDualJoy
 .text.hidGetVibrationDeviceInfo
                0x00000000000112d0       0xf8 S:/UltimateEnvironment/code-mod-example/param-replace/code-mod-framework/lib/libnx_min/nx/lib\libnx_min.a(hid.o)
                0x00000000000112d0                hidGetVibrationDeviceInfo
 *fill*         0x00000000000113c8        0x8 
 .text.hidSendVibrationValue
                0x00000000000113d0      0x120 S:/UltimateEnvironment/code-mod-example/param-replace/code-mod-framework/lib/libnx_min/nx/lib\libnx_min.a(hid.o)
                0x00000000000113d0                hidSendVibrationValue
 .text.hidGetActualVibrationValue
                0x00000000000114f0      0x128 S:/UltimateEnvironment/code-mod-example/param-replace/code-mod-framework/lib/libnx_min/nx/lib\libnx_min.a(hid.o)
                0x00000000000114f0                hidGetActualVibrationValue
 *fill*         0x0000000000011618        0x8 
 .text.hidPermitVibration
                0x0000000000011620       0xd0 S:/UltimateEnvironment/code-mod-example/param-replace/code-mod-framework/lib/libnx_min/nx/lib\libnx_min.a(hid.o)
                0x0000000000011620                hidPermitVibration
 .text.hidIsVibrationPermitted
                0x00000000000116f0       0xf4 S:/UltimateEnvironment/code-mod-example/param-replace/code-mod-framework/lib/libnx_min/nx/lib\libnx_min.a(hid.o)
                0x00000000000116f0                hidIsVibrationPermitted
 *fill*         0x00000000000117e4        0xc 
 .text.hidSendVibrationValues
                0x00000000000117f0      0x144 S:/UltimateEnvironment/code-mod-example/param-replace/code-mod-framework/lib/libnx_min/nx/lib\libnx_min.a(hid.o)
                0x00000000000117f0                hidSendVibrationValues
 *fill*         0x0000000000011934        0xc 
 .text.hidInitializeVibrationDevices
                0x0000000000011940      0x114 S:/UltimateEnvironment/code-mod-example/param-replace/code-mod-framework/lib/libnx_min/nx/lib\libnx_min.a(hid.o)
                0x0000000000011940                hidInitializeVibrationDevices
 *fill*         0x0000000000011a54        0xc 
 .text.hidGetSixAxisSensorHandles
                0x0000000000011a60       0x2c S:/UltimateEnvironment/code-mod-example/param-replace/code-mod-framework/lib/libnx_min/nx/lib\libnx_min.a(hid.o)
                0x0000000000011a60                hidGetSixAxisSensorHandles
 *fill*         0x0000000000011a8c        0x4 
 .text.hidStartSixAxisSensor
                0x0000000000011a90       0x84 S:/UltimateEnvironment/code-mod-example/param-replace/code-mod-framework/lib/libnx_min/nx/lib\libnx_min.a(hid.o)
                0x0000000000011a90                hidStartSixAxisSensor
 *fill*         0x0000000000011b14        0xc 
 .text.hidStopSixAxisSensor
                0x0000000000011b20       0x80 S:/UltimateEnvironment/code-mod-example/param-replace/code-mod-framework/lib/libnx_min/nx/lib\libnx_min.a(hid.o)
                0x0000000000011b20                hidStopSixAxisSensor
 .text.hidStartSevenSixAxisSensor
                0x0000000000011ba0       0x30 S:/UltimateEnvironment/code-mod-example/param-replace/code-mod-framework/lib/libnx_min/nx/lib\libnx_min.a(hid.o)
                0x0000000000011ba0                hidStartSevenSixAxisSensor
 .text.hidStopSevenSixAxisSensor
                0x0000000000011bd0       0x30 S:/UltimateEnvironment/code-mod-example/param-replace/code-mod-framework/lib/libnx_min/nx/lib\libnx_min.a(hid.o)
                0x0000000000011bd0                hidStopSevenSixAxisSensor
 .text.hidFinalizeSevenSixAxisSensor
                0x0000000000011c00       0x80 S:/UltimateEnvironment/code-mod-example/param-replace/code-mod-framework/lib/libnx_min/nx/lib\libnx_min.a(hid.o)
                0x0000000000011c00                hidFinalizeSevenSixAxisSensor
 .text.hidExit  0x0000000000011c80      0x134 S:/UltimateEnvironment/code-mod-example/param-replace/code-mod-framework/lib/libnx_min/nx/lib\libnx_min.a(hid.o)
                0x0000000000011c80                hidExit
 *fill*         0x0000000000011db4        0xc 
 .text.hidInitialize
                0x0000000000011dc0      0x168 S:/UltimateEnvironment/code-mod-example/param-replace/code-mod-framework/lib/libnx_min/nx/lib\libnx_min.a(hid.o)
                0x0000000000011dc0                hidInitialize
 *fill*         0x0000000000011f28        0x8 
 .text.hidInitializeSevenSixAxisSensor
                0x0000000000011f30      0x130 S:/UltimateEnvironment/code-mod-example/param-replace/code-mod-framework/lib/libnx_min/nx/lib\libnx_min.a(hid.o)
                0x0000000000011f30                hidInitializeSevenSixAxisSensor
 .text.hidSetSevenSixAxisSensorFusionStrength
                0x0000000000012060      0x1f8 S:/UltimateEnvironment/code-mod-example/param-replace/code-mod-framework/lib/libnx_min/nx/lib\libnx_min.a(hid.o)
                0x0000000000012060                hidSetSevenSixAxisSensorFusionStrength
 *fill*         0x0000000000012258        0x8 
 .text.hidGetSevenSixAxisSensorFusionStrength
                0x0000000000012260      0x1fc S:/UltimateEnvironment/code-mod-example/param-replace/code-mod-framework/lib/libnx_min/nx/lib\libnx_min.a(hid.o)
                0x0000000000012260                hidGetSevenSixAxisSensorFusionStrength
 *fill*         0x000000000001245c        0x4 
 .text.hidResetSevenSixAxisSensorTimestamp
                0x0000000000012460       0x30 S:/UltimateEnvironment/code-mod-example/param-replace/code-mod-framework/lib/libnx_min/nx/lib\libnx_min.a(hid.o)
                0x0000000000012460                hidResetSevenSixAxisSensorTimestamp
 .text.ipcCloseObjectById
                0x0000000000012490       0x34 S:/UltimateEnvironment/code-mod-example/param-replace/code-mod-framework/lib/libnx_min/nx/lib\libnx_min.a(time.o)
 *fill*         0x00000000000124c4        0xc 
 .text._timeGetSession
                0x00000000000124d0      0x12c S:/UltimateEnvironment/code-mod-example/param-replace/code-mod-framework/lib/libnx_min/nx/lib\libnx_min.a(time.o)
 *fill*         0x00000000000125fc        0x4 
 .text.timeExit
                0x0000000000012600      0x1ec S:/UltimateEnvironment/code-mod-example/param-replace/code-mod-framework/lib/libnx_min/nx/lib\libnx_min.a(time.o)
                0x0000000000012600                timeExit
 *fill*         0x00000000000127ec        0x4 
 .text.timeInitialize
                0x00000000000127f0       0xd8 S:/UltimateEnvironment/code-mod-example/param-replace/code-mod-framework/lib/libnx_min/nx/lib\libnx_min.a(time.o)
                0x00000000000127f0                timeInitialize
 *fill*         0x00000000000128c8        0x8 
 .text.timeGetSessionService
                0x00000000000128d0        0xc S:/UltimateEnvironment/code-mod-example/param-replace/code-mod-framework/lib/libnx_min/nx/lib\libnx_min.a(time.o)
                0x00000000000128d0                timeGetSessionService
 *fill*         0x00000000000128dc        0x4 
 .text.timeGetCurrentTime
                0x00000000000128e0      0x124 S:/UltimateEnvironment/code-mod-example/param-replace/code-mod-framework/lib/libnx_min/nx/lib\libnx_min.a(time.o)
                0x00000000000128e0                timeGetCurrentTime
 *fill*         0x0000000000012a04        0xc 
 .text.timeSetCurrentTime
                0x0000000000012a10      0x104 S:/UltimateEnvironment/code-mod-example/param-replace/code-mod-framework/lib/libnx_min/nx/lib\libnx_min.a(time.o)
                0x0000000000012a10                timeSetCurrentTime
 *fill*         0x0000000000012b14        0xc 
 .text.timeToCalendarTimeWithMyRule
                0x0000000000012b20      0x118 S:/UltimateEnvironment/code-mod-example/param-replace/code-mod-framework/lib/libnx_min/nx/lib\libnx_min.a(time.o)
                0x0000000000012b20                timeToCalendarTimeWithMyRule
 *fill*         0x0000000000012c38        0x8 
 .text.ipcPrepareHeader
                0x0000000000012c40      0x220 S:/UltimateEnvironment/code-mod-example/param-replace/code-mod-framework/lib/libnx_min/nx/lib\libnx_min.a(applet.o)
 .text.ipcParse
                0x0000000000012e60      0x22c S:/UltimateEnvironment/code-mod-example/param-replace/code-mod-framework/lib/libnx_min/nx/lib\libnx_min.a(applet.o)
 *fill*         0x000000000001308c        0x4 
 .text.serviceIpcParse
                0x0000000000013090       0xb0 S:/UltimateEnvironment/code-mod-example/param-replace/code-mod-framework/lib/libnx_min/nx/lib\libnx_min.a(applet.o)
 .text.ipcConvertSessionToDomain
                0x0000000000013140       0x78 S:/UltimateEnvironment/code-mod-example/param-replace/code-mod-framework/lib/libnx_min/nx/lib\libnx_min.a(applet.o)
 *fill*         0x00000000000131b8        0x8 
 .text.ipcQueryPointerBufferSize
                0x00000000000131c0       0x7c S:/UltimateEnvironment/code-mod-example/param-replace/code-mod-framework/lib/libnx_min/nx/lib\libnx_min.a(applet.o)
 *fill*         0x000000000001323c        0x4 
 .text.ipcCloneSession.constprop.52
                0x0000000000013240       0x84 S:/UltimateEnvironment/code-mod-example/param-replace/code-mod-framework/lib/libnx_min/nx/lib\libnx_min.a(applet.o)
 *fill*         0x00000000000132c4        0xc 
 .text.ipcCloseObjectById
                0x00000000000132d0       0x34 S:/UltimateEnvironment/code-mod-example/param-replace/code-mod-framework/lib/libnx_min/nx/lib\libnx_min.a(applet.o)
 *fill*         0x0000000000013304        0xc 
 .text.serviceClose
                0x0000000000013310       0x6c S:/UltimateEnvironment/code-mod-example/param-replace/code-mod-framework/lib/libnx_min/nx/lib\libnx_min.a(applet.o)
 *fill*         0x000000000001337c        0x4 
 .text._appletCmdInHandle64
                0x0000000000013380      0x204 S:/UltimateEnvironment/code-mod-example/param-replace/code-mod-framework/lib/libnx_min/nx/lib\libnx_min.a(applet.o)
 *fill*         0x0000000000013584        0xc 
 .text._appletReceiveMessage
                0x0000000000013590      0x19c S:/UltimateEnvironment/code-mod-example/param-replace/code-mod-framework/lib/libnx_min/nx/lib\libnx_min.a(applet.o)
 *fill*         0x000000000001372c        0x4 
 .text._appletCmdNoIO
                0x0000000000013730      0x164 S:/UltimateEnvironment/code-mod-example/param-replace/code-mod-framework/lib/libnx_min/nx/lib\libnx_min.a(applet.o)
 *fill*         0x0000000000013894        0xc 
 .text._appletGetOperationMode.constprop.43
                0x00000000000138a0      0x18c S:/UltimateEnvironment/code-mod-example/param-replace/code-mod-framework/lib/libnx_min/nx/lib\libnx_min.a(applet.o)
 *fill*         0x0000000000013a2c        0x4 
 .text._appletGetCurrentFocusState.constprop.45
                0x0000000000013a30      0x18c S:/UltimateEnvironment/code-mod-example/param-replace/code-mod-framework/lib/libnx_min/nx/lib\libnx_min.a(applet.o)
 *fill*         0x0000000000013bbc        0x4 
 .text._appletGetPerformanceMode.constprop.44
                0x0000000000013bc0      0x18c S:/UltimateEnvironment/code-mod-example/param-replace/code-mod-framework/lib/libnx_min/nx/lib\libnx_min.a(applet.o)
 *fill*         0x0000000000013d4c        0x4 
 .text._appletCmdNoInOutBool
                0x0000000000013d50      0x184 S:/UltimateEnvironment/code-mod-example/param-replace/code-mod-framework/lib/libnx_min/nx/lib\libnx_min.a(applet.o)
 *fill*         0x0000000000013ed4        0xc 
 .text._appletGetSession
                0x0000000000013ee0      0x1d8 S:/UltimateEnvironment/code-mod-example/param-replace/code-mod-framework/lib/libnx_min/nx/lib\libnx_min.a(applet.o)
 *fill*         0x00000000000140b8        0x8 
 .text._appletCmdNoInOut64
                0x00000000000140c0      0x17c S:/UltimateEnvironment/code-mod-example/param-replace/code-mod-framework/lib/libnx_min/nx/lib\libnx_min.a(applet.o)
 *fill*         0x000000000001423c        0x4 
 .text._appletSetOperationModeChangedNotification.constprop.46
                0x0000000000014240      0x164 S:/UltimateEnvironment/code-mod-example/param-replace/code-mod-framework/lib/libnx_min/nx/lib\libnx_min.a(applet.o)
 *fill*         0x00000000000143a4        0xc 
 .text._appletCmdInU8
                0x00000000000143b0      0x17c S:/UltimateEnvironment/code-mod-example/param-replace/code-mod-framework/lib/libnx_min/nx/lib\libnx_min.a(applet.o)
 *fill*         0x000000000001452c        0x4 
 .text._appletSetOutOfFocusSuspendingEnabled
                0x0000000000014530      0x16c S:/UltimateEnvironment/code-mod-example/param-replace/code-mod-framework/lib/libnx_min/nx/lib\libnx_min.a(applet.o)
 *fill*         0x000000000001469c        0x4 
 .text._appletSetPerformanceModeChangedNotification.constprop.47
                0x00000000000146a0      0x164 S:/UltimateEnvironment/code-mod-example/param-replace/code-mod-framework/lib/libnx_min/nx/lib\libnx_min.a(applet.o)
 *fill*         0x0000000000014804        0xc 
 .text._appletCmdInU64.constprop.37
                0x0000000000014810      0x16c S:/UltimateEnvironment/code-mod-example/param-replace/code-mod-framework/lib/libnx_min/nx/lib\libnx_min.a(applet.o)
 *fill*         0x000000000001497c        0x4 
 .text._appletCmdInU32.constprop.48
                0x0000000000014980      0x16c S:/UltimateEnvironment/code-mod-example/param-replace/code-mod-framework/lib/libnx_min/nx/lib\libnx_min.a(applet.o)
 *fill*         0x0000000000014aec        0x4 
 .text._appletSetFocusHandlingMode
                0x0000000000014af0      0x17c S:/UltimateEnvironment/code-mod-example/param-replace/code-mod-framework/lib/libnx_min/nx/lib\libnx_min.a(applet.o)
 *fill*         0x0000000000014c6c        0x4 
 .text._appletGetHandle.constprop.42
                0x0000000000014c70      0x178 S:/UltimateEnvironment/code-mod-example/param-replace/code-mod-framework/lib/libnx_min/nx/lib\libnx_min.a(applet.o)
 *fill*         0x0000000000014de8        0x8 
 .text._appletGetEvent.constprop.41
                0x0000000000014df0       0x54 S:/UltimateEnvironment/code-mod-example/param-replace/code-mod-framework/lib/libnx_min/nx/lib\libnx_min.a(applet.o)
 *fill*         0x0000000000014e44        0xc 
 .text._appletWaitLibraryAppletLaunchableEvent
                0x0000000000014e50       0x50 S:/UltimateEnvironment/code-mod-example/param-replace/code-mod-framework/lib/libnx_min/nx/lib\libnx_min.a(applet.o)
 .text._appletCreateApplicationAndRequestToStartForQuest.isra.20
                0x0000000000014ea0      0x17c S:/UltimateEnvironment/code-mod-example/param-replace/code-mod-framework/lib/libnx_min/nx/lib\libnx_min.a(applet.o)
 *fill*         0x000000000001501c        0x4 
 .text._appletCreateApplicationAndPushAndRequestToStart
                0x0000000000015020      0x1e0 S:/UltimateEnvironment/code-mod-example/param-replace/code-mod-framework/lib/libnx_min/nx/lib\libnx_min.a(applet.o)
 .text._appletCmdNoInOut32.constprop.38
                0x0000000000015200      0x194 S:/UltimateEnvironment/code-mod-example/param-replace/code-mod-framework/lib/libnx_min/nx/lib\libnx_min.a(applet.o)
 *fill*         0x0000000000015394        0xc 
 .text._appletCmdInSession
                0x00000000000153a0      0x1d8 S:/UltimateEnvironment/code-mod-example/param-replace/code-mod-framework/lib/libnx_min/nx/lib\libnx_min.a(applet.o)
 *fill*         0x0000000000015578        0x8 
 .text._appletStorageGetHandle
                0x0000000000015580      0x19c S:/UltimateEnvironment/code-mod-example/param-replace/code-mod-framework/lib/libnx_min/nx/lib\libnx_min.a(applet.o)
 *fill*         0x000000000001571c        0x4 
 .text._appletCreateApplicationAndPushAndRequestToStartForQuest.isra.21
                0x0000000000015720      0x1e8 S:/UltimateEnvironment/code-mod-example/param-replace/code-mod-framework/lib/libnx_min/nx/lib\libnx_min.a(applet.o)
 *fill*         0x0000000000015908        0x8 
 .text._appletCreateTransferMemoryStorage.isra.25
                0x0000000000015910      0x1e4 S:/UltimateEnvironment/code-mod-example/param-replace/code-mod-framework/lib/libnx_min/nx/lib\libnx_min.a(applet.o)
 *fill*         0x0000000000015af4        0xc 
 .text._appletGetSessionIn64.constprop.39
                0x0000000000015b00      0x1c4 S:/UltimateEnvironment/code-mod-example/param-replace/code-mod-framework/lib/libnx_min/nx/lib\libnx_min.a(applet.o)
 *fill*         0x0000000000015cc4        0xc 
 .text._appletStorageAccessorRW
                0x0000000000015cd0      0x314 S:/UltimateEnvironment/code-mod-example/param-replace/code-mod-framework/lib/libnx_min/nx/lib\libnx_min.a(applet.o)
 *fill*         0x0000000000015fe4        0xc 
 .text._appletStorageRW
                0x0000000000015ff0      0x108 S:/UltimateEnvironment/code-mod-example/param-replace/code-mod-framework/lib/libnx_min/nx/lib\libnx_min.a(applet.o)
 *fill*         0x00000000000160f8        0x8 
 .text._appletCreateLibraryApplet
                0x0000000000016100      0x1c4 S:/UltimateEnvironment/code-mod-example/param-replace/code-mod-framework/lib/libnx_min/nx/lib\libnx_min.a(applet.o)
 *fill*         0x00000000000162c4        0xc 
 .text._appletGetSessionProxy.constprop.40
                0x00000000000162d0      0x1f0 S:/UltimateEnvironment/code-mod-example/param-replace/code-mod-framework/lib/libnx_min/nx/lib\libnx_min.a(applet.o)
 .text.appletGetAppletType
                0x00000000000164c0       0x10 S:/UltimateEnvironment/code-mod-example/param-replace/code-mod-framework/lib/libnx_min/nx/lib\libnx_min.a(applet.o)
                0x00000000000164c0                appletGetAppletType
 .text.appletHook
                0x00000000000164d0       0x28 S:/UltimateEnvironment/code-mod-example/param-replace/code-mod-framework/lib/libnx_min/nx/lib\libnx_min.a(applet.o)
                0x00000000000164d0                appletHook
 *fill*         0x00000000000164f8        0x8 
 .text.appletUnhook
                0x0000000000016500       0x34 S:/UltimateEnvironment/code-mod-example/param-replace/code-mod-framework/lib/libnx_min/nx/lib\libnx_min.a(applet.o)
                0x0000000000016500                appletUnhook
 *fill*         0x0000000000016534        0xc 
 .text.appletSetThemeColorType
                0x0000000000016540        0xc S:/UltimateEnvironment/code-mod-example/param-replace/code-mod-framework/lib/libnx_min/nx/lib\libnx_min.a(applet.o)
                0x0000000000016540                appletSetThemeColorType
 *fill*         0x000000000001654c        0x4 
 .text.appletGetThemeColorType
                0x0000000000016550        0xc S:/UltimateEnvironment/code-mod-example/param-replace/code-mod-framework/lib/libnx_min/nx/lib\libnx_min.a(applet.o)
                0x0000000000016550                appletGetThemeColorType
 *fill*         0x000000000001655c        0x4 
 .text.appletSetFocusHandlingMode
                0x0000000000016560       0xf0 S:/UltimateEnvironment/code-mod-example/param-replace/code-mod-framework/lib/libnx_min/nx/lib\libnx_min.a(applet.o)
                0x0000000000016560                appletSetFocusHandlingMode
 .text.appletGetAppletResourceUserId
                0x0000000000016650       0x28 S:/UltimateEnvironment/code-mod-example/param-replace/code-mod-framework/lib/libnx_min/nx/lib\libnx_min.a(applet.o)
                0x0000000000016650                appletGetAppletResourceUserId
 *fill*         0x0000000000016678        0x8 
 .text._appletGetIndirectLayerConsumerHandle
                0x0000000000016680      0x12c S:/UltimateEnvironment/code-mod-example/param-replace/code-mod-framework/lib/libnx_min/nx/lib\libnx_min.a(applet.o)
 *fill*         0x00000000000167ac        0x4 
 .text._appletHolderCreate
                0x00000000000167b0       0xc0 S:/UltimateEnvironment/code-mod-example/param-replace/code-mod-framework/lib/libnx_min/nx/lib\libnx_min.a(applet.o)
 .text.appletPopLaunchParameter
                0x0000000000016870      0x194 S:/UltimateEnvironment/code-mod-example/param-replace/code-mod-framework/lib/libnx_min/nx/lib\libnx_min.a(applet.o)
                0x0000000000016870                appletPopLaunchParameter
 *fill*         0x0000000000016a04        0xc 
 .text.appletGetDesiredLanguage
                0x0000000000016a10       0x3c S:/UltimateEnvironment/code-mod-example/param-replace/code-mod-framework/lib/libnx_min/nx/lib\libnx_min.a(applet.o)
                0x0000000000016a10                appletGetDesiredLanguage
 *fill*         0x0000000000016a4c        0x4 
 .text.appletSetTerminateResult
                0x0000000000016a50      0x14c S:/UltimateEnvironment/code-mod-example/param-replace/code-mod-framework/lib/libnx_min/nx/lib\libnx_min.a(applet.o)
                0x0000000000016a50                appletSetTerminateResult
 *fill*         0x0000000000016b9c        0x4 
 .text.appletSetMediaPlaybackState
                0x0000000000016ba0       0x4c S:/UltimateEnvironment/code-mod-example/param-replace/code-mod-framework/lib/libnx_min/nx/lib\libnx_min.a(applet.o)
                0x0000000000016ba0                appletSetMediaPlaybackState
 *fill*         0x0000000000016bec        0x4 
 .text.appletBeginBlockingHomeButton
                0x0000000000016bf0      0x14c S:/UltimateEnvironment/code-mod-example/param-replace/code-mod-framework/lib/libnx_min/nx/lib\libnx_min.a(applet.o)
                0x0000000000016bf0                appletBeginBlockingHomeButton
 *fill*         0x0000000000016d3c        0x4 
 .text.appletEndBlockingHomeButton
                0x0000000000016d40       0x38 S:/UltimateEnvironment/code-mod-example/param-replace/code-mod-framework/lib/libnx_min/nx/lib\libnx_min.a(applet.o)
                0x0000000000016d40                appletEndBlockingHomeButton
 *fill*         0x0000000000016d78        0x8 
 .text.appletNotifyRunning
                0x0000000000016d80      0x174 S:/UltimateEnvironment/code-mod-example/param-replace/code-mod-framework/lib/libnx_min/nx/lib\libnx_min.a(applet.o)
                0x0000000000016d80                appletNotifyRunning
 *fill*         0x0000000000016ef4        0xc 
 .text.appletIsGamePlayRecordingSupported
                0x0000000000016f00      0x168 S:/UltimateEnvironment/code-mod-example/param-replace/code-mod-framework/lib/libnx_min/nx/lib\libnx_min.a(applet.o)
                0x0000000000016f00                appletIsGamePlayRecordingSupported
 *fill*         0x0000000000017068        0x8 
 .text.appletSetGamePlayRecordingState
                0x0000000000017070      0x158 S:/UltimateEnvironment/code-mod-example/param-replace/code-mod-framework/lib/libnx_min/nx/lib\libnx_min.a(applet.o)
                0x0000000000017070                appletSetGamePlayRecordingState
 *fill*         0x00000000000171c8        0x8 
 .text.appletInitializeGamePlayRecording
                0x00000000000171d0      0x138 S:/UltimateEnvironment/code-mod-example/param-replace/code-mod-framework/lib/libnx_min/nx/lib\libnx_min.a(applet.o)
                0x00000000000171d0                appletInitializeGamePlayRecording
 *fill*         0x0000000000017308        0x8 
 .text.appletQueryApplicationPlayStatistics
                0x0000000000017310      0x1c0 S:/UltimateEnvironment/code-mod-example/param-replace/code-mod-framework/lib/libnx_min/nx/lib\libnx_min.a(applet.o)
                0x0000000000017310                appletQueryApplicationPlayStatistics
 .text.appletBeginToWatchShortHomeButtonMessage
                0x00000000000174d0       0x2c S:/UltimateEnvironment/code-mod-example/param-replace/code-mod-framework/lib/libnx_min/nx/lib\libnx_min.a(applet.o)
                0x00000000000174d0                appletBeginToWatchShortHomeButtonMessage
 *fill*         0x00000000000174fc        0x4 
 .text.appletEndToWatchShortHomeButtonMessage
                0x0000000000017500       0x2c S:/UltimateEnvironment/code-mod-example/param-replace/code-mod-framework/lib/libnx_min/nx/lib\libnx_min.a(applet.o)
                0x0000000000017500                appletEndToWatchShortHomeButtonMessage
 *fill*         0x000000000001752c        0x4 
 .text.appletHomeButtonReaderLockAccessorGetEvent
                0x0000000000017530       0xc8 S:/UltimateEnvironment/code-mod-example/param-replace/code-mod-framework/lib/libnx_min/nx/lib\libnx_min.a(applet.o)
                0x0000000000017530                appletHomeButtonReaderLockAccessorGetEvent
 *fill*         0x00000000000175f8        0x8 
 .text.appletIsVrModeEnabled
                0x0000000000017600       0x4c S:/UltimateEnvironment/code-mod-example/param-replace/code-mod-framework/lib/libnx_min/nx/lib\libnx_min.a(applet.o)
                0x0000000000017600                appletIsVrModeEnabled
 *fill*         0x000000000001764c        0x4 
 .text.appletSetVrModeEnabled
                0x0000000000017650       0x78 S:/UltimateEnvironment/code-mod-example/param-replace/code-mod-framework/lib/libnx_min/nx/lib\libnx_min.a(applet.o)
                0x0000000000017650                appletSetVrModeEnabled
 *fill*         0x00000000000176c8        0x8 
 .text.appletSetCpuBoostMode
                0x00000000000176d0       0x50 S:/UltimateEnvironment/code-mod-example/param-replace/code-mod-framework/lib/libnx_min/nx/lib\libnx_min.a(applet.o)
                0x00000000000176d0                appletSetCpuBoostMode
 .text.appletExit
                0x0000000000017720      0x5dc S:/UltimateEnvironment/code-mod-example/param-replace/code-mod-framework/lib/libnx_min/nx/lib\libnx_min.a(applet.o)
                0x0000000000017720                appletExit
 *fill*         0x0000000000017cfc        0x4 
 .text.appletInitialize
                0x0000000000017d00      0x4f0 S:/UltimateEnvironment/code-mod-example/param-replace/code-mod-framework/lib/libnx_min/nx/lib\libnx_min.a(applet.o)
                0x0000000000017d00                appletInitialize
 .text._appletExitProcess
                0x00000000000181f0       0x10 S:/UltimateEnvironment/code-mod-example/param-replace/code-mod-framework/lib/libnx_min/nx/lib\libnx_min.a(applet.o)
 .text.appletGetCurrentPerformanceConfiguration
                0x0000000000018200       0x40 S:/UltimateEnvironment/code-mod-example/param-replace/code-mod-framework/lib/libnx_min/nx/lib\libnx_min.a(applet.o)
                0x0000000000018200                appletGetCurrentPerformanceConfiguration
 .text.appletLockExit
                0x0000000000018240       0x10 S:/UltimateEnvironment/code-mod-example/param-replace/code-mod-framework/lib/libnx_min/nx/lib\libnx_min.a(applet.o)
                0x0000000000018240                appletLockExit
 .text.appletUnlockExit
                0x0000000000018250       0x10 S:/UltimateEnvironment/code-mod-example/param-replace/code-mod-framework/lib/libnx_min/nx/lib\libnx_min.a(applet.o)
                0x0000000000018250                appletUnlockExit
 .text.appletSetScreenShotPermission
                0x0000000000018260      0x16c S:/UltimateEnvironment/code-mod-example/param-replace/code-mod-framework/lib/libnx_min/nx/lib\libnx_min.a(applet.o)
                0x0000000000018260                appletSetScreenShotPermission
 *fill*         0x00000000000183cc        0x4 
 .text.appletSetScreenShotImageOrientation
                0x00000000000183d0      0x1c4 S:/UltimateEnvironment/code-mod-example/param-replace/code-mod-framework/lib/libnx_min/nx/lib\libnx_min.a(applet.o)
                0x00000000000183d0                appletSetScreenShotImageOrientation
 *fill*         0x0000000000018594        0xc 
 .text.appletCreateManagedDisplayLayer
                0x00000000000185a0       0x14 S:/UltimateEnvironment/code-mod-example/param-replace/code-mod-framework/lib/libnx_min/nx/lib\libnx_min.a(applet.o)
                0x00000000000185a0                appletCreateManagedDisplayLayer
 *fill*         0x00000000000185b4        0xc 
 .text.appletGetCurrentIlluminance
                0x00000000000185c0      0x168 S:/UltimateEnvironment/code-mod-example/param-replace/code-mod-framework/lib/libnx_min/nx/lib\libnx_min.a(applet.o)
                0x00000000000185c0                appletGetCurrentIlluminance
 *fill*         0x0000000000018728        0x8 
 .text.appletIsIlluminanceAvailable
                0x0000000000018730       0x4c S:/UltimateEnvironment/code-mod-example/param-replace/code-mod-framework/lib/libnx_min/nx/lib\libnx_min.a(applet.o)
                0x0000000000018730                appletIsIlluminanceAvailable
 *fill*         0x000000000001877c        0x4 
 .text.appletGetCurrentIlluminanceEx
                0x0000000000018780      0x19c S:/UltimateEnvironment/code-mod-example/param-replace/code-mod-framework/lib/libnx_min/nx/lib\libnx_min.a(applet.o)
                0x0000000000018780                appletGetCurrentIlluminanceEx
 *fill*         0x000000000001891c        0x4 
 .text.appletCreateLibraryApplet
                0x0000000000018920        0x8 S:/UltimateEnvironment/code-mod-example/param-replace/code-mod-framework/lib/libnx_min/nx/lib\libnx_min.a(applet.o)
                0x0000000000018920                appletCreateLibraryApplet
 *fill*         0x0000000000018928        0x8 
 .text.appletCreateLibraryAppletSelf
                0x0000000000018930        0x8 S:/UltimateEnvironment/code-mod-example/param-replace/code-mod-framework/lib/libnx_min/nx/lib\libnx_min.a(applet.o)
                0x0000000000018930                appletCreateLibraryAppletSelf
 *fill*         0x0000000000018938        0x8 
 .text.appletHolderClose
                0x0000000000018940       0x94 S:/UltimateEnvironment/code-mod-example/param-replace/code-mod-framework/lib/libnx_min/nx/lib\libnx_min.a(applet.o)
                0x0000000000018940                appletHolderClose
 *fill*         0x00000000000189d4        0xc 
 .text.appletHolderActive
                0x00000000000189e0       0x10 S:/UltimateEnvironment/code-mod-example/param-replace/code-mod-framework/lib/libnx_min/nx/lib\libnx_min.a(applet.o)
                0x00000000000189e0                appletHolderActive
 .text.appletHolderGetIndirectLayerConsumerHandle
                0x00000000000189f0       0x74 S:/UltimateEnvironment/code-mod-example/param-replace/code-mod-framework/lib/libnx_min/nx/lib\libnx_min.a(applet.o)
                0x00000000000189f0                appletHolderGetIndirectLayerConsumerHandle
 *fill*         0x0000000000018a64        0xc 
 .text.appletHolderStart
                0x0000000000018a70       0x50 S:/UltimateEnvironment/code-mod-example/param-replace/code-mod-framework/lib/libnx_min/nx/lib\libnx_min.a(applet.o)
                0x0000000000018a70                appletHolderStart
 .text.appletHolderJoin
                0x0000000000018ac0       0x80 S:/UltimateEnvironment/code-mod-example/param-replace/code-mod-framework/lib/libnx_min/nx/lib\libnx_min.a(applet.o)
                0x0000000000018ac0                appletHolderJoin
 .text.appletHolderCheckFinished
                0x0000000000018b40       0x24 S:/UltimateEnvironment/code-mod-example/param-replace/code-mod-framework/lib/libnx_min/nx/lib\libnx_min.a(applet.o)
                0x0000000000018b40                appletHolderCheckFinished
 *fill*         0x0000000000018b64        0xc 
 .text.appletHolderRequestExit
                0x0000000000018b70       0x50 S:/UltimateEnvironment/code-mod-example/param-replace/code-mod-framework/lib/libnx_min/nx/lib\libnx_min.a(applet.o)
                0x0000000000018b70                appletHolderRequestExit
 .text.appletHolderGetExitReason
                0x0000000000018bc0        0x8 S:/UltimateEnvironment/code-mod-example/param-replace/code-mod-framework/lib/libnx_min/nx/lib\libnx_min.a(applet.o)
                0x0000000000018bc0                appletHolderGetExitReason
 *fill*         0x0000000000018bc8        0x8 
 .text.appletHolderWaitInteractiveOut
                0x0000000000018bd0       0x88 S:/UltimateEnvironment/code-mod-example/param-replace/code-mod-framework/lib/libnx_min/nx/lib\libnx_min.a(applet.o)
                0x0000000000018bd0                appletHolderWaitInteractiveOut
 *fill*         0x0000000000018c58        0x8 
 .text.appletHolderPopOutData
                0x0000000000018c60       0x18 S:/UltimateEnvironment/code-mod-example/param-replace/code-mod-framework/lib/libnx_min/nx/lib\libnx_min.a(applet.o)
                0x0000000000018c60                appletHolderPopOutData
 *fill*         0x0000000000018c78        0x8 
 .text.appletHolderPopInteractiveOutData
                0x0000000000018c80       0x18 S:/UltimateEnvironment/code-mod-example/param-replace/code-mod-framework/lib/libnx_min/nx/lib\libnx_min.a(applet.o)
                0x0000000000018c80                appletHolderPopInteractiveOutData
 *fill*         0x0000000000018c98        0x8 
 .text.appletCreateStorage
                0x0000000000018ca0       0x14 S:/UltimateEnvironment/code-mod-example/param-replace/code-mod-framework/lib/libnx_min/nx/lib\libnx_min.a(applet.o)
                0x0000000000018ca0                appletCreateStorage
 *fill*         0x0000000000018cb4        0xc 
 .text.appletCreateTransferMemoryStorage
                0x0000000000018cc0       0xa8 S:/UltimateEnvironment/code-mod-example/param-replace/code-mod-framework/lib/libnx_min/nx/lib\libnx_min.a(applet.o)
                0x0000000000018cc0                appletCreateTransferMemoryStorage
 *fill*         0x0000000000018d68        0x8 
 .text.appletCreateHandleStorage
                0x0000000000018d70       0x64 S:/UltimateEnvironment/code-mod-example/param-replace/code-mod-framework/lib/libnx_min/nx/lib\libnx_min.a(applet.o)
                0x0000000000018d70                appletCreateHandleStorage
 *fill*         0x0000000000018dd4        0xc 
 .text.appletCreateHandleStorageTmem
                0x0000000000018de0       0xa0 S:/UltimateEnvironment/code-mod-example/param-replace/code-mod-framework/lib/libnx_min/nx/lib\libnx_min.a(applet.o)
                0x0000000000018de0                appletCreateHandleStorageTmem
 .text.appletStorageClose
                0x0000000000018e80       0x6c S:/UltimateEnvironment/code-mod-example/param-replace/code-mod-framework/lib/libnx_min/nx/lib\libnx_min.a(applet.o)
                0x0000000000018e80                appletStorageClose
 *fill*         0x0000000000018eec        0x4 
 .text.appletRequestLaunchApplication
                0x0000000000018ef0      0x188 S:/UltimateEnvironment/code-mod-example/param-replace/code-mod-framework/lib/libnx_min/nx/lib\libnx_min.a(applet.o)
                0x0000000000018ef0                appletRequestLaunchApplication
 *fill*         0x0000000000019078        0x8 
 .text.appletRequestLaunchApplicationForQuest
                0x0000000000019080      0x168 S:/UltimateEnvironment/code-mod-example/param-replace/code-mod-framework/lib/libnx_min/nx/lib\libnx_min.a(applet.o)
                0x0000000000019080                appletRequestLaunchApplicationForQuest
 *fill*         0x00000000000191e8        0x8 
 .text.appletHolderPushInteractiveInData
                0x00000000000191f0       0x40 S:/UltimateEnvironment/code-mod-example/param-replace/code-mod-framework/lib/libnx_min/nx/lib\libnx_min.a(applet.o)
                0x00000000000191f0                appletHolderPushInteractiveInData
 .text.appletPushToGeneralChannel
                0x0000000000019230       0x4c S:/UltimateEnvironment/code-mod-example/param-replace/code-mod-framework/lib/libnx_min/nx/lib\libnx_min.a(applet.o)
                0x0000000000019230                appletPushToGeneralChannel
 *fill*         0x000000000001927c        0x4 
 .text.appletHolderPushInData
                0x0000000000019280       0x40 S:/UltimateEnvironment/code-mod-example/param-replace/code-mod-framework/lib/libnx_min/nx/lib\libnx_min.a(applet.o)
                0x0000000000019280                appletHolderPushInData
 .text.appletHolderPushExtraStorage
                0x00000000000192c0       0x40 S:/UltimateEnvironment/code-mod-example/param-replace/code-mod-framework/lib/libnx_min/nx/lib\libnx_min.a(applet.o)
                0x00000000000192c0                appletHolderPushExtraStorage
 .text.appletStorageCloseTmem
                0x0000000000019300        0x8 S:/UltimateEnvironment/code-mod-example/param-replace/code-mod-framework/lib/libnx_min/nx/lib\libnx_min.a(applet.o)
                0x0000000000019300                appletStorageCloseTmem
 *fill*         0x0000000000019308        0x8 
 .text.appletStorageGetSize
                0x0000000000019310       0xc4 S:/UltimateEnvironment/code-mod-example/param-replace/code-mod-framework/lib/libnx_min/nx/lib\libnx_min.a(applet.o)
                0x0000000000019310                appletStorageGetSize
 *fill*         0x00000000000193d4        0xc 
 .text.appletStorageWrite
                0x00000000000193e0        0x8 S:/UltimateEnvironment/code-mod-example/param-replace/code-mod-framework/lib/libnx_min/nx/lib\libnx_min.a(applet.o)
                0x00000000000193e0                appletStorageWrite
 *fill*         0x00000000000193e8        0x8 
 .text.appletStorageRead
                0x00000000000193f0        0x8 S:/UltimateEnvironment/code-mod-example/param-replace/code-mod-framework/lib/libnx_min/nx/lib\libnx_min.a(applet.o)
                0x00000000000193f0                appletStorageRead
 *fill*         0x00000000000193f8        0x8 
 .text.appletStorageGetHandle
                0x0000000000019400       0xfc S:/UltimateEnvironment/code-mod-example/param-replace/code-mod-framework/lib/libnx_min/nx/lib\libnx_min.a(applet.o)
                0x0000000000019400                appletStorageGetHandle
 *fill*         0x00000000000194fc        0x4 
 .text.appletStorageMap
                0x0000000000019500       0xcc S:/UltimateEnvironment/code-mod-example/param-replace/code-mod-framework/lib/libnx_min/nx/lib\libnx_min.a(applet.o)
                0x0000000000019500                appletStorageMap
 *fill*         0x00000000000195cc        0x4 
 .text.appletGetOperationMode
                0x00000000000195d0        0xc S:/UltimateEnvironment/code-mod-example/param-replace/code-mod-framework/lib/libnx_min/nx/lib\libnx_min.a(applet.o)
                0x00000000000195d0                appletGetOperationMode
 *fill*         0x00000000000195dc        0x4 
 .text.appletGetPerformanceMode
                0x00000000000195e0        0xc S:/UltimateEnvironment/code-mod-example/param-replace/code-mod-framework/lib/libnx_min/nx/lib\libnx_min.a(applet.o)
                0x00000000000195e0                appletGetPerformanceMode
 *fill*         0x00000000000195ec        0x4 
 .text.appletGetFocusState
                0x00000000000195f0        0xc S:/UltimateEnvironment/code-mod-example/param-replace/code-mod-framework/lib/libnx_min/nx/lib\libnx_min.a(applet.o)
                0x00000000000195f0                appletGetFocusState
 *fill*         0x00000000000195fc        0x4 
 .text.appletGetMessage
                0x0000000000019600       0x5c S:/UltimateEnvironment/code-mod-example/param-replace/code-mod-framework/lib/libnx_min/nx/lib\libnx_min.a(applet.o)
                0x0000000000019600                appletGetMessage
 *fill*         0x000000000001965c        0x4 
 .text.appletProcessMessage
                0x0000000000019660      0x118 S:/UltimateEnvironment/code-mod-example/param-replace/code-mod-framework/lib/libnx_min/nx/lib\libnx_min.a(applet.o)
                0x0000000000019660                appletProcessMessage
 *fill*         0x0000000000019778        0x8 
 .text.appletMainLoop
                0x0000000000019780       0x34 S:/UltimateEnvironment/code-mod-example/param-replace/code-mod-framework/lib/libnx_min/nx/lib\libnx_min.a(applet.o)
                0x0000000000019780                appletMainLoop
 *fill*         0x00000000000197b4        0xc 
 .text.__syscall_exit
                0x00000000000197c0       0x1c S:/UltimateEnvironment/code-mod-example/param-replace/code-mod-framework/lib/libnx_min/nx/lib\libnx_min.a(newlib.o)
                0x00000000000197c0                __syscall_exit
 *fill*         0x00000000000197dc        0x4 
 .text.__syscall_getreent
                0x00000000000197e0       0x10 S:/UltimateEnvironment/code-mod-example/param-replace/code-mod-framework/lib/libnx_min/nx/lib\libnx_min.a(newlib.o)
                0x00000000000197e0                __syscall_getreent
 .text.__syscall_lock_acquire
                0x00000000000197f0        0x4 S:/UltimateEnvironment/code-mod-example/param-replace/code-mod-framework/lib/libnx_min/nx/lib\libnx_min.a(newlib.o)
                0x00000000000197f0                __syscall_lock_acquire
 *fill*         0x00000000000197f4        0xc 
 .text.__syscall_lock_try_acquire
                0x0000000000019800       0x1c S:/UltimateEnvironment/code-mod-example/param-replace/code-mod-framework/lib/libnx_min/nx/lib\libnx_min.a(newlib.o)
                0x0000000000019800                __syscall_lock_try_acquire
 *fill*         0x000000000001981c        0x4 
 .text.__syscall_lock_release
                0x0000000000019820        0x4 S:/UltimateEnvironment/code-mod-example/param-replace/code-mod-framework/lib/libnx_min/nx/lib\libnx_min.a(newlib.o)
                0x0000000000019820                __syscall_lock_release
 *fill*         0x0000000000019824        0xc 
 .text.__syscall_lock_acquire_recursive
                0x0000000000019830        0x4 S:/UltimateEnvironment/code-mod-example/param-replace/code-mod-framework/lib/libnx_min/nx/lib\libnx_min.a(newlib.o)
                0x0000000000019830                __syscall_lock_acquire_recursive
 *fill*         0x0000000000019834        0xc 
 .text.__syscall_lock_try_acquire_recursive
                0x0000000000019840       0x1c S:/UltimateEnvironment/code-mod-example/param-replace/code-mod-framework/lib/libnx_min/nx/lib\libnx_min.a(newlib.o)
                0x0000000000019840                __syscall_lock_try_acquire_recursive
 *fill*         0x000000000001985c        0x4 
 .text.__syscall_lock_release_recursive
                0x0000000000019860        0x4 S:/UltimateEnvironment/code-mod-example/param-replace/code-mod-framework/lib/libnx_min/nx/lib\libnx_min.a(newlib.o)
                0x0000000000019860                __syscall_lock_release_recursive
 *fill*         0x0000000000019864        0xc 
 .text.__syscall_cond_signal
                0x0000000000019870       0x40 S:/UltimateEnvironment/code-mod-example/param-replace/code-mod-framework/lib/libnx_min/nx/lib\libnx_min.a(newlib.o)
                0x0000000000019870                __syscall_cond_signal
 .text.__syscall_cond_broadcast
                0x00000000000198b0       0x40 S:/UltimateEnvironment/code-mod-example/param-replace/code-mod-framework/lib/libnx_min/nx/lib\libnx_min.a(newlib.o)
                0x00000000000198b0                __syscall_cond_broadcast
 .text.__syscall_cond_wait
                0x00000000000198f0       0x3c S:/UltimateEnvironment/code-mod-example/param-replace/code-mod-framework/lib/libnx_min/nx/lib\libnx_min.a(newlib.o)
                0x00000000000198f0                __syscall_cond_wait
 *fill*         0x000000000001992c        0x4 
 .text.__syscall_cond_wait_recursive
                0x0000000000019930       0x64 S:/UltimateEnvironment/code-mod-example/param-replace/code-mod-framework/lib/libnx_min/nx/lib\libnx_min.a(newlib.o)
                0x0000000000019930                __syscall_cond_wait_recursive
 *fill*         0x0000000000019994        0xc 
 .text.__syscall_thread_self
                0x00000000000199a0       0x14 S:/UltimateEnvironment/code-mod-example/param-replace/code-mod-framework/lib/libnx_min/nx/lib\libnx_min.a(newlib.o)
                0x00000000000199a0                __syscall_thread_self
 *fill*         0x00000000000199b4        0xc 
 .text.__syscall_thread_exit
                0x00000000000199c0       0x2c S:/UltimateEnvironment/code-mod-example/param-replace/code-mod-framework/lib/libnx_min/nx/lib\libnx_min.a(newlib.o)
                0x00000000000199c0                __syscall_thread_exit
 *fill*         0x00000000000199ec        0x4 
 .text.__thread_entry
                0x00000000000199f0       0x58 S:/UltimateEnvironment/code-mod-example/param-replace/code-mod-framework/lib/libnx_min/nx/lib\libnx_min.a(newlib.o)
 *fill*         0x0000000000019a48        0x8 
 .text.__syscall_thread_create
                0x0000000000019a50      0x15c S:/UltimateEnvironment/code-mod-example/param-replace/code-mod-framework/lib/libnx_min/nx/lib\libnx_min.a(newlib.o)
                0x0000000000019a50                __syscall_thread_create
 *fill*         0x0000000000019bac        0x4 
 .text.__syscall_thread_join
                0x0000000000019bb0       0x58 S:/UltimateEnvironment/code-mod-example/param-replace/code-mod-framework/lib/libnx_min/nx/lib\libnx_min.a(newlib.o)
                0x0000000000019bb0                __syscall_thread_join
 *fill*         0x0000000000019c08        0x8 
 .text.__syscall_tls_create
                0x0000000000019c10       0x44 S:/UltimateEnvironment/code-mod-example/param-replace/code-mod-framework/lib/libnx_min/nx/lib\libnx_min.a(newlib.o)
                0x0000000000019c10                __syscall_tls_create
 *fill*         0x0000000000019c54        0xc 
 .text.__syscall_tls_set
                0x0000000000019c60       0x18 S:/UltimateEnvironment/code-mod-example/param-replace/code-mod-framework/lib/libnx_min/nx/lib\libnx_min.a(newlib.o)
                0x0000000000019c60                __syscall_tls_set
 *fill*         0x0000000000019c78        0x8 
 .text.__syscall_tls_get
                0x0000000000019c80        0x4 S:/UltimateEnvironment/code-mod-example/param-replace/code-mod-framework/lib/libnx_min/nx/lib\libnx_min.a(newlib.o)
                0x0000000000019c80                __syscall_tls_get
 *fill*         0x0000000000019c84        0xc 
 .text.__syscall_tls_delete
                0x0000000000019c90       0x18 S:/UltimateEnvironment/code-mod-example/param-replace/code-mod-framework/lib/libnx_min/nx/lib\libnx_min.a(newlib.o)
                0x0000000000019c90                __syscall_tls_delete
 *fill*         0x0000000000019ca8        0x8 
 .text.sched_yield
                0x0000000000019cb0       0x1c S:/UltimateEnvironment/code-mod-example/param-replace/code-mod-framework/lib/libnx_min/nx/lib\libnx_min.a(newlib.o)
                0x0000000000019cb0                sched_yield
 *fill*         0x0000000000019ccc        0x4 
 .text.sched_getcpu
                0x0000000000019cd0        0x4 S:/UltimateEnvironment/code-mod-example/param-replace/code-mod-framework/lib/libnx_min/nx/lib\libnx_min.a(newlib.o)
                0x0000000000019cd0                sched_getcpu
 *fill*         0x0000000000019cd4        0xc 
 .text.__libnx_init_time
                0x0000000000019ce0      0x27c S:/UltimateEnvironment/code-mod-example/param-replace/code-mod-framework/lib/libnx_min/nx/lib\libnx_min.a(newlib.o)
                0x0000000000019ce0                __libnx_init_time
 *fill*         0x0000000000019f5c        0x4 
 .text.__syscall_clock_getres
                0x0000000000019f60       0x58 S:/UltimateEnvironment/code-mod-example/param-replace/code-mod-framework/lib/libnx_min/nx/lib\libnx_min.a(newlib.o)
                0x0000000000019f60                __syscall_clock_getres
 *fill*         0x0000000000019fb8        0x8 
 .text.__syscall_clock_gettime
                0x0000000000019fc0       0xf8 S:/UltimateEnvironment/code-mod-example/param-replace/code-mod-framework/lib/libnx_min/nx/lib\libnx_min.a(newlib.o)
                0x0000000000019fc0                __syscall_clock_gettime
 *fill*         0x000000000001a0b8        0x8 
 .text.__syscall_gettod_r
                0x000000000001a0c0       0x8c S:/UltimateEnvironment/code-mod-example/param-replace/code-mod-framework/lib/libnx_min/nx/lib\libnx_min.a(newlib.o)
                0x000000000001a0c0                __syscall_gettod_r
 *fill*         0x000000000001a14c        0x4 
 .text.__syscall_nanosleep
                0x000000000001a150       0x5c S:/UltimateEnvironment/code-mod-example/param-replace/code-mod-framework/lib/libnx_min/nx/lib\libnx_min.a(newlib.o)
                0x000000000001a150                __syscall_nanosleep
 *fill*         0x000000000001a1ac        0x4 
 .text.newlibSetup
                0x000000000001a1b0       0x74 S:/UltimateEnvironment/code-mod-example/param-replace/code-mod-framework/lib/libnx_min/nx/lib\libnx_min.a(newlib.o)
                0x000000000001a1b0                newlibSetup
 *fill*         0x000000000001a224        0xc 
 .text.threadCreate
                0x000000000001a230      0x1fc S:/UltimateEnvironment/code-mod-example/param-replace/code-mod-framework/lib/libnx_min/nx/lib\libnx_min.a(thread.o)
                0x000000000001a230                threadCreate
 *fill*         0x000000000001a42c        0x4 
 .text.threadExit
                0x000000000001a430       0xb0 S:/UltimateEnvironment/code-mod-example/param-replace/code-mod-framework/lib/libnx_min/nx/lib\libnx_min.a(thread.o)
                0x000000000001a430                threadExit
 .text._EntryWrap
                0x000000000001a4e0       0x90 S:/UltimateEnvironment/code-mod-example/param-replace/code-mod-framework/lib/libnx_min/nx/lib\libnx_min.a(thread.o)
 .text.threadStart
                0x000000000001a570        0x8 S:/UltimateEnvironment/code-mod-example/param-replace/code-mod-framework/lib/libnx_min/nx/lib\libnx_min.a(thread.o)
                0x000000000001a570                threadStart
 *fill*         0x000000000001a578        0x8 
 .text.threadWaitForExit
                0x000000000001a580       0x2c S:/UltimateEnvironment/code-mod-example/param-replace/code-mod-framework/lib/libnx_min/nx/lib\libnx_min.a(thread.o)
                0x000000000001a580                threadWaitForExit
 *fill*         0x000000000001a5ac        0x4 
 .text.threadClose
                0x000000000001a5b0       0x54 S:/UltimateEnvironment/code-mod-example/param-replace/code-mod-framework/lib/libnx_min/nx/lib\libnx_min.a(thread.o)
                0x000000000001a5b0                threadClose
 *fill*         0x000000000001a604        0xc 
 .text.threadPause
                0x000000000001a610        0xc S:/UltimateEnvironment/code-mod-example/param-replace/code-mod-framework/lib/libnx_min/nx/lib\libnx_min.a(thread.o)
                0x000000000001a610                threadPause
 *fill*         0x000000000001a61c        0x4 
 .text.threadResume
                0x000000000001a620        0xc S:/UltimateEnvironment/code-mod-example/param-replace/code-mod-framework/lib/libnx_min/nx/lib\libnx_min.a(thread.o)
                0x000000000001a620                threadResume
 *fill*         0x000000000001a62c        0x4 
 .text.threadDumpContext
                0x000000000001a630        0x8 S:/UltimateEnvironment/code-mod-example/param-replace/code-mod-framework/lib/libnx_min/nx/lib\libnx_min.a(thread.o)
                0x000000000001a630                threadDumpContext
 *fill*         0x000000000001a638        0x8 
 .text.threadGetCurHandle
                0x000000000001a640        0xc S:/UltimateEnvironment/code-mod-example/param-replace/code-mod-framework/lib/libnx_min/nx/lib\libnx_min.a(thread.o)
                0x000000000001a640                threadGetCurHandle
 *fill*         0x000000000001a64c        0x4 
 .text.threadTlsGet
                0x000000000001a650       0x10 S:/UltimateEnvironment/code-mod-example/param-replace/code-mod-framework/lib/libnx_min/nx/lib\libnx_min.a(thread.o)
                0x000000000001a650                threadTlsGet
 .text.threadTlsSet
                0x000000000001a660       0x10 S:/UltimateEnvironment/code-mod-example/param-replace/code-mod-framework/lib/libnx_min/nx/lib\libnx_min.a(thread.o)
                0x000000000001a660                threadTlsSet
 .text.threadTlsAlloc
                0x000000000001a670       0xd8 S:/UltimateEnvironment/code-mod-example/param-replace/code-mod-framework/lib/libnx_min/nx/lib\libnx_min.a(thread.o)
                0x000000000001a670                threadTlsAlloc
 *fill*         0x000000000001a748        0x8 
 .text.threadTlsFree
                0x000000000001a750       0x48 S:/UltimateEnvironment/code-mod-example/param-replace/code-mod-framework/lib/libnx_min/nx/lib\libnx_min.a(thread.o)
                0x000000000001a750                threadTlsFree
 *fill*         0x000000000001a798        0x8 
 .text.condvarWaitTimeout
                0x000000000001a7a0       0x60 S:/UltimateEnvironment/code-mod-example/param-replace/code-mod-framework/lib/libnx_min/nx/lib\libnx_min.a(condvar.o)
                0x000000000001a7a0                condvarWaitTimeout
 .text.eventCreate
                0x000000000001a800       0x38 S:/UltimateEnvironment/code-mod-example/param-replace/code-mod-framework/lib/libnx_min/nx/lib\libnx_min.a(event.o)
                0x000000000001a800                eventCreate
 *fill*         0x000000000001a838        0x8 
 .text.eventLoadRemote
                0x000000000001a840        0xc S:/UltimateEnvironment/code-mod-example/param-replace/code-mod-framework/lib/libnx_min/nx/lib\libnx_min.a(event.o)
                0x000000000001a840                eventLoadRemote
 *fill*         0x000000000001a84c        0x4 
 .text.eventWait
                0x000000000001a850       0x38 S:/UltimateEnvironment/code-mod-example/param-replace/code-mod-framework/lib/libnx_min/nx/lib\libnx_min.a(event.o)
                0x000000000001a850                eventWait
 *fill*         0x000000000001a888        0x8 
 .text.eventFire
                0x000000000001a890       0x14 S:/UltimateEnvironment/code-mod-example/param-replace/code-mod-framework/lib/libnx_min/nx/lib\libnx_min.a(event.o)
                0x000000000001a890                eventFire
 *fill*         0x000000000001a8a4        0xc 
 .text.eventClear
                0x000000000001a8b0       0x24 S:/UltimateEnvironment/code-mod-example/param-replace/code-mod-framework/lib/libnx_min/nx/lib\libnx_min.a(event.o)
                0x000000000001a8b0                eventClear
 *fill*         0x000000000001a8d4        0xc 
 .text.eventClose
                0x000000000001a8e0       0x50 S:/UltimateEnvironment/code-mod-example/param-replace/code-mod-framework/lib/libnx_min/nx/lib\libnx_min.a(event.o)
                0x000000000001a8e0                eventClose
 .text.tmemCreate
                0x000000000001a930       0xa8 S:/UltimateEnvironment/code-mod-example/param-replace/code-mod-framework/lib/libnx_min/nx/lib\libnx_min.a(tmem.o)
                0x000000000001a930                tmemCreate
 *fill*         0x000000000001a9d8        0x8 
 .text.tmemCreateFromMemory
                0x000000000001a9e0       0x2c S:/UltimateEnvironment/code-mod-example/param-replace/code-mod-framework/lib/libnx_min/nx/lib\libnx_min.a(tmem.o)
                0x000000000001a9e0                tmemCreateFromMemory
 *fill*         0x000000000001aa0c        0x4 
 .text.tmemLoadRemote
                0x000000000001aa10       0x14 S:/UltimateEnvironment/code-mod-example/param-replace/code-mod-framework/lib/libnx_min/nx/lib\libnx_min.a(tmem.o)
                0x000000000001aa10                tmemLoadRemote
 *fill*         0x000000000001aa24        0xc 
 .text.tmemMap  0x000000000001aa30       0x84 S:/UltimateEnvironment/code-mod-example/param-replace/code-mod-framework/lib/libnx_min/nx/lib\libnx_min.a(tmem.o)
                0x000000000001aa30                tmemMap
 *fill*         0x000000000001aab4        0xc 
 .text.tmemUnmap
                0x000000000001aac0       0x58 S:/UltimateEnvironment/code-mod-example/param-replace/code-mod-framework/lib/libnx_min/nx/lib\libnx_min.a(tmem.o)
                0x000000000001aac0                tmemUnmap
 *fill*         0x000000000001ab18        0x8 
 .text.tmemClose
                0x000000000001ab20       0x68 S:/UltimateEnvironment/code-mod-example/param-replace/code-mod-framework/lib/libnx_min/nx/lib\libnx_min.a(tmem.o)
                0x000000000001ab20                tmemClose
 *fill*         0x000000000001ab88        0x8 
 .text.rwlockInit
                0x000000000001ab90        0x8 S:/UltimateEnvironment/code-mod-example/param-replace/code-mod-framework/lib/libnx_min/nx/lib\libnx_min.a(rwlock.o)
                0x000000000001ab90                rwlockInit
 *fill*         0x000000000001ab98        0x8 
 .text.rwlockReadLock
                0x000000000001aba0       0x58 S:/UltimateEnvironment/code-mod-example/param-replace/code-mod-framework/lib/libnx_min/nx/lib\libnx_min.a(rwlock.o)
                0x000000000001aba0                rwlockReadLock
 *fill*         0x000000000001abf8        0x8 
 .text.rwlockReadUnlock
                0x000000000001ac00       0x5c S:/UltimateEnvironment/code-mod-example/param-replace/code-mod-framework/lib/libnx_min/nx/lib\libnx_min.a(rwlock.o)
                0x000000000001ac00                rwlockReadUnlock
 *fill*         0x000000000001ac5c        0x4 
 .text.rwlockWriteLock
                0x000000000001ac60       0x84 S:/UltimateEnvironment/code-mod-example/param-replace/code-mod-framework/lib/libnx_min/nx/lib\libnx_min.a(rwlock.o)
                0x000000000001ac60                rwlockWriteLock
 *fill*         0x000000000001ace4        0xc 
 .text.rwlockWriteUnlock
                0x000000000001acf0       0x3c S:/UltimateEnvironment/code-mod-example/param-replace/code-mod-framework/lib/libnx_min/nx/lib\libnx_min.a(rwlock.o)
                0x000000000001acf0                rwlockWriteUnlock
 *fill*         0x000000000001ad2c        0x4 
 .text._waitLoop
                0x000000000001ad30      0x104 S:/UltimateEnvironment/code-mod-example/param-replace/code-mod-framework/lib/libnx_min/nx/lib\libnx_min.a(wait.o)
 *fill*         0x000000000001ae34        0xc 
 .text._waitObjectsImpl
                0x000000000001ae40      0x338 S:/UltimateEnvironment/code-mod-example/param-replace/code-mod-framework/lib/libnx_min/nx/lib\libnx_min.a(wait.o)
 *fill*         0x000000000001b178        0x8 
 .text.waitObjects
                0x000000000001b180        0xc S:/UltimateEnvironment/code-mod-example/param-replace/code-mod-framework/lib/libnx_min/nx/lib\libnx_min.a(wait.o)
                0x000000000001b180                waitObjects
 *fill*         0x000000000001b18c        0x4 
 .text.waitHandles
                0x000000000001b190        0xc S:/UltimateEnvironment/code-mod-example/param-replace/code-mod-framework/lib/libnx_min/nx/lib\libnx_min.a(wait.o)
                0x000000000001b190                waitHandles
 *fill*         0x000000000001b19c        0x4 
 .text.shmemCreate
                0x000000000001b1a0       0x14 S:/UltimateEnvironment/code-mod-example/param-replace/code-mod-framework/lib/libnx_min/nx/lib\libnx_min.a(shmem.o)
                0x000000000001b1a0                shmemCreate
 *fill*         0x000000000001b1b4        0xc 
 .text.shmemLoadRemote
                0x000000000001b1c0       0x14 S:/UltimateEnvironment/code-mod-example/param-replace/code-mod-framework/lib/libnx_min/nx/lib\libnx_min.a(shmem.o)
                0x000000000001b1c0                shmemLoadRemote
 *fill*         0x000000000001b1d4        0xc 
 .text.shmemMap
                0x000000000001b1e0       0x84 S:/UltimateEnvironment/code-mod-example/param-replace/code-mod-framework/lib/libnx_min/nx/lib\libnx_min.a(shmem.o)
                0x000000000001b1e0                shmemMap
 *fill*         0x000000000001b264        0xc 
 .text.shmemUnmap
                0x000000000001b270       0x58 S:/UltimateEnvironment/code-mod-example/param-replace/code-mod-framework/lib/libnx_min/nx/lib\libnx_min.a(shmem.o)
                0x000000000001b270                shmemUnmap
 *fill*         0x000000000001b2c8        0x8 
 .text.shmemClose
                0x000000000001b2d0       0x44 S:/UltimateEnvironment/code-mod-example/param-replace/code-mod-framework/lib/libnx_min/nx/lib\libnx_min.a(shmem.o)
                0x000000000001b2d0                shmemClose
 *fill*         0x000000000001b314        0xc 
 .text.detectKernelVersion
                0x000000000001b320      0x17c S:/UltimateEnvironment/code-mod-example/param-replace/code-mod-framework/lib/libnx_min/nx/lib\libnx_min.a(detect.o)
                0x000000000001b320                detectKernelVersion
 *fill*         0x000000000001b49c        0x4 
 .text.detectDebugger
                0x000000000001b4a0       0x30 S:/UltimateEnvironment/code-mod-example/param-replace/code-mod-framework/lib/libnx_min/nx/lib\libnx_min.a(detect.o)
                0x000000000001b4a0                detectDebugger
 .text.detectJitKernelPatch
                0x000000000001b4d0       0xdc S:/UltimateEnvironment/code-mod-example/param-replace/code-mod-framework/lib/libnx_min/nx/lib\libnx_min.a(detect.o)
                0x000000000001b4d0                detectJitKernelPatch
 *fill*         0x000000000001b5ac        0x4 
 .text.detectIgnoreJitKernelPatch
                0x000000000001b5b0       0x44 S:/UltimateEnvironment/code-mod-example/param-replace/code-mod-framework/lib/libnx_min/nx/lib\libnx_min.a(detect.o)
                0x000000000001b5b0                detectIgnoreJitKernelPatch
 *fill*         0x000000000001b5f4        0xc 
 .text.ipcCloseObjectById
                0x000000000001b600       0x34 S:/UltimateEnvironment/code-mod-example/param-replace/code-mod-framework/lib/libnx_min/nx/lib\libnx_min.a(apm.o)
 *fill*         0x000000000001b634        0xc 
 .text._apmGetSession.constprop.4
                0x000000000001b640      0x124 S:/UltimateEnvironment/code-mod-example/param-replace/code-mod-framework/lib/libnx_min/nx/lib\libnx_min.a(apm.o)
 *fill*         0x000000000001b764        0xc 
 .text.apmExit  0x000000000001b770       0xf0 S:/UltimateEnvironment/code-mod-example/param-replace/code-mod-framework/lib/libnx_min/nx/lib\libnx_min.a(apm.o)
                0x000000000001b770                apmExit
 .text.apmInitialize
                0x000000000001b860       0x70 S:/UltimateEnvironment/code-mod-example/param-replace/code-mod-framework/lib/libnx_min/nx/lib\libnx_min.a(apm.o)
                0x000000000001b860                apmInitialize
 .text.apmSetPerformanceConfiguration
                0x000000000001b8d0       0xcc S:/UltimateEnvironment/code-mod-example/param-replace/code-mod-framework/lib/libnx_min/nx/lib\libnx_min.a(apm.o)
                0x000000000001b8d0                apmSetPerformanceConfiguration
 *fill*         0x000000000001b99c        0x4 
 .text.apmGetPerformanceConfiguration
                0x000000000001b9a0       0xf4 S:/UltimateEnvironment/code-mod-example/param-replace/code-mod-framework/lib/libnx_min/nx/lib\libnx_min.a(apm.o)
                0x000000000001b9a0                apmGetPerformanceConfiguration
 *fill*         0x000000000001ba94        0x4 
 .text.bsearch  0x000000000001ba98       0xb8 c:/devkitpro/devkita64/bin/../lib/gcc/aarch64-none-elf/8.3.0/../../../../aarch64-none-elf/lib/pic\libg.a(lib_a-bsearch.o)
                0x000000000001ba98                bsearch
 .text.__set_ctype
                0x000000000001bb50       0x10 c:/devkitpro/devkita64/bin/../lib/gcc/aarch64-none-elf/8.3.0/../../../../aarch64-none-elf/lib/pic\libg.a(lib_a-ctype_.o)
                0x000000000001bb50                __set_ctype
 .text.__errno  0x000000000001bb60       0x14 c:/devkitpro/devkita64/bin/../lib/gcc/aarch64-none-elf/8.3.0/../../../../aarch64-none-elf/lib/pic\libg.a(lib_a-errno.o)
                0x000000000001bb60                __errno
 *fill*         0x000000000001bb74        0x4 
 .text.__libc_fini_array
                0x000000000001bb78       0x44 c:/devkitpro/devkita64/bin/../lib/gcc/aarch64-none-elf/8.3.0/../../../../aarch64-none-elf/lib/pic\libg.a(lib_a-fini.o)
                0x000000000001bb78                __libc_fini_array
 *fill*         0x000000000001bbbc        0x4 
 .text.__libc_init_array
                0x000000000001bbc0       0x8c c:/devkitpro/devkita64/bin/../lib/gcc/aarch64-none-elf/8.3.0/../../../../aarch64-none-elf/lib/pic\libg.a(lib_a-init.o)
                0x000000000001bbc0                __libc_init_array
 *fill*         0x000000000001bc4c        0x4 
 .text.memalign
                0x000000000001bc50       0x30 c:/devkitpro/devkita64/bin/../lib/gcc/aarch64-none-elf/8.3.0/../../../../aarch64-none-elf/lib/pic\libg.a(lib_a-malign.o)
                0x000000000001bc50                memalign
 .text._memalign_r
                0x000000000001bc80      0x198 c:/devkitpro/devkita64/bin/../lib/gcc/aarch64-none-elf/8.3.0/../../../../aarch64-none-elf/lib/pic\libg.a(lib_a-malignr.o)
                0x000000000001bc80                _memalign_r
 .text.malloc   0x000000000001be18       0x1c c:/devkitpro/devkita64/bin/../lib/gcc/aarch64-none-elf/8.3.0/../../../../aarch64-none-elf/lib/pic\libg.a(lib_a-malloc.o)
                0x000000000001be18                malloc
 *fill*         0x000000000001be34        0x4 
 .text.free     0x000000000001be38       0x1c c:/devkitpro/devkita64/bin/../lib/gcc/aarch64-none-elf/8.3.0/../../../../aarch64-none-elf/lib/pic\libg.a(lib_a-malloc.o)
                0x000000000001be38                free
 *fill*         0x000000000001be54        0x4 
 .text._malloc_r
                0x000000000001be58      0x87c c:/devkitpro/devkita64/bin/../lib/gcc/aarch64-none-elf/8.3.0/../../../../aarch64-none-elf/lib/pic\libg.a(lib_a-mallocr.o)
                0x000000000001be58                _malloc_r
 *fill*         0x000000000001c6d4       0x2c 
 .text          0x000000000001c700      0x16c c:/devkitpro/devkita64/bin/../lib/gcc/aarch64-none-elf/8.3.0/../../../../aarch64-none-elf/lib/pic\libg.a(lib_a-memcpy.o)
                0x000000000001c700                memcpy
 *fill*         0x000000000001c86c       0x14 
 .text          0x000000000001c880      0x1dc c:/devkitpro/devkita64/bin/../lib/gcc/aarch64-none-elf/8.3.0/../../../../aarch64-none-elf/lib/pic\libg.a(lib_a-memset.o)
                0x000000000001c880                memset
 *fill*         0x000000000001ca5c        0x4 
 .text.__malloc_lock
                0x000000000001ca60        0xc c:/devkitpro/devkita64/bin/../lib/gcc/aarch64-none-elf/8.3.0/../../../../aarch64-none-elf/lib/pic\libg.a(lib_a-mlock.o)
                0x000000000001ca60                __malloc_lock
 *fill*         0x000000000001ca6c        0x4 
 .text.__malloc_unlock
                0x000000000001ca70        0xc c:/devkitpro/devkita64/bin/../lib/gcc/aarch64-none-elf/8.3.0/../../../../aarch64-none-elf/lib/pic\libg.a(lib_a-mlock.o)
                0x000000000001ca70                __malloc_unlock
 *fill*         0x000000000001ca7c        0x4 
 .text.setenv   0x000000000001ca80       0x3c c:/devkitpro/devkita64/bin/../lib/gcc/aarch64-none-elf/8.3.0/../../../../aarch64-none-elf/lib/pic\libg.a(lib_a-setenv.o)
                0x000000000001ca80                setenv
 *fill*         0x000000000001cabc        0x4 
 .text.unsetenv
                0x000000000001cac0       0x1c c:/devkitpro/devkita64/bin/../lib/gcc/aarch64-none-elf/8.3.0/../../../../aarch64-none-elf/lib/pic\libg.a(lib_a-setenv.o)
                0x000000000001cac0                unsetenv
 *fill*         0x000000000001cadc        0x4 
 .text._setenv_r
                0x000000000001cae0      0x264 c:/devkitpro/devkita64/bin/../lib/gcc/aarch64-none-elf/8.3.0/../../../../aarch64-none-elf/lib/pic\libg.a(lib_a-setenv_r.o)
                0x000000000001cae0                _setenv_r
 *fill*         0x000000000001cd44        0x4 
 .text._unsetenv_r
                0x000000000001cd48       0xd4 c:/devkitpro/devkita64/bin/../lib/gcc/aarch64-none-elf/8.3.0/../../../../aarch64-none-elf/lib/pic\libg.a(lib_a-setenv_r.o)
                0x000000000001cd48                _unsetenv_r
 .text          0x000000000001ce1c       0xdc c:/devkitpro/devkita64/bin/../lib/gcc/aarch64-none-elf/8.3.0/../../../../aarch64-none-elf/lib/pic\libg.a(lib_a-strchr.o)
                0x000000000001ce1c                strchr
 *fill*         0x000000000001cef8        0x8 
 .text          0x000000000001cf00      0x1b8 c:/devkitpro/devkita64/bin/../lib/gcc/aarch64-none-elf/8.3.0/../../../../aarch64-none-elf/lib/pic\libg.a(lib_a-strcpy.o)
                0x000000000001cf00                strcpy
 *fill*         0x000000000001d0b8        0x8 
 .text          0x000000000001d0c0      0x140 c:/devkitpro/devkita64/bin/../lib/gcc/aarch64-none-elf/8.3.0/../../../../aarch64-none-elf/lib/pic\libg.a(lib_a-strlen.o)
                0x000000000001d0c0                strlen
 .text.strncat  0x000000000001d200       0x84 c:/devkitpro/devkita64/bin/../lib/gcc/aarch64-none-elf/8.3.0/../../../../aarch64-none-elf/lib/pic\libg.a(lib_a-strncat.o)
                0x000000000001d200                strncat
 *fill*         0x000000000001d284       0x3c 
 .text          0x000000000001d2c0      0x1d4 c:/devkitpro/devkita64/bin/../lib/gcc/aarch64-none-elf/8.3.0/../../../../aarch64-none-elf/lib/pic\libg.a(lib_a-strncmp.o)
                0x000000000001d2dc                strncmp
 *fill*         0x000000000001d494        0x4 
 .text.strncpy  0x000000000001d498       0xa8 c:/devkitpro/devkita64/bin/../lib/gcc/aarch64-none-elf/8.3.0/../../../../aarch64-none-elf/lib/pic\libg.a(lib_a-strncpy.o)
                0x000000000001d498                strncpy
 .text          0x000000000001d540       0xe0 c:/devkitpro/devkita64/bin/../lib/gcc/aarch64-none-elf/8.3.0/../../../../aarch64-none-elf/lib/pic\libg.a(lib_a-strnlen.o)
                0x000000000001d564                strnlen
 .text.toupper  0x000000000001d620       0x24 c:/devkitpro/devkita64/bin/../lib/gcc/aarch64-none-elf/8.3.0/../../../../aarch64-none-elf/lib/pic\libg.a(lib_a-toupper.o)
                0x000000000001d620                toupper
 *fill*         0x000000000001d644        0x4 
 .text._vsnprintf_r
                0x000000000001d648       0xe0 c:/devkitpro/devkita64/bin/../lib/gcc/aarch64-none-elf/8.3.0/../../../../aarch64-none-elf/lib/pic\libg.a(lib_a-vsnprintf.o)
                0x000000000001d648                _vsnprintf_r
 .text.vsnprintf
                0x000000000001d728       0x50 c:/devkitpro/devkita64/bin/../lib/gcc/aarch64-none-elf/8.3.0/../../../../aarch64-none-elf/lib/pic\libg.a(lib_a-vsnprintf.o)
                0x000000000001d728                vsnprintf
 .text.__call_exitprocs
                0x000000000001d778      0x124 c:/devkitpro/devkita64/bin/../lib/gcc/aarch64-none-elf/8.3.0/../../../../aarch64-none-elf/lib/pic\libg.a(lib_a-__call_atexit.o)
                0x000000000001d778                __call_exitprocs
 *fill*         0x000000000001d89c        0x4 
 .text.__env_lock
                0x000000000001d8a0        0xc c:/devkitpro/devkita64/bin/../lib/gcc/aarch64-none-elf/8.3.0/../../../../aarch64-none-elf/lib/pic\libg.a(lib_a-envlock.o)
                0x000000000001d8a0                __env_lock
 *fill*         0x000000000001d8ac        0x4 
 .text.__env_unlock
                0x000000000001d8b0        0xc c:/devkitpro/devkita64/bin/../lib/gcc/aarch64-none-elf/8.3.0/../../../../aarch64-none-elf/lib/pic\libg.a(lib_a-envlock.o)
                0x000000000001d8b0                __env_unlock
 *fill*         0x000000000001d8bc        0x4 
 .text._malloc_trim_r
                0x000000000001d8c0      0x118 c:/devkitpro/devkita64/bin/../lib/gcc/aarch64-none-elf/8.3.0/../../../../aarch64-none-elf/lib/pic\libg.a(lib_a-freer.o)
                0x000000000001d8c0                _malloc_trim_r
 .text._free_r  0x000000000001d9d8      0x2f4 c:/devkitpro/devkita64/bin/../lib/gcc/aarch64-none-elf/8.3.0/../../../../aarch64-none-elf/lib/pic\libg.a(lib_a-freer.o)
                0x000000000001d9d8                _free_r
 *fill*         0x000000000001dccc        0x4 
 .text._findenv_r
                0x000000000001dcd0      0x100 c:/devkitpro/devkita64/bin/../lib/gcc/aarch64-none-elf/8.3.0/../../../../aarch64-none-elf/lib/pic\libg.a(lib_a-getenv_r.o)
                0x000000000001dcd0                _findenv_r
 .text._getenv_r
                0x000000000001ddd0       0x18 c:/devkitpro/devkita64/bin/../lib/gcc/aarch64-none-elf/8.3.0/../../../../aarch64-none-elf/lib/pic\libg.a(lib_a-getenv_r.o)
                0x000000000001ddd0                _getenv_r
 .text._realloc_r
                0x000000000001dde8      0x56c c:/devkitpro/devkita64/bin/../lib/gcc/aarch64-none-elf/8.3.0/../../../../aarch64-none-elf/lib/pic\libg.a(lib_a-reallocr.o)
                0x000000000001dde8                _realloc_r
 .text.get_arg  0x000000000001e354      0x76c c:/devkitpro/devkita64/bin/../lib/gcc/aarch64-none-elf/8.3.0/../../../../aarch64-none-elf/lib/pic\libg.a(lib_a-svfprintf.o)
 .text._svfprintf_r
                0x000000000001eac0     0x3b38 c:/devkitpro/devkita64/bin/../lib/gcc/aarch64-none-elf/8.3.0/../../../../aarch64-none-elf/lib/pic\libg.a(lib_a-svfprintf.o)
                0x000000000001eac0                _svfprintf_r
 .text._wcrtomb_r
                0x00000000000225f8       0xd0 c:/devkitpro/devkita64/bin/../lib/gcc/aarch64-none-elf/8.3.0/../../../../aarch64-none-elf/lib/pic\libg.a(lib_a-wcrtomb.o)
                0x00000000000225f8                _wcrtomb_r
 .text.wcrtomb  0x00000000000226c8       0xdc c:/devkitpro/devkita64/bin/../lib/gcc/aarch64-none-elf/8.3.0/../../../../aarch64-none-elf/lib/pic\libg.a(lib_a-wcrtomb.o)
                0x00000000000226c8                wcrtomb
 *fill*         0x00000000000227a4        0x4 
 .text._wcsrtombs_r
                0x00000000000227a8       0x10 c:/devkitpro/devkita64/bin/../lib/gcc/aarch64-none-elf/8.3.0/../../../../aarch64-none-elf/lib/pic\libg.a(lib_a-wcsrtombs.o)
                0x00000000000227a8                _wcsrtombs_r
 .text.wcsrtombs
                0x00000000000227b8       0x44 c:/devkitpro/devkita64/bin/../lib/gcc/aarch64-none-elf/8.3.0/../../../../aarch64-none-elf/lib/pic\libg.a(lib_a-wcsrtombs.o)
                0x00000000000227b8                wcsrtombs
 *fill*         0x00000000000227fc        0x4 
 .text.quorem   0x0000000000022800      0x1a8 c:/devkitpro/devkita64/bin/../lib/gcc/aarch64-none-elf/8.3.0/../../../../aarch64-none-elf/lib/pic\libg.a(lib_a-dtoa.o)
 .text._dtoa_r  0x00000000000229a8     0x10dc c:/devkitpro/devkita64/bin/../lib/gcc/aarch64-none-elf/8.3.0/../../../../aarch64-none-elf/lib/pic\libg.a(lib_a-dtoa.o)
                0x00000000000229a8                _dtoa_r
 *fill*         0x0000000000023a84        0x4 
 .text.__localeconv_l
                0x0000000000023a88        0x8 c:/devkitpro/devkita64/bin/../lib/gcc/aarch64-none-elf/8.3.0/../../../../aarch64-none-elf/lib/pic\libg.a(lib_a-localeconv.o)
                0x0000000000023a88                __localeconv_l
 .text._localeconv_r
                0x0000000000023a90       0x28 c:/devkitpro/devkita64/bin/../lib/gcc/aarch64-none-elf/8.3.0/../../../../aarch64-none-elf/lib/pic\libg.a(lib_a-localeconv.o)
                0x0000000000023a90                _localeconv_r
 .text.localeconv
                0x0000000000023ab8       0x28 c:/devkitpro/devkita64/bin/../lib/gcc/aarch64-none-elf/8.3.0/../../../../aarch64-none-elf/lib/pic\libg.a(lib_a-localeconv.o)
                0x0000000000023ab8                localeconv
 .text.currentlocale
                0x0000000000023ae0       0xb8 c:/devkitpro/devkita64/bin/../lib/gcc/aarch64-none-elf/8.3.0/../../../../aarch64-none-elf/lib/pic\libg.a(lib_a-locale.o)
 .text.__loadlocale
                0x0000000000023b98      0x7a8 c:/devkitpro/devkita64/bin/../lib/gcc/aarch64-none-elf/8.3.0/../../../../aarch64-none-elf/lib/pic\libg.a(lib_a-locale.o)
                0x0000000000023b98                __loadlocale
 .text.__get_locale_env
                0x0000000000024340       0x88 c:/devkitpro/devkita64/bin/../lib/gcc/aarch64-none-elf/8.3.0/../../../../aarch64-none-elf/lib/pic\libg.a(lib_a-locale.o)
                0x0000000000024340                __get_locale_env
 .text._setlocale_r
                0x00000000000243c8      0x3a4 c:/devkitpro/devkita64/bin/../lib/gcc/aarch64-none-elf/8.3.0/../../../../aarch64-none-elf/lib/pic\libg.a(lib_a-locale.o)
                0x00000000000243c8                _setlocale_r
 *fill*         0x000000000002476c        0x4 
 .text.__locale_mb_cur_max
                0x0000000000024770       0x2c c:/devkitpro/devkita64/bin/../lib/gcc/aarch64-none-elf/8.3.0/../../../../aarch64-none-elf/lib/pic\libg.a(lib_a-locale.o)
                0x0000000000024770                __locale_mb_cur_max
 *fill*         0x000000000002479c        0x4 
 .text.setlocale
                0x00000000000247a0       0x30 c:/devkitpro/devkita64/bin/../lib/gcc/aarch64-none-elf/8.3.0/../../../../aarch64-none-elf/lib/pic\libg.a(lib_a-locale.o)
                0x00000000000247a0                setlocale
 .text._mbtowc_r
                0x00000000000247d0       0x4c c:/devkitpro/devkita64/bin/../lib/gcc/aarch64-none-elf/8.3.0/../../../../aarch64-none-elf/lib/pic\libg.a(lib_a-mbtowc_r.o)
                0x00000000000247d0                _mbtowc_r
 *fill*         0x000000000002481c        0x4 
 .text.__ascii_mbtowc
                0x0000000000024820       0x48 c:/devkitpro/devkita64/bin/../lib/gcc/aarch64-none-elf/8.3.0/../../../../aarch64-none-elf/lib/pic\libg.a(lib_a-mbtowc_r.o)
                0x0000000000024820                __ascii_mbtowc
 .text.__utf8_mbtowc
                0x0000000000024868      0x2c8 c:/devkitpro/devkita64/bin/../lib/gcc/aarch64-none-elf/8.3.0/../../../../aarch64-none-elf/lib/pic\libg.a(lib_a-mbtowc_r.o)
                0x0000000000024868                __utf8_mbtowc
 .text.__sjis_mbtowc
                0x0000000000024b30       0xcc c:/devkitpro/devkita64/bin/../lib/gcc/aarch64-none-elf/8.3.0/../../../../aarch64-none-elf/lib/pic\libg.a(lib_a-mbtowc_r.o)
                0x0000000000024b30                __sjis_mbtowc
 *fill*         0x0000000000024bfc        0x4 
 .text.__eucjp_mbtowc
                0x0000000000024c00      0x120 c:/devkitpro/devkita64/bin/../lib/gcc/aarch64-none-elf/8.3.0/../../../../aarch64-none-elf/lib/pic\libg.a(lib_a-mbtowc_r.o)
                0x0000000000024c00                __eucjp_mbtowc
 .text.__jis_mbtowc
                0x0000000000024d20      0x1d4 c:/devkitpro/devkita64/bin/../lib/gcc/aarch64-none-elf/8.3.0/../../../../aarch64-none-elf/lib/pic\libg.a(lib_a-mbtowc_r.o)
                0x0000000000024d20                __jis_mbtowc
 .text          0x0000000000024ef4       0xd8 c:/devkitpro/devkita64/bin/../lib/gcc/aarch64-none-elf/8.3.0/../../../../aarch64-none-elf/lib/pic\libg.a(lib_a-memchr.o)
                0x0000000000024ef4                memchr
 *fill*         0x0000000000024fcc       0x34 
 .text          0x0000000000025000       0xac c:/devkitpro/devkita64/bin/../lib/gcc/aarch64-none-elf/8.3.0/../../../../aarch64-none-elf/lib/pic\libg.a(lib_a-memmove.o)
                0x0000000000025000                memmove
 *fill*         0x00000000000250ac        0x4 
 .text._Balloc  0x00000000000250b0       0x90 c:/devkitpro/devkita64/bin/../lib/gcc/aarch64-none-elf/8.3.0/../../../../aarch64-none-elf/lib/pic\libg.a(lib_a-mprec.o)
                0x00000000000250b0                _Balloc
 .text._Bfree   0x0000000000025140       0x1c c:/devkitpro/devkita64/bin/../lib/gcc/aarch64-none-elf/8.3.0/../../../../aarch64-none-elf/lib/pic\libg.a(lib_a-mprec.o)
                0x0000000000025140                _Bfree
 *fill*         0x000000000002515c        0x4 
 .text.__multadd
                0x0000000000025160       0xe8 c:/devkitpro/devkita64/bin/../lib/gcc/aarch64-none-elf/8.3.0/../../../../aarch64-none-elf/lib/pic\libg.a(lib_a-mprec.o)
                0x0000000000025160                __multadd
 .text.__s2b    0x0000000000025248      0x120 c:/devkitpro/devkita64/bin/../lib/gcc/aarch64-none-elf/8.3.0/../../../../aarch64-none-elf/lib/pic\libg.a(lib_a-mprec.o)
                0x0000000000025248                __s2b
 .text.__hi0bits
                0x0000000000025368       0x5c c:/devkitpro/devkita64/bin/../lib/gcc/aarch64-none-elf/8.3.0/../../../../aarch64-none-elf/lib/pic\libg.a(lib_a-mprec.o)
                0x0000000000025368                __hi0bits
 *fill*         0x00000000000253c4        0x4 
 .text.__lo0bits
                0x00000000000253c8       0xa0 c:/devkitpro/devkita64/bin/../lib/gcc/aarch64-none-elf/8.3.0/../../../../aarch64-none-elf/lib/pic\libg.a(lib_a-mprec.o)
                0x00000000000253c8                __lo0bits
 .text.__i2b    0x0000000000025468       0x2c c:/devkitpro/devkita64/bin/../lib/gcc/aarch64-none-elf/8.3.0/../../../../aarch64-none-elf/lib/pic\libg.a(lib_a-mprec.o)
                0x0000000000025468                __i2b
 *fill*         0x0000000000025494        0x4 
 .text.__multiply
                0x0000000000025498      0x1c8 c:/devkitpro/devkita64/bin/../lib/gcc/aarch64-none-elf/8.3.0/../../../../aarch64-none-elf/lib/pic\libg.a(lib_a-mprec.o)
                0x0000000000025498                __multiply
 .text.__pow5mult
                0x0000000000025660      0x104 c:/devkitpro/devkita64/bin/../lib/gcc/aarch64-none-elf/8.3.0/../../../../aarch64-none-elf/lib/pic\libg.a(lib_a-mprec.o)
                0x0000000000025660                __pow5mult
 *fill*         0x0000000000025764        0x4 
 .text.__lshift
                0x0000000000025768      0x134 c:/devkitpro/devkita64/bin/../lib/gcc/aarch64-none-elf/8.3.0/../../../../aarch64-none-elf/lib/pic\libg.a(lib_a-mprec.o)
                0x0000000000025768                __lshift
 *fill*         0x000000000002589c        0x4 
 .text.__mcmp   0x00000000000258a0       0x50 c:/devkitpro/devkita64/bin/../lib/gcc/aarch64-none-elf/8.3.0/../../../../aarch64-none-elf/lib/pic\libg.a(lib_a-mprec.o)
                0x00000000000258a0                __mcmp
 .text.__mdiff  0x00000000000258f0      0x14c c:/devkitpro/devkita64/bin/../lib/gcc/aarch64-none-elf/8.3.0/../../../../aarch64-none-elf/lib/pic\libg.a(lib_a-mprec.o)
                0x00000000000258f0                __mdiff
 *fill*         0x0000000000025a3c        0x4 
 .text.__ulp    0x0000000000025a40       0x68 c:/devkitpro/devkita64/bin/../lib/gcc/aarch64-none-elf/8.3.0/../../../../aarch64-none-elf/lib/pic\libg.a(lib_a-mprec.o)
                0x0000000000025a40                __ulp
 .text.__b2d    0x0000000000025aa8      0x150 c:/devkitpro/devkita64/bin/../lib/gcc/aarch64-none-elf/8.3.0/../../../../aarch64-none-elf/lib/pic\libg.a(lib_a-mprec.o)
                0x0000000000025aa8                __b2d
 .text.__d2b    0x0000000000025bf8      0x138 c:/devkitpro/devkita64/bin/../lib/gcc/aarch64-none-elf/8.3.0/../../../../aarch64-none-elf/lib/pic\libg.a(lib_a-mprec.o)
                0x0000000000025bf8                __d2b
 .text.__ratio  0x0000000000025d30       0xa0 c:/devkitpro/devkita64/bin/../lib/gcc/aarch64-none-elf/8.3.0/../../../../aarch64-none-elf/lib/pic\libg.a(lib_a-mprec.o)
                0x0000000000025d30                __ratio
 .text._mprec_log10
                0x0000000000025dd0       0x30 c:/devkitpro/devkita64/bin/../lib/gcc/aarch64-none-elf/8.3.0/../../../../aarch64-none-elf/lib/pic\libg.a(lib_a-mprec.o)
                0x0000000000025dd0                _mprec_log10
 .text.__copybits
                0x0000000000025e00       0x68 c:/devkitpro/devkita64/bin/../lib/gcc/aarch64-none-elf/8.3.0/../../../../aarch64-none-elf/lib/pic\libg.a(lib_a-mprec.o)
                0x0000000000025e00                __copybits
 .text.__any_on
                0x0000000000025e68       0x84 c:/devkitpro/devkita64/bin/../lib/gcc/aarch64-none-elf/8.3.0/../../../../aarch64-none-elf/lib/pic\libg.a(lib_a-mprec.o)
                0x0000000000025e68                __any_on
 *fill*         0x0000000000025eec        0x4 
 .text.frexp    0x0000000000025ef0       0x7c c:/devkitpro/devkita64/bin/../lib/gcc/aarch64-none-elf/8.3.0/../../../../aarch64-none-elf/lib/pic\libg.a(lib_a-s_frexp.o)
                0x0000000000025ef0                frexp
 *fill*         0x0000000000025f6c        0x4 
 .text.strcasecmp
                0x0000000000025f70       0x78 c:/devkitpro/devkita64/bin/../lib/gcc/aarch64-none-elf/8.3.0/../../../../aarch64-none-elf/lib/pic\libg.a(lib_a-strcasecmp.o)
                0x0000000000025f70                strcasecmp
 .text.strcat   0x0000000000025fe8       0x74 c:/devkitpro/devkita64/bin/../lib/gcc/aarch64-none-elf/8.3.0/../../../../aarch64-none-elf/lib/pic\libg.a(lib_a-strcat.o)
                0x0000000000025fe8                strcat
 *fill*         0x000000000002605c       0x24 
 .text          0x0000000000026080       0xe4 c:/devkitpro/devkita64/bin/../lib/gcc/aarch64-none-elf/8.3.0/../../../../aarch64-none-elf/lib/pic\libg.a(lib_a-strcmp.o)
                0x0000000000026080                strcmp
 *fill*         0x0000000000026164        0x4 
 .text.strlcpy  0x0000000000026168       0x54 c:/devkitpro/devkita64/bin/../lib/gcc/aarch64-none-elf/8.3.0/../../../../aarch64-none-elf/lib/pic\libg.a(lib_a-strlcpy.o)
                0x0000000000026168                strlcpy
 *fill*         0x00000000000261bc        0x4 
 .text.strncasecmp
                0x00000000000261c0       0x8c c:/devkitpro/devkita64/bin/../lib/gcc/aarch64-none-elf/8.3.0/../../../../aarch64-none-elf/lib/pic\libg.a(lib_a-strncasecmp.o)
                0x00000000000261c0                strncasecmp
 *fill*         0x000000000002624c        0x4 
 .text._strtol_l.isra.0
                0x0000000000026250      0x1a0 c:/devkitpro/devkita64/bin/../lib/gcc/aarch64-none-elf/8.3.0/../../../../aarch64-none-elf/lib/pic\libg.a(lib_a-strtol.o)
 .text._strtol_r
                0x00000000000263f0       0x34 c:/devkitpro/devkita64/bin/../lib/gcc/aarch64-none-elf/8.3.0/../../../../aarch64-none-elf/lib/pic\libg.a(lib_a-strtol.o)
                0x00000000000263f0                _strtol_r
 *fill*         0x0000000000026424        0x4 
 .text.strtol_l
                0x0000000000026428       0x3c c:/devkitpro/devkita64/bin/../lib/gcc/aarch64-none-elf/8.3.0/../../../../aarch64-none-elf/lib/pic\libg.a(lib_a-strtol.o)
                0x0000000000026428                strtol_l
 *fill*         0x0000000000026464        0x4 
 .text.strtol   0x0000000000026468       0x48 c:/devkitpro/devkita64/bin/../lib/gcc/aarch64-none-elf/8.3.0/../../../../aarch64-none-elf/lib/pic\libg.a(lib_a-strtol.o)
                0x0000000000026468                strtol
 .text.get_arg  0x00000000000264b0      0x76c c:/devkitpro/devkita64/bin/../lib/gcc/aarch64-none-elf/8.3.0/../../../../aarch64-none-elf/lib/pic\libg.a(lib_a-svfiprintf.o)
 .text.__ssprint_r
                0x0000000000026c1c      0x1c0 c:/devkitpro/devkita64/bin/../lib/gcc/aarch64-none-elf/8.3.0/../../../../aarch64-none-elf/lib/pic\libg.a(lib_a-svfiprintf.o)
                0x0000000000026c1c                __ssprint_r
 .text._svfiprintf_r
                0x0000000000026ddc     0x28ec c:/devkitpro/devkita64/bin/../lib/gcc/aarch64-none-elf/8.3.0/../../../../aarch64-none-elf/lib/pic\libg.a(lib_a-svfiprintf.o)
                0x0000000000026ddc                _svfiprintf_r
 .text._wcsnrtombs_l
                0x00000000000296c8      0x1dc c:/devkitpro/devkita64/bin/../lib/gcc/aarch64-none-elf/8.3.0/../../../../aarch64-none-elf/lib/pic\libg.a(lib_a-wcsnrtombs.o)
                0x00000000000296c8                _wcsnrtombs_l
 *fill*         0x00000000000298a4        0x4 
 .text._wcsnrtombs_r
                0x00000000000298a8       0x54 c:/devkitpro/devkita64/bin/../lib/gcc/aarch64-none-elf/8.3.0/../../../../aarch64-none-elf/lib/pic\libg.a(lib_a-wcsnrtombs.o)
                0x00000000000298a8                _wcsnrtombs_r
 *fill*         0x00000000000298fc        0x4 
 .text.wcsnrtombs
                0x0000000000029900       0x64 c:/devkitpro/devkita64/bin/../lib/gcc/aarch64-none-elf/8.3.0/../../../../aarch64-none-elf/lib/pic\libg.a(lib_a-wcsnrtombs.o)
                0x0000000000029900                wcsnrtombs
 *fill*         0x0000000000029964        0x4 
 .text._wctomb_r
                0x0000000000029968       0x54 c:/devkitpro/devkita64/bin/../lib/gcc/aarch64-none-elf/8.3.0/../../../../aarch64-none-elf/lib/pic\libg.a(lib_a-wctomb_r.o)
                0x0000000000029968                _wctomb_r
 *fill*         0x00000000000299bc        0x4 
 .text.__ascii_wctomb
                0x00000000000299c0       0x34 c:/devkitpro/devkita64/bin/../lib/gcc/aarch64-none-elf/8.3.0/../../../../aarch64-none-elf/lib/pic\libg.a(lib_a-wctomb_r.o)
                0x00000000000299c0                __ascii_wctomb
 *fill*         0x00000000000299f4        0x4 
 .text.__utf8_wctomb
                0x00000000000299f8       0xe4 c:/devkitpro/devkita64/bin/../lib/gcc/aarch64-none-elf/8.3.0/../../../../aarch64-none-elf/lib/pic\libg.a(lib_a-wctomb_r.o)
                0x00000000000299f8                __utf8_wctomb
 *fill*         0x0000000000029adc        0x4 
 .text.__sjis_wctomb
                0x0000000000029ae0       0x84 c:/devkitpro/devkita64/bin/../lib/gcc/aarch64-none-elf/8.3.0/../../../../aarch64-none-elf/lib/pic\libg.a(lib_a-wctomb_r.o)
                0x0000000000029ae0                __sjis_wctomb
 *fill*         0x0000000000029b64        0x4 
 .text.__eucjp_wctomb
                0x0000000000029b68       0xa8 c:/devkitpro/devkita64/bin/../lib/gcc/aarch64-none-elf/8.3.0/../../../../aarch64-none-elf/lib/pic\libg.a(lib_a-wctomb_r.o)
                0x0000000000029b68                __eucjp_wctomb
 .text.__jis_wctomb
                0x0000000000029c10       0xbc c:/devkitpro/devkita64/bin/../lib/gcc/aarch64-none-elf/8.3.0/../../../../aarch64-none-elf/lib/pic\libg.a(lib_a-wctomb_r.o)
                0x0000000000029c10                __jis_wctomb
 *fill*         0x0000000000029ccc        0x4 
 .text._calloc_r
                0x0000000000029cd0       0x94 c:/devkitpro/devkita64/bin/../lib/gcc/aarch64-none-elf/8.3.0/../../../../aarch64-none-elf/lib/pic\libg.a(lib_a-callocr.o)
                0x0000000000029cd0                _calloc_r
 *fill*         0x0000000000029d64        0x4 
 .text.null_write
                0x0000000000029d68        0x8 c:/devkitpro/devkita64/bin/../lib/gcc/aarch64-none-elf/8.3.0/../../../../aarch64-none-elf/lib/pic\libsysbase.a(iosupport.o)
 .text.setDefaultDevice
                0x0000000000029d70       0x18 c:/devkitpro/devkita64/bin/../lib/gcc/aarch64-none-elf/8.3.0/../../../../aarch64-none-elf/lib/pic\libsysbase.a(iosupport.o)
                0x0000000000029d70                setDefaultDevice
 .text.FindDevice
                0x0000000000029d88      0x108 c:/devkitpro/devkita64/bin/../lib/gcc/aarch64-none-elf/8.3.0/../../../../aarch64-none-elf/lib/pic\libsysbase.a(iosupport.o)
                0x0000000000029d88                FindDevice
 .text.RemoveDevice
                0x0000000000029e90       0x34 c:/devkitpro/devkita64/bin/../lib/gcc/aarch64-none-elf/8.3.0/../../../../aarch64-none-elf/lib/pic\libsysbase.a(iosupport.o)
                0x0000000000029e90                RemoveDevice
 *fill*         0x0000000000029ec4        0x4 
 .text.AddDevice
                0x0000000000029ec8       0xd8 c:/devkitpro/devkita64/bin/../lib/gcc/aarch64-none-elf/8.3.0/../../../../aarch64-none-elf/lib/pic\libsysbase.a(iosupport.o)
                0x0000000000029ec8                AddDevice
 .text.GetDeviceOpTab
                0x0000000000029fa0       0x34 c:/devkitpro/devkita64/bin/../lib/gcc/aarch64-none-elf/8.3.0/../../../../aarch64-none-elf/lib/pic\libsysbase.a(iosupport.o)
                0x0000000000029fa0                GetDeviceOpTab
 *fill*         0x0000000000029fd4        0x4 
 .text._sbrk_r  0x0000000000029fd8       0x78 c:/devkitpro/devkita64/bin/../lib/gcc/aarch64-none-elf/8.3.0/../../../../aarch64-none-elf/lib/pic\libsysbase.a(sbrk.o)
                0x0000000000029fd8                _sbrk_r
 .text._exit    0x000000000002a050       0x20 c:/devkitpro/devkita64/bin/../lib/gcc/aarch64-none-elf/8.3.0/../../../../aarch64-none-elf/lib/pic\libsysbase.a(_exit.o)
                0x000000000002a050                _exit
 .text._concatenate_path
                0x000000000002a070      0x234 c:/devkitpro/devkita64/bin/../lib/gcc/aarch64-none-elf/8.3.0/../../../../aarch64-none-elf/lib/pic\libsysbase.a(chdir.o)
                0x000000000002a070                _concatenate_path
 *fill*         0x000000000002a2a4        0x4 
 .text.chdir    0x000000000002a2a8      0x178 c:/devkitpro/devkita64/bin/../lib/gcc/aarch64-none-elf/8.3.0/../../../../aarch64-none-elf/lib/pic\libsysbase.a(chdir.o)
                0x000000000002a2a8                chdir
 .text.getcwd   0x000000000002a420       0xb8 c:/devkitpro/devkita64/bin/../lib/gcc/aarch64-none-elf/8.3.0/../../../../aarch64-none-elf/lib/pic\libsysbase.a(chdir.o)
                0x000000000002a420                getcwd
 .text.timespec2nsec
                0x000000000002a4d8       0x14 c:/devkitpro/devkita64/bin/../lib/gcc/aarch64-none-elf/8.3.0/../../../../aarch64-none-elf/lib/pic\libsysbase.a(locks.o)
                0x000000000002a4d8                timespec2nsec
 *fill*         0x000000000002a4ec        0x4 
 .text.abstimespec2nsec
                0x000000000002a4f0       0xc4 c:/devkitpro/devkita64/bin/../lib/gcc/aarch64-none-elf/8.3.0/../../../../aarch64-none-elf/lib/pic\libsysbase.a(locks.o)
                0x000000000002a4f0                abstimespec2nsec
 *fill*         0x000000000002a5b4        0x4 
 .text.__libc_lock_init
                0x000000000002a5b8        0x8 c:/devkitpro/devkita64/bin/../lib/gcc/aarch64-none-elf/8.3.0/../../../../aarch64-none-elf/lib/pic\libsysbase.a(locks.o)
                0x000000000002a5b8                __libc_lock_init
 .text.__libc_lock_acquire
                0x000000000002a5c0       0x14 c:/devkitpro/devkita64/bin/../lib/gcc/aarch64-none-elf/8.3.0/../../../../aarch64-none-elf/lib/pic\libsysbase.a(locks.o)
                0x000000000002a5c0                __libc_lock_acquire
 *fill*         0x000000000002a5d4        0x4 
 .text.__libc_lock_try_acquire
                0x000000000002a5d8       0x18 c:/devkitpro/devkita64/bin/../lib/gcc/aarch64-none-elf/8.3.0/../../../../aarch64-none-elf/lib/pic\libsysbase.a(locks.o)
                0x000000000002a5d8                __libc_lock_try_acquire
 .text.__libc_lock_release
                0x000000000002a5f0       0x14 c:/devkitpro/devkita64/bin/../lib/gcc/aarch64-none-elf/8.3.0/../../../../aarch64-none-elf/lib/pic\libsysbase.a(locks.o)
                0x000000000002a5f0                __libc_lock_release
 *fill*         0x000000000002a604        0x4 
 .text.__libc_lock_close
                0x000000000002a608        0x4 c:/devkitpro/devkita64/bin/../lib/gcc/aarch64-none-elf/8.3.0/../../../../aarch64-none-elf/lib/pic\libsysbase.a(locks.o)
                0x000000000002a608                __libc_lock_close
 *fill*         0x000000000002a60c        0x4 
 .text.__libc_lock_init_recursive
                0x000000000002a610        0xc c:/devkitpro/devkita64/bin/../lib/gcc/aarch64-none-elf/8.3.0/../../../../aarch64-none-elf/lib/pic\libsysbase.a(locks.o)
                0x000000000002a610                __libc_lock_init_recursive
 *fill*         0x000000000002a61c        0x4 
 .text.__libc_lock_acquire_recursive
                0x000000000002a620       0x14 c:/devkitpro/devkita64/bin/../lib/gcc/aarch64-none-elf/8.3.0/../../../../aarch64-none-elf/lib/pic\libsysbase.a(locks.o)
                0x000000000002a620                __libc_lock_acquire_recursive
 *fill*         0x000000000002a634        0x4 
 .text.__libc_lock_try_acquire_recursive
                0x000000000002a638       0x18 c:/devkitpro/devkita64/bin/../lib/gcc/aarch64-none-elf/8.3.0/../../../../aarch64-none-elf/lib/pic\libsysbase.a(locks.o)
                0x000000000002a638                __libc_lock_try_acquire_recursive
 .text.__libc_lock_release_recursive
                0x000000000002a650       0x14 c:/devkitpro/devkita64/bin/../lib/gcc/aarch64-none-elf/8.3.0/../../../../aarch64-none-elf/lib/pic\libsysbase.a(locks.o)
                0x000000000002a650                __libc_lock_release_recursive
 *fill*         0x000000000002a664        0x4 
 .text.__libc_lock_close_recursive
                0x000000000002a668        0x4 c:/devkitpro/devkita64/bin/../lib/gcc/aarch64-none-elf/8.3.0/../../../../aarch64-none-elf/lib/pic\libsysbase.a(locks.o)
                0x000000000002a668                __libc_lock_close_recursive
 *fill*         0x000000000002a66c        0x4 
 .text.__libc_cond_init
                0x000000000002a670        0xc c:/devkitpro/devkita64/bin/../lib/gcc/aarch64-none-elf/8.3.0/../../../../aarch64-none-elf/lib/pic\libsysbase.a(locks.o)
                0x000000000002a670                __libc_cond_init
 *fill*         0x000000000002a67c        0x4 
 .text.__libc_cond_signal
                0x000000000002a680       0x18 c:/devkitpro/devkita64/bin/../lib/gcc/aarch64-none-elf/8.3.0/../../../../aarch64-none-elf/lib/pic\libsysbase.a(locks.o)
                0x000000000002a680                __libc_cond_signal
 .text.__libc_cond_broadcast
                0x000000000002a698       0x18 c:/devkitpro/devkita64/bin/../lib/gcc/aarch64-none-elf/8.3.0/../../../../aarch64-none-elf/lib/pic\libsysbase.a(locks.o)
                0x000000000002a698                __libc_cond_broadcast
 .text.__libc_cond_wait
                0x000000000002a6b0       0x18 c:/devkitpro/devkita64/bin/../lib/gcc/aarch64-none-elf/8.3.0/../../../../aarch64-none-elf/lib/pic\libsysbase.a(locks.o)
                0x000000000002a6b0                __libc_cond_wait
 .text.__libc_cond_wait_recursive
                0x000000000002a6c8       0x18 c:/devkitpro/devkita64/bin/../lib/gcc/aarch64-none-elf/8.3.0/../../../../aarch64-none-elf/lib/pic\libsysbase.a(locks.o)
                0x000000000002a6c8                __libc_cond_wait_recursive
 .text.__getreent
                0x000000000002a6e0       0x20 c:/devkitpro/devkita64/bin/../lib/gcc/aarch64-none-elf/8.3.0/../../../../aarch64-none-elf/lib/pic\libsysbase.a(getreent.o)
                0x000000000002a6e0                __getreent
 .text.clock_gettime
                0x000000000002a700       0x30 c:/devkitpro/devkita64/bin/../lib/gcc/aarch64-none-elf/8.3.0/../../../../aarch64-none-elf/lib/pic\libsysbase.a(clocks.o)
                0x000000000002a700                clock_gettime
 .text.clock_settime
                0x000000000002a730       0x30 c:/devkitpro/devkita64/bin/../lib/gcc/aarch64-none-elf/8.3.0/../../../../aarch64-none-elf/lib/pic\libsysbase.a(clocks.o)
                0x000000000002a730                clock_settime
 .text.clock_getres
                0x000000000002a760       0x30 c:/devkitpro/devkita64/bin/../lib/gcc/aarch64-none-elf/8.3.0/../../../../aarch64-none-elf/lib/pic\libsysbase.a(clocks.o)
                0x000000000002a760                clock_getres
 .text.__trunctfdf2
                0x000000000002a790      0x348 c:/devkitpro/devkita64/bin/../lib/gcc/aarch64-none-elf/8.3.0/pic\libgcc.a(trunctfdf2.o)
                0x000000000002a790                __trunctfdf2
 .text.__sfp_handle_exceptions
                0x000000000002aad8       0x70 c:/devkitpro/devkita64/bin/../lib/gcc/aarch64-none-elf/8.3.0/pic\libgcc.a(sfp-exceptions.o)
                0x000000000002aad8                __sfp_handle_exceptions
 .text          0x000000000002ab48      0x100 c:/devkitpro/devkita64/bin/../lib/gcc/aarch64-none-elf/8.3.0/../../../../aarch64-none-elf/lib/pic\libg.a(lib_a-strrchr.o)
                0x000000000002ab48                strrchr
                0x000000000002ac48                . = ALIGN (0x8)

.fini           0x000000000002ac48       0x38
 *(.fini)
 .fini          0x000000000002ac48       0x18 c:/devkitpro/devkita64/bin/../lib/gcc/aarch64-none-elf/8.3.0/pic/crti.o
                0x000000000002ac48                _fini
 .fini          0x000000000002ac60       0x1c c:/devkitpro/devkita64/bin/../lib/gcc/aarch64-none-elf/8.3.0/pic/crtn.o
                0x000000000002ac80                . = ALIGN (0x8)
 *fill*         0x000000000002ac7c        0x4 
                0x000000000002b000                . = ALIGN (0x1000)

.rodata         0x000000000002b000     0x1c80
 *(.rodata .rodata.* .gnu.linkonce.r.*)
 .rodata        0x000000000002b000      0x400 main.o
 .rodata.str1.8
                0x000000000002b400      0x6a6 main.o
 *fill*         0x000000000002baa6        0x2 
 .rodata.str1.8
                0x000000000002baa8        0x5 acmd_wrapper.o
 *fill*         0x000000000002baad        0x3 
 .rodata        0x000000000002bab0        0x5 saltysd_helper.o
 *fill*         0x000000000002bab5        0x3 
 .rodata.str1.8
                0x000000000002bab8        0x5 saltysd_helper.o
 *fill*         0x000000000002babd        0x3 
 .rodata        0x000000000002bac0       0x60 lua_bind_hash.o
 .rodata        0x000000000002bb20      0x53c raygun_printer.o
 *fill*         0x000000000002c05c        0x4 
 .rodata.str1.8
                0x000000000002c060      0x147 raygun_printer.o
                                        0x14f (size before relaxing)
 *fill*         0x000000000002c1a7        0x1 
 .rodata._fsdevUnmountDeviceStruct.part.4.str1.8
                0x000000000002c1a8        0x2 S:/UltimateEnvironment/code-mod-example/param-replace/code-mod-framework/lib/libnx_min/nx/lib\libnx_min.a(fs_dev.o)
 *fill*         0x000000000002c1aa        0x6 
 .rodata.error_table
                0x000000000002c1b0       0x20 S:/UltimateEnvironment/code-mod-example/param-replace/code-mod-framework/lib/libnx_min/nx/lib\libnx_min.a(fs_dev.o)
 .rodata.fsdevMountSdmc.str1.8
                0x000000000002c1d0        0x5 S:/UltimateEnvironment/code-mod-example/param-replace/code-mod-framework/lib/libnx_min/nx/lib\libnx_min.a(fs_dev.o)
 *fill*         0x000000000002c1d5        0x3 
 .rodata.fsInitialize.str1.8
                0x000000000002c1d8        0x8 S:/UltimateEnvironment/code-mod-example/param-replace/code-mod-framework/lib/libnx_min/nx/lib\libnx_min.a(fs.o)
 .rodata.setInitialize.str1.8
                0x000000000002c1e0        0x4 S:/UltimateEnvironment/code-mod-example/param-replace/code-mod-framework/lib/libnx_min/nx/lib\libnx_min.a(set.o)
 *fill*         0x000000000002c1e4        0x4 
 .rodata.setsysInitialize.str1.8
                0x000000000002c1e8        0x8 S:/UltimateEnvironment/code-mod-example/param-replace/code-mod-framework/lib/libnx_min/nx/lib\libnx_min.a(set.o)
 .rodata._fatalImpl.str1.8
                0x000000000002c1f0        0x8 S:/UltimateEnvironment/code-mod-example/param-replace/code-mod-framework/lib/libnx_min/nx/lib\libnx_min.a(fatal.o)
 .rodata.smInitialize.str1.8
                0x000000000002c1f8        0x4 S:/UltimateEnvironment/code-mod-example/param-replace/code-mod-framework/lib/libnx_min/nx/lib\libnx_min.a(sm.o)
                                          0x9 (size before relaxing)
 *fill*         0x000000000002c1fc        0x4 
 .rodata        0x000000000002c200       0x24 S:/UltimateEnvironment/code-mod-example/param-replace/code-mod-framework/lib/libnx_min/nx/lib\libnx_min.a(hid.o)
 *fill*         0x000000000002c224        0x4 
 .rodata.hidInitialize.str1.8
                0x000000000002c228        0x4 S:/UltimateEnvironment/code-mod-example/param-replace/code-mod-framework/lib/libnx_min/nx/lib\libnx_min.a(hid.o)
 *fill*         0x000000000002c22c        0x4 
 .rodata.timeInitialize.str1.8
                0x000000000002c230        0xf S:/UltimateEnvironment/code-mod-example/param-replace/code-mod-framework/lib/libnx_min/nx/lib\libnx_min.a(time.o)
 *fill*         0x000000000002c23f        0x1 
 .rodata.CSWTCH.93
                0x000000000002c240       0x14 S:/UltimateEnvironment/code-mod-example/param-replace/code-mod-framework/lib/libnx_min/nx/lib\libnx_min.a(applet.o)
 *fill*         0x000000000002c254        0x4 
 .rodata.appletInitialize.str1.8
                0x000000000002c258       0x19 S:/UltimateEnvironment/code-mod-example/param-replace/code-mod-framework/lib/libnx_min/nx/lib\libnx_min.a(applet.o)
 *fill*         0x000000000002c271        0x7 
 .rodata.__libnx_init_time.str1.8
                0x000000000002c278        0x3 S:/UltimateEnvironment/code-mod-example/param-replace/code-mod-framework/lib/libnx_min/nx/lib\libnx_min.a(newlib.o)
 *fill*         0x000000000002c27b        0x5 
 .rodata.apmInitialize.str1.8
                0x000000000002c280        0x4 S:/UltimateEnvironment/code-mod-example/param-replace/code-mod-framework/lib/libnx_min/nx/lib\libnx_min.a(apm.o)
 *fill*         0x000000000002c284        0x4 
 .rodata._ctype_
                0x000000000002c288      0x101 c:/devkitpro/devkita64/bin/../lib/gcc/aarch64-none-elf/8.3.0/../../../../aarch64-none-elf/lib/pic\libg.a(lib_a-ctype_.o)
                0x000000000002c288                _ctype_
 *fill*         0x000000000002c389        0x3 
 .rodata.get_arg
                0x000000000002c38c       0x92 c:/devkitpro/devkita64/bin/../lib/gcc/aarch64-none-elf/8.3.0/../../../../aarch64-none-elf/lib/pic\libg.a(lib_a-svfprintf.o)
 *fill*         0x000000000002c41e        0x2 
 .rodata._svfprintf_r
                0x000000000002c420       0xb6 c:/devkitpro/devkita64/bin/../lib/gcc/aarch64-none-elf/8.3.0/../../../../aarch64-none-elf/lib/pic\libg.a(lib_a-svfprintf.o)
 .rodata._svfprintf_r.str1.1
                0x000000000002c4d6       0x3b c:/devkitpro/devkita64/bin/../lib/gcc/aarch64-none-elf/8.3.0/../../../../aarch64-none-elf/lib/pic\libg.a(lib_a-svfprintf.o)
 *fill*         0x000000000002c511        0x7 
 .rodata.blanks.6590
                0x000000000002c518       0x10 c:/devkitpro/devkita64/bin/../lib/gcc/aarch64-none-elf/8.3.0/../../../../aarch64-none-elf/lib/pic\libg.a(lib_a-svfprintf.o)
 .rodata.zeroes.6591
                0x000000000002c528       0x10 c:/devkitpro/devkita64/bin/../lib/gcc/aarch64-none-elf/8.3.0/../../../../aarch64-none-elf/lib/pic\libg.a(lib_a-svfprintf.o)
 .rodata._dtoa_r.cst8
                0x000000000002c538       0x18 c:/devkitpro/devkita64/bin/../lib/gcc/aarch64-none-elf/8.3.0/../../../../aarch64-none-elf/lib/pic\libg.a(lib_a-dtoa.o)
 .rodata._dtoa_r.str1.8
                0x000000000002c550       0x1a c:/devkitpro/devkita64/bin/../lib/gcc/aarch64-none-elf/8.3.0/../../../../aarch64-none-elf/lib/pic\libg.a(lib_a-dtoa.o)
 *fill*         0x000000000002c56a        0x2 
 .rodata.__loadlocale
                0x000000000002c56c       0x6a c:/devkitpro/devkita64/bin/../lib/gcc/aarch64-none-elf/8.3.0/../../../../aarch64-none-elf/lib/pic\libg.a(lib_a-locale.o)
 *fill*         0x000000000002c5d6        0x2 
 .rodata.__get_locale_env.str1.8
                0x000000000002c5d8        0xd c:/devkitpro/devkita64/bin/../lib/gcc/aarch64-none-elf/8.3.0/../../../../aarch64-none-elf/lib/pic\libg.a(lib_a-locale.o)
 *fill*         0x000000000002c5e5        0x3 
 .rodata.__loadlocale.str1.8
                0x000000000002c5e8      0x10b c:/devkitpro/devkita64/bin/../lib/gcc/aarch64-none-elf/8.3.0/../../../../aarch64-none-elf/lib/pic\libg.a(lib_a-locale.o)
                                        0x113 (size before relaxing)
 *fill*         0x000000000002c6f3        0x5 
 .rodata.currentlocale.str1.8
                0x000000000002c6f8        0x2 c:/devkitpro/devkita64/bin/../lib/gcc/aarch64-none-elf/8.3.0/../../../../aarch64-none-elf/lib/pic\libg.a(lib_a-locale.o)
 *fill*         0x000000000002c6fa        0x6 
 .rodata.str1.8
                0x000000000002c700       0x5c c:/devkitpro/devkita64/bin/../lib/gcc/aarch64-none-elf/8.3.0/../../../../aarch64-none-elf/lib/pic\libg.a(lib_a-locale.o)
                                         0x64 (size before relaxing)
 *fill*         0x000000000002c75c        0x4 
 .rodata.JIS_action_table
                0x000000000002c760       0x48 c:/devkitpro/devkita64/bin/../lib/gcc/aarch64-none-elf/8.3.0/../../../../aarch64-none-elf/lib/pic\libg.a(lib_a-mbtowc_r.o)
 .rodata.JIS_state_table
                0x000000000002c7a8       0x48 c:/devkitpro/devkita64/bin/../lib/gcc/aarch64-none-elf/8.3.0/../../../../aarch64-none-elf/lib/pic\libg.a(lib_a-mbtowc_r.o)
 .rodata.__mprec_bigtens
                0x000000000002c7f0       0x28 c:/devkitpro/devkita64/bin/../lib/gcc/aarch64-none-elf/8.3.0/../../../../aarch64-none-elf/lib/pic\libg.a(lib_a-mprec.o)
                0x000000000002c7f0                __mprec_bigtens
 .rodata.__mprec_tens
                0x000000000002c818       0xc8 c:/devkitpro/devkita64/bin/../lib/gcc/aarch64-none-elf/8.3.0/../../../../aarch64-none-elf/lib/pic\libg.a(lib_a-mprec.o)
                0x000000000002c818                __mprec_tens
 .rodata.__mprec_tinytens
                0x000000000002c8e0       0x28 c:/devkitpro/devkita64/bin/../lib/gcc/aarch64-none-elf/8.3.0/../../../../aarch64-none-elf/lib/pic\libg.a(lib_a-mprec.o)
                0x000000000002c8e0                __mprec_tinytens
 .rodata.p05.5339
                0x000000000002c908        0xc c:/devkitpro/devkita64/bin/../lib/gcc/aarch64-none-elf/8.3.0/../../../../aarch64-none-elf/lib/pic\libg.a(lib_a-mprec.o)
 .rodata.get_arg
                0x000000000002c914       0x92 c:/devkitpro/devkita64/bin/../lib/gcc/aarch64-none-elf/8.3.0/../../../../aarch64-none-elf/lib/pic\libg.a(lib_a-svfiprintf.o)
 *fill*         0x000000000002c9a6        0x2 
 .rodata._svfiprintf_r
                0x000000000002c9a8       0xb6 c:/devkitpro/devkita64/bin/../lib/gcc/aarch64-none-elf/8.3.0/../../../../aarch64-none-elf/lib/pic\libg.a(lib_a-svfiprintf.o)
 *fill*         0x000000000002ca5e        0x2 
 .rodata.__action_table
                0x000000000002ca60       0x6c c:/devkitpro/devkita64/bin/../lib/gcc/aarch64-none-elf/8.3.0/../../../../aarch64-none-elf/lib/pic\libg.a(lib_a-svfiprintf.o)
                0x000000000002ca60                __action_table
 *fill*         0x000000000002cacc        0x4 
 .rodata.__chclass
                0x000000000002cad0      0x100 c:/devkitpro/devkita64/bin/../lib/gcc/aarch64-none-elf/8.3.0/../../../../aarch64-none-elf/lib/pic\libg.a(lib_a-svfiprintf.o)
                0x000000000002cad0                __chclass
 .rodata.__state_table
                0x000000000002cbd0       0x6c c:/devkitpro/devkita64/bin/../lib/gcc/aarch64-none-elf/8.3.0/../../../../aarch64-none-elf/lib/pic\libg.a(lib_a-svfiprintf.o)
                0x000000000002cbd0                __state_table
 .rodata._svfiprintf_r.str1.1
                0x000000000002cc3c       0x29 c:/devkitpro/devkita64/bin/../lib/gcc/aarch64-none-elf/8.3.0/../../../../aarch64-none-elf/lib/pic\libg.a(lib_a-svfiprintf.o)
 *fill*         0x000000000002cc3c        0x4 
 .rodata.blanks.6569
                0x000000000002cc40       0x10 c:/devkitpro/devkita64/bin/../lib/gcc/aarch64-none-elf/8.3.0/../../../../aarch64-none-elf/lib/pic\libg.a(lib_a-svfiprintf.o)
 .rodata.zeroes.6570
                0x000000000002cc50       0x10 c:/devkitpro/devkita64/bin/../lib/gcc/aarch64-none-elf/8.3.0/../../../../aarch64-none-elf/lib/pic\libg.a(lib_a-svfiprintf.o)
 .rodata.AddDevice.str1.8
                0x000000000002cc60        0x8 c:/devkitpro/devkita64/bin/../lib/gcc/aarch64-none-elf/8.3.0/../../../../aarch64-none-elf/lib/pic\libsysbase.a(iosupport.o)
 .rodata.DIRECTORY_PARENT
                0x000000000002cc68        0x3 c:/devkitpro/devkita64/bin/../lib/gcc/aarch64-none-elf/8.3.0/../../../../aarch64-none-elf/lib/pic\libsysbase.a(chdir.o)
                0x000000000002cc68                DIRECTORY_PARENT
 *fill*         0x000000000002cc6b        0x5 
 .rodata.DIRECTORY_SEPARATOR
                0x000000000002cc70        0x2 c:/devkitpro/devkita64/bin/../lib/gcc/aarch64-none-elf/8.3.0/../../../../aarch64-none-elf/lib/pic\libsysbase.a(chdir.o)
                0x000000000002cc70                DIRECTORY_SEPARATOR
 *fill*         0x000000000002cc72        0x6 
 .rodata.DIRECTORY_THIS
                0x000000000002cc78        0x2 c:/devkitpro/devkita64/bin/../lib/gcc/aarch64-none-elf/8.3.0/../../../../aarch64-none-elf/lib/pic\libsysbase.a(chdir.o)
                0x000000000002cc78                DIRECTORY_THIS
                0x000000000002cc80                . = ALIGN (0x8)
 *fill*         0x000000000002cc7a        0x6 

.eh_frame_hdr   0x000000000002cc80        0x0
                0x000000000002cc80                __eh_frame_hdr_start = .
 *(.eh_frame_hdr)
 *(.eh_frame_entry .eh_frame_entry.*)
                0x000000000002cc80                __eh_frame_hdr_end = .

.eh_frame       0x000000000002cc80     0x77a8
 *(.eh_frame)
 .eh_frame      0x000000000002cc80       0x80 c:/devkitpro/devkita64/bin/../lib/gcc/aarch64-none-elf/8.3.0/pic/crtbegin.o
 .eh_frame      0x000000000002cd00      0x330 main.o
                                        0x348 (size before relaxing)
 .eh_frame      0x000000000002d030      0x1f0 acmd_wrapper.o
                                        0x208 (size before relaxing)
 .eh_frame      0x000000000002d220       0x48 saltysd_helper.o
                                         0x60 (size before relaxing)
 .eh_frame      0x000000000002d268       0x40 lua_bind_hash.o
                                         0x58 (size before relaxing)
 .eh_frame      0x000000000002d2a8       0xd8 l2c_imports.o
                                         0xe8 (size before relaxing)
 .eh_frame      0x000000000002d380      0x120 raygun_printer.o
                                        0x130 (size before relaxing)
 .eh_frame      0x000000000002d4a0       0x28 S:/UltimateEnvironment/code-mod-example/param-replace/code-mod-framework/lib/libnx_min/nx/lib\libnx_min.a(exception.o)
                                         0x40 (size before relaxing)
 .eh_frame      0x000000000002d4c8       0xa8 S:/UltimateEnvironment/code-mod-example/param-replace/code-mod-framework/lib/libnx_min/nx/lib\libnx_min.a(argv.o)
                                         0xb8 (size before relaxing)
 .eh_frame      0x000000000002d570      0x1c0 S:/UltimateEnvironment/code-mod-example/param-replace/code-mod-framework/lib/libnx_min/nx/lib\libnx_min.a(env.o)
                                        0x1d8 (size before relaxing)
 .eh_frame      0x000000000002d730       0x68 S:/UltimateEnvironment/code-mod-example/param-replace/code-mod-framework/lib/libnx_min/nx/lib\libnx_min.a(init.o)
                                         0xb8 (size before relaxing)
 .eh_frame      0x000000000002d798       0x28 S:/UltimateEnvironment/code-mod-example/param-replace/code-mod-framework/lib/libnx_min/nx/lib\libnx_min.a(hosversion.o)
                                         0x40 (size before relaxing)
 .eh_frame      0x000000000002d7c0       0x18 S:/UltimateEnvironment/code-mod-example/param-replace/code-mod-framework/lib/libnx_min/nx/lib\libnx_min.a(dynamic.o)
                                         0x30 (size before relaxing)
 .eh_frame      0x000000000002d7d8      0x800 S:/UltimateEnvironment/code-mod-example/param-replace/code-mod-framework/lib/libnx_min/nx/lib\libnx_min.a(fs_dev.o)
                                        0x818 (size before relaxing)
 .eh_frame      0x000000000002dfd8       0x18 S:/UltimateEnvironment/code-mod-example/param-replace/code-mod-framework/lib/libnx_min/nx/lib\libnx_min.a(decode_utf8.o)
                                         0x28 (size before relaxing)
 .eh_frame      0x000000000002dff0      0x7d0 S:/UltimateEnvironment/code-mod-example/param-replace/code-mod-framework/lib/libnx_min/nx/lib\libnx_min.a(svc.o)
                                        0x7e8 (size before relaxing)
 .eh_frame      0x000000000002e7c0       0x18 S:/UltimateEnvironment/code-mod-example/param-replace/code-mod-framework/lib/libnx_min/nx/lib\libnx_min.a(readtp.o)
                                         0x28 (size before relaxing)
 .eh_frame      0x000000000002e7d8      0x108 S:/UltimateEnvironment/code-mod-example/param-replace/code-mod-framework/lib/libnx_min/nx/lib\libnx_min.a(virtmem.o)
                                        0x120 (size before relaxing)
 .eh_frame      0x000000000002e8e0       0xb0 S:/UltimateEnvironment/code-mod-example/param-replace/code-mod-framework/lib/libnx_min/nx/lib\libnx_min.a(mutex.o)
                                         0xc0 (size before relaxing)
 .eh_frame      0x000000000002e990      0xed0 S:/UltimateEnvironment/code-mod-example/param-replace/code-mod-framework/lib/libnx_min/nx/lib\libnx_min.a(fs.o)
                                        0xee0 (size before relaxing)
 .eh_frame      0x000000000002f860      0x540 S:/UltimateEnvironment/code-mod-example/param-replace/code-mod-framework/lib/libnx_min/nx/lib\libnx_min.a(set.o)
                                        0x550 (size before relaxing)
 .eh_frame      0x000000000002fda0       0x70 S:/UltimateEnvironment/code-mod-example/param-replace/code-mod-framework/lib/libnx_min/nx/lib\libnx_min.a(fatal.o)
                                         0x88 (size before relaxing)
 .eh_frame      0x000000000002fe10      0x1d8 S:/UltimateEnvironment/code-mod-example/param-replace/code-mod-framework/lib/libnx_min/nx/lib\libnx_min.a(sm.o)
                                        0x1f0 (size before relaxing)
 .eh_frame      0x000000000002ffe8      0xbe0 S:/UltimateEnvironment/code-mod-example/param-replace/code-mod-framework/lib/libnx_min/nx/lib\libnx_min.a(hid.o)
                                        0xbf0 (size before relaxing)
 .eh_frame      0x0000000000030bc8      0x180 S:/UltimateEnvironment/code-mod-example/param-replace/code-mod-framework/lib/libnx_min/nx/lib\libnx_min.a(time.o)
                                        0x198 (size before relaxing)
 .eh_frame      0x0000000000030d48     0x1448 S:/UltimateEnvironment/code-mod-example/param-replace/code-mod-framework/lib/libnx_min/nx/lib\libnx_min.a(applet.o)
                                       0x1458 (size before relaxing)
 .eh_frame      0x0000000000032190      0x408 S:/UltimateEnvironment/code-mod-example/param-replace/code-mod-framework/lib/libnx_min/nx/lib\libnx_min.a(newlib.o)
                                        0x420 (size before relaxing)
 .eh_frame      0x0000000000032598      0x1b8 S:/UltimateEnvironment/code-mod-example/param-replace/code-mod-framework/lib/libnx_min/nx/lib\libnx_min.a(thread.o)
                                        0x1c8 (size before relaxing)
 .eh_frame      0x0000000000032750       0x30 S:/UltimateEnvironment/code-mod-example/param-replace/code-mod-framework/lib/libnx_min/nx/lib\libnx_min.a(condvar.o)
                                         0x48 (size before relaxing)
 .eh_frame      0x0000000000032780       0xb0 S:/UltimateEnvironment/code-mod-example/param-replace/code-mod-framework/lib/libnx_min/nx/lib\libnx_min.a(event.o)
                                         0xc0 (size before relaxing)
 .eh_frame      0x0000000000032830       0xf0 S:/UltimateEnvironment/code-mod-example/param-replace/code-mod-framework/lib/libnx_min/nx/lib\libnx_min.a(tmem.o)
                                        0x108 (size before relaxing)
 .eh_frame      0x0000000000032920       0xb0 S:/UltimateEnvironment/code-mod-example/param-replace/code-mod-framework/lib/libnx_min/nx/lib\libnx_min.a(rwlock.o)
                                         0xc0 (size before relaxing)
 .eh_frame      0x00000000000329d0       0xb0 S:/UltimateEnvironment/code-mod-example/param-replace/code-mod-framework/lib/libnx_min/nx/lib\libnx_min.a(wait.o)
                                         0xc8 (size before relaxing)
 .eh_frame      0x0000000000032a80       0xb8 S:/UltimateEnvironment/code-mod-example/param-replace/code-mod-framework/lib/libnx_min/nx/lib\libnx_min.a(shmem.o)
                                         0xc8 (size before relaxing)
 .eh_frame      0x0000000000032b38       0xc8 S:/UltimateEnvironment/code-mod-example/param-replace/code-mod-framework/lib/libnx_min/nx/lib\libnx_min.a(detect.o)
                                         0xd8 (size before relaxing)
 .eh_frame      0x0000000000032c00      0x110 S:/UltimateEnvironment/code-mod-example/param-replace/code-mod-framework/lib/libnx_min/nx/lib\libnx_min.a(apm.o)
                                        0x128 (size before relaxing)
 .eh_frame      0x0000000000032d10       0x68 c:/devkitpro/devkita64/bin/../lib/gcc/aarch64-none-elf/8.3.0/../../../../aarch64-none-elf/lib/pic\libg.a(lib_a-bsearch.o)
                                         0x78 (size before relaxing)
 .eh_frame      0x0000000000032d78       0x18 c:/devkitpro/devkita64/bin/../lib/gcc/aarch64-none-elf/8.3.0/../../../../aarch64-none-elf/lib/pic\libg.a(lib_a-ctype_.o)
                                         0x28 (size before relaxing)
 .eh_frame      0x0000000000032d90       0x20 c:/devkitpro/devkita64/bin/../lib/gcc/aarch64-none-elf/8.3.0/../../../../aarch64-none-elf/lib/pic\libg.a(lib_a-errno.o)
                                         0x38 (size before relaxing)
 .eh_frame      0x0000000000032db0       0x20 c:/devkitpro/devkita64/bin/../lib/gcc/aarch64-none-elf/8.3.0/../../../../aarch64-none-elf/lib/pic\libg.a(lib_a-exit.o)
                                         0x30 (size before relaxing)
 .eh_frame      0x0000000000032dd0       0x28 c:/devkitpro/devkita64/bin/../lib/gcc/aarch64-none-elf/8.3.0/../../../../aarch64-none-elf/lib/pic\libg.a(lib_a-fini.o)
                                         0x38 (size before relaxing)
 .eh_frame      0x0000000000032df8       0x28 c:/devkitpro/devkita64/bin/../lib/gcc/aarch64-none-elf/8.3.0/../../../../aarch64-none-elf/lib/pic\libg.a(lib_a-init.o)
                                         0x40 (size before relaxing)
 .eh_frame      0x0000000000032e20       0x28 c:/devkitpro/devkita64/bin/../lib/gcc/aarch64-none-elf/8.3.0/../../../../aarch64-none-elf/lib/pic\libg.a(lib_a-malign.o)
                                         0x38 (size before relaxing)
 .eh_frame      0x0000000000032e48       0x50 c:/devkitpro/devkita64/bin/../lib/gcc/aarch64-none-elf/8.3.0/../../../../aarch64-none-elf/lib/pic\libg.a(lib_a-malignr.o)
                                         0x68 (size before relaxing)
 .eh_frame      0x0000000000032e98       0x40 c:/devkitpro/devkita64/bin/../lib/gcc/aarch64-none-elf/8.3.0/../../../../aarch64-none-elf/lib/pic\libg.a(lib_a-malloc.o)
                                         0x58 (size before relaxing)
 .eh_frame      0x0000000000032ed8       0xd0 c:/devkitpro/devkita64/bin/../lib/gcc/aarch64-none-elf/8.3.0/../../../../aarch64-none-elf/lib/pic\libg.a(lib_a-mallocr.o)
                                         0xe0 (size before relaxing)
 .eh_frame      0x0000000000032fa8       0x28 c:/devkitpro/devkita64/bin/../lib/gcc/aarch64-none-elf/8.3.0/../../../../aarch64-none-elf/lib/pic\libg.a(lib_a-mlock.o)
                                         0x40 (size before relaxing)
 .eh_frame      0x0000000000032fd0       0x48 c:/devkitpro/devkita64/bin/../lib/gcc/aarch64-none-elf/8.3.0/../../../../aarch64-none-elf/lib/pic\libg.a(lib_a-setenv.o)
                                         0x58 (size before relaxing)
 .eh_frame      0x0000000000033018       0xb0 c:/devkitpro/devkita64/bin/../lib/gcc/aarch64-none-elf/8.3.0/../../../../aarch64-none-elf/lib/pic\libg.a(lib_a-setenv_r.o)
                                         0xc8 (size before relaxing)
 .eh_frame      0x00000000000330c8       0x18 c:/devkitpro/devkita64/bin/../lib/gcc/aarch64-none-elf/8.3.0/../../../../aarch64-none-elf/lib/pic\libg.a(lib_a-strncat.o)
                                         0x28 (size before relaxing)
 .eh_frame      0x00000000000330e0       0x18 c:/devkitpro/devkita64/bin/../lib/gcc/aarch64-none-elf/8.3.0/../../../../aarch64-none-elf/lib/pic\libg.a(lib_a-strncpy.o)
                                         0x28 (size before relaxing)
 .eh_frame      0x00000000000330f8       0x18 c:/devkitpro/devkita64/bin/../lib/gcc/aarch64-none-elf/8.3.0/../../../../aarch64-none-elf/lib/pic\libg.a(lib_a-toupper.o)
                                         0x28 (size before relaxing)
 .eh_frame      0x0000000000033110       0x58 c:/devkitpro/devkita64/bin/../lib/gcc/aarch64-none-elf/8.3.0/../../../../aarch64-none-elf/lib/pic\libg.a(lib_a-vsnprintf.o)
                                         0x68 (size before relaxing)
 .eh_frame      0x0000000000033168       0x40 c:/devkitpro/devkita64/bin/../lib/gcc/aarch64-none-elf/8.3.0/../../../../aarch64-none-elf/lib/pic\libg.a(lib_a-__call_atexit.o)
                                         0x58 (size before relaxing)
 .eh_frame      0x00000000000331a8       0x28 c:/devkitpro/devkita64/bin/../lib/gcc/aarch64-none-elf/8.3.0/../../../../aarch64-none-elf/lib/pic\libg.a(lib_a-envlock.o)
                                         0x40 (size before relaxing)
 .eh_frame      0x00000000000331d0       0x80 c:/devkitpro/devkita64/bin/../lib/gcc/aarch64-none-elf/8.3.0/../../../../aarch64-none-elf/lib/pic\libg.a(lib_a-freer.o)
                                         0x98 (size before relaxing)
 .eh_frame      0x0000000000033250       0x68 c:/devkitpro/devkita64/bin/../lib/gcc/aarch64-none-elf/8.3.0/../../../../aarch64-none-elf/lib/pic\libg.a(lib_a-getenv_r.o)
                                         0x78 (size before relaxing)
 .eh_frame      0x00000000000332b8       0xf0 c:/devkitpro/devkita64/bin/../lib/gcc/aarch64-none-elf/8.3.0/../../../../aarch64-none-elf/lib/pic\libg.a(lib_a-reallocr.o)
                                        0x108 (size before relaxing)
 .eh_frame      0x00000000000333a8       0xb8 c:/devkitpro/devkita64/bin/../lib/gcc/aarch64-none-elf/8.3.0/../../../../aarch64-none-elf/lib/pic\libg.a(lib_a-svfprintf.o)
                                         0xc8 (size before relaxing)
 .eh_frame      0x0000000000033460       0x70 c:/devkitpro/devkita64/bin/../lib/gcc/aarch64-none-elf/8.3.0/../../../../aarch64-none-elf/lib/pic\libg.a(lib_a-wcrtomb.o)
                                         0x80 (size before relaxing)
 .eh_frame      0x00000000000334d0       0x38 c:/devkitpro/devkita64/bin/../lib/gcc/aarch64-none-elf/8.3.0/../../../../aarch64-none-elf/lib/pic\libg.a(lib_a-wcsrtombs.o)
                                         0x50 (size before relaxing)
 .eh_frame      0x0000000000033508       0x98 c:/devkitpro/devkita64/bin/../lib/gcc/aarch64-none-elf/8.3.0/../../../../aarch64-none-elf/lib/pic\libg.a(lib_a-dtoa.o)
                                         0xb0 (size before relaxing)
 .eh_frame      0x00000000000335a0       0x58 c:/devkitpro/devkita64/bin/../lib/gcc/aarch64-none-elf/8.3.0/../../../../aarch64-none-elf/lib/pic\libg.a(lib_a-localeconv.o)
                                         0x68 (size before relaxing)
 .eh_frame      0x00000000000335f8      0x200 c:/devkitpro/devkita64/bin/../lib/gcc/aarch64-none-elf/8.3.0/../../../../aarch64-none-elf/lib/pic\libg.a(lib_a-locale.o)
                                        0x210 (size before relaxing)
 .eh_frame      0x00000000000337f8       0xf8 c:/devkitpro/devkita64/bin/../lib/gcc/aarch64-none-elf/8.3.0/../../../../aarch64-none-elf/lib/pic\libg.a(lib_a-mbtowc_r.o)
                                        0x110 (size before relaxing)
 .eh_frame      0x00000000000338f0      0x2f8 c:/devkitpro/devkita64/bin/../lib/gcc/aarch64-none-elf/8.3.0/../../../../aarch64-none-elf/lib/pic\libg.a(lib_a-mprec.o)
                                        0x310 (size before relaxing)
 .eh_frame      0x0000000000033be8       0x18 c:/devkitpro/devkita64/bin/../lib/gcc/aarch64-none-elf/8.3.0/../../../../aarch64-none-elf/lib/pic\libg.a(lib_a-s_frexp.o)
                                         0x28 (size before relaxing)
 .eh_frame      0x0000000000033c00       0x18 c:/devkitpro/devkita64/bin/../lib/gcc/aarch64-none-elf/8.3.0/../../../../aarch64-none-elf/lib/pic\libg.a(lib_a-strcasecmp.o)
                                         0x28 (size before relaxing)
 .eh_frame      0x0000000000033c18       0x28 c:/devkitpro/devkita64/bin/../lib/gcc/aarch64-none-elf/8.3.0/../../../../aarch64-none-elf/lib/pic\libg.a(lib_a-strcat.o)
                                         0x38 (size before relaxing)
 .eh_frame      0x0000000000033c40       0x18 c:/devkitpro/devkita64/bin/../lib/gcc/aarch64-none-elf/8.3.0/../../../../aarch64-none-elf/lib/pic\libg.a(lib_a-strlcpy.o)
                                         0x28 (size before relaxing)
 .eh_frame      0x0000000000033c58       0x18 c:/devkitpro/devkita64/bin/../lib/gcc/aarch64-none-elf/8.3.0/../../../../aarch64-none-elf/lib/pic\libg.a(lib_a-strncasecmp.o)
                                         0x28 (size before relaxing)
 .eh_frame      0x0000000000033c70       0x80 c:/devkitpro/devkita64/bin/../lib/gcc/aarch64-none-elf/8.3.0/../../../../aarch64-none-elf/lib/pic\libg.a(lib_a-strtol.o)
                                         0x98 (size before relaxing)
 .eh_frame      0x0000000000033cf0       0xe0 c:/devkitpro/devkita64/bin/../lib/gcc/aarch64-none-elf/8.3.0/../../../../aarch64-none-elf/lib/pic\libg.a(lib_a-svfiprintf.o)
                                         0xf8 (size before relaxing)
 .eh_frame      0x0000000000033dd0      0x128 c:/devkitpro/devkita64/bin/../lib/gcc/aarch64-none-elf/8.3.0/../../../../aarch64-none-elf/lib/pic\libg.a(lib_a-wcsnrtombs.o)
                                        0x138 (size before relaxing)
 .eh_frame      0x0000000000033ef8       0x88 c:/devkitpro/devkita64/bin/../lib/gcc/aarch64-none-elf/8.3.0/../../../../aarch64-none-elf/lib/pic\libg.a(lib_a-wctomb_r.o)
                                         0xa0 (size before relaxing)
 .eh_frame      0x0000000000033f80       0x30 c:/devkitpro/devkita64/bin/../lib/gcc/aarch64-none-elf/8.3.0/../../../../aarch64-none-elf/lib/pic\libg.a(lib_a-callocr.o)
                                         0x40 (size before relaxing)
 .eh_frame      0x0000000000033fb0      0x118 c:/devkitpro/devkita64/bin/../lib/gcc/aarch64-none-elf/8.3.0/../../../../aarch64-none-elf/lib/pic\libsysbase.a(iosupport.o)
                                        0x130 (size before relaxing)
 .eh_frame      0x00000000000340c8       0x18 c:/devkitpro/devkita64/bin/../lib/gcc/aarch64-none-elf/8.3.0/../../../../aarch64-none-elf/lib/pic\libsysbase.a(sbrk.o)
                                         0x28 (size before relaxing)
 .eh_frame      0x00000000000340e0       0x20 c:/devkitpro/devkita64/bin/../lib/gcc/aarch64-none-elf/8.3.0/../../../../aarch64-none-elf/lib/pic\libsysbase.a(_exit.o)
                                         0x38 (size before relaxing)
 .eh_frame      0x0000000000034100      0x110 c:/devkitpro/devkita64/bin/../lib/gcc/aarch64-none-elf/8.3.0/../../../../aarch64-none-elf/lib/pic\libsysbase.a(chdir.o)
                                        0x128 (size before relaxing)
 .eh_frame      0x0000000000034210      0x168 c:/devkitpro/devkita64/bin/../lib/gcc/aarch64-none-elf/8.3.0/../../../../aarch64-none-elf/lib/pic\libsysbase.a(locks.o)
                                        0x178 (size before relaxing)
 .eh_frame      0x0000000000034378       0x18 c:/devkitpro/devkita64/bin/../lib/gcc/aarch64-none-elf/8.3.0/../../../../aarch64-none-elf/lib/pic\libsysbase.a(getreent.o)
                                         0x28 (size before relaxing)
 .eh_frame      0x0000000000034390       0x60 c:/devkitpro/devkita64/bin/../lib/gcc/aarch64-none-elf/8.3.0/../../../../aarch64-none-elf/lib/pic\libsysbase.a(clocks.o)
                                         0x78 (size before relaxing)
 .eh_frame      0x00000000000343f0       0x20 c:/devkitpro/devkita64/bin/../lib/gcc/aarch64-none-elf/8.3.0/pic\libgcc.a(trunctfdf2.o)
                                         0x38 (size before relaxing)
 .eh_frame      0x0000000000034410       0x14 c:/devkitpro/devkita64/bin/../lib/gcc/aarch64-none-elf/8.3.0/pic\libgcc.a(sfp-exceptions.o)
                                         0x28 (size before relaxing)
 .eh_frame      0x0000000000034424        0x4 c:/devkitpro/devkita64/bin/../lib/gcc/aarch64-none-elf/8.3.0/pic/crtend.o
 *(.eh_frame.*)

.gcc_except_table
 *(.gcc_except_table .gcc_except_table.*)

.gnu_extab
 *(.gnu_extab*)

.dynamic        0x0000000000034428      0x1a0
 *(.dynamic)
 .dynamic       0x0000000000034428      0x1a0 c:/devkitpro/devkita64/bin/../lib/gcc/aarch64-none-elf/8.3.0/pic/crti.o
                0x0000000000034428                _DYNAMIC

.dynsym         0x00000000000345c8     0x4758
 *(.dynsym)
 .dynsym        0x00000000000345c8     0x4758 c:/devkitpro/devkita64/bin/../lib/gcc/aarch64-none-elf/8.3.0/pic/crti.o

.dynstr         0x0000000000038d20     0x3b67
 *(.dynstr)
 .dynstr        0x0000000000038d20     0x3b67 c:/devkitpro/devkita64/bin/../lib/gcc/aarch64-none-elf/8.3.0/pic/crti.o

.rela.dyn       0x000000000003c888     0x30c0
 *(.rela.*)
 .rela.got      0x000000000003c888      0xca8 c:/devkitpro/devkita64/bin/../lib/gcc/aarch64-none-elf/8.3.0/pic/crti.o
 .rela.plt      0x000000000003f888       0xc0 c:/devkitpro/devkita64/bin/../lib/gcc/aarch64-none-elf/8.3.0/pic/crti.o
 .rela.bss      0x000000000003d5f0        0x0 c:/devkitpro/devkita64/bin/../lib/gcc/aarch64-none-elf/8.3.0/pic/crti.o
 .rela.data.rel.ro
                0x000000000003d5f0        0x0 c:/devkitpro/devkita64/bin/../lib/gcc/aarch64-none-elf/8.3.0/pic/crti.o
 .rela.init_array
                0x000000000003d530       0x18 c:/devkitpro/devkita64/bin/../lib/gcc/aarch64-none-elf/8.3.0/pic/crti.o
 .rela.fini_array
                0x000000000003d548       0x18 c:/devkitpro/devkita64/bin/../lib/gcc/aarch64-none-elf/8.3.0/pic/crti.o
 .rela.ifunc    0x000000000003d620        0x0 c:/devkitpro/devkita64/bin/../lib/gcc/aarch64-none-elf/8.3.0/pic/crti.o
 .rela.data.rel.local
                0x000000000003d560      0x3c0 c:/devkitpro/devkita64/bin/../lib/gcc/aarch64-none-elf/8.3.0/pic/crti.o
 .rela.data.rel.ro.local.fsdev_devoptab
                0x000000000003d920      0x210 c:/devkitpro/devkita64/bin/../lib/gcc/aarch64-none-elf/8.3.0/pic/crti.o
 .rela.data.rel.local._impure_ptr
                0x000000000003db30       0x18 c:/devkitpro/devkita64/bin/../lib/gcc/aarch64-none-elf/8.3.0/pic/crti.o
 .rela.data.rel.local.impure_data
                0x000000000003db48       0x48 c:/devkitpro/devkita64/bin/../lib/gcc/aarch64-none-elf/8.3.0/pic/crti.o
 .rela.data.rel.ro.local._global_impure_ptr
                0x000000000003db90       0x18 c:/devkitpro/devkita64/bin/../lib/gcc/aarch64-none-elf/8.3.0/pic/crti.o
 .rela.data.rel.__malloc_av_
                0x000000000003dba8     0x1800 c:/devkitpro/devkita64/bin/../lib/gcc/aarch64-none-elf/8.3.0/pic/crti.o
 .rela.data.rel.local.environ
                0x000000000003f3a8       0x18 c:/devkitpro/devkita64/bin/../lib/gcc/aarch64-none-elf/8.3.0/pic/crti.o
 .rela.data.rel.__global_locale
                0x000000000003f3c0      0x138 c:/devkitpro/devkita64/bin/../lib/gcc/aarch64-none-elf/8.3.0/pic/crti.o
 .rela.data.rel.ro.__C_locale
                0x000000000003f4f8      0x138 c:/devkitpro/devkita64/bin/../lib/gcc/aarch64-none-elf/8.3.0/pic/crti.o
 .rela.data.rel.ro.local.categories
                0x000000000003f630       0xa8 c:/devkitpro/devkita64/bin/../lib/gcc/aarch64-none-elf/8.3.0/pic/crti.o
 .rela.data.rel.devoptab_list
                0x000000000003f6d8      0x180 c:/devkitpro/devkita64/bin/../lib/gcc/aarch64-none-elf/8.3.0/pic/crti.o
 .rela.data.rel.ro.local.dotab_stdnull
                0x000000000003f858       0x30 c:/devkitpro/devkita64/bin/../lib/gcc/aarch64-none-elf/8.3.0/pic/crti.o

.interp         0x000000000003f948        0xd
 *(.interp)
 .interp        0x000000000003f948        0xd c:/devkitpro/devkita64/bin/../lib/gcc/aarch64-none-elf/8.3.0/pic/crti.o

.hash           0x000000000003f958     0x1410
 *(.hash)
 .hash          0x000000000003f958     0x1410 c:/devkitpro/devkita64/bin/../lib/gcc/aarch64-none-elf/8.3.0/pic/crti.o

.gnu.hash
 *(.gnu.hash)

.gnu.version    0x0000000000040d68        0x0
 *(.gnu.version)
 .gnu.version   0x0000000000040d68        0x0 c:/devkitpro/devkita64/bin/../lib/gcc/aarch64-none-elf/8.3.0/pic/crti.o

.gnu.version_d  0x0000000000040d68        0x0
 *(.gnu.version_d)
 .gnu.version_d
                0x0000000000040d68        0x0 c:/devkitpro/devkita64/bin/../lib/gcc/aarch64-none-elf/8.3.0/pic/crti.o

.gnu.version_r  0x0000000000040d68        0x0
 *(.gnu.version_r)
 .gnu.version_r
                0x0000000000040d68        0x0 c:/devkitpro/devkita64/bin/../lib/gcc/aarch64-none-elf/8.3.0/pic/crti.o

.note.gnu.build-id
                0x0000000000040d68       0x24
 *(.note.gnu.build-id)
 .note.gnu.build-id
                0x0000000000040d68       0x24 c:/devkitpro/devkita64/bin/../lib/gcc/aarch64-none-elf/8.3.0/pic/crti.o
                0x0000000000041000                . = ALIGN (0x1000)

.eh_frame
 *(.eh_frame)
 *(.eh_frame.*)

.gcc_except_table
 *(.gcc_except_table .gcc_except_table.*)

.gnu_extab
 *(.gnu_extab*)

.exception_ranges
 *(.exception_ranges .exception_ranges*)

.tdata          0x0000000000041000        0x0
                0x0000000000041000                __tdata_lma = .
 *(.tdata .tdata.* .gnu.linkonce.td.*)
                0x0000000000041000                . = ALIGN (0x8)
                0x0000000000041000                __tdata_lma_end = .

.tbss           0x0000000000041000     0x4408
 *(.tbss .tbss.* .gnu.linkonce.tb.*)
 .tbss.__fixedpath
                0x0000000000041000      0x401 S:/UltimateEnvironment/code-mod-example/param-replace/code-mod-framework/lib/libnx_min/nx/lib\libnx_min.a(fs_dev.o)
 *fill*         0x0000000000041401        0x3 
 .tbss.fsdev_last_result
                0x0000000000041404        0x4 S:/UltimateEnvironment/code-mod-example/param-replace/code-mod-framework/lib/libnx_min/nx/lib\libnx_min.a(fs_dev.o)
 .tbss.tmp_buffer.7389
                0x0000000000041408     0x2000 S:/UltimateEnvironment/code-mod-example/param-replace/code-mod-framework/lib/libnx_min/nx/lib\libnx_min.a(fs_dev.o)
 .tbss.tmp_buffer.7413
                0x0000000000043408     0x2000 S:/UltimateEnvironment/code-mod-example/param-replace/code-mod-framework/lib/libnx_min/nx/lib\libnx_min.a(fs_dev.o)
 *(.tcommon)
                0x0000000000045408                . = ALIGN (0x8)

.preinit_array  0x0000000000041000        0x0
                0x0000000000041000                PROVIDE (__preinit_array_start = .)
 *(.preinit_array)
                0x0000000000041000                PROVIDE (__preinit_array_end = .)

.init_array     0x0000000000041000        0x8
                0x0000000000041000                PROVIDE (__init_array_start = .)
 *(SORT_BY_NAME(.init_array.*))
 *(.init_array)
 .init_array    0x0000000000041000        0x8 c:/devkitpro/devkita64/bin/../lib/gcc/aarch64-none-elf/8.3.0/pic/crtbegin.o
                0x0000000000041008                PROVIDE (__init_array_end = .)

.fini_array     0x0000000000041008        0x8
                0x0000000000041008                PROVIDE (__fini_array_start = .)
 *(.fini_array)
 .fini_array    0x0000000000041008        0x8 c:/devkitpro/devkita64/bin/../lib/gcc/aarch64-none-elf/8.3.0/pic/crtbegin.o
 *(SORT_BY_NAME(.fini_array.*))
                0x0000000000041010                PROVIDE (__fini_array_end = .)

.ctors
 *crtbegin.o(.ctors)
 *(EXCLUDE_FILE(*crtend.o) .ctors)
 *(SORT_BY_NAME(.ctors.*))
 *(.ctors)

.dtors
 *crtbegin.o(.dtors)
 *(EXCLUDE_FILE(*crtend.o) .dtors)
 *(SORT_BY_NAME(.dtors.*))
 *(.dtors)
                0x0000000000041010                __got_start__ = .

.got            0x0000000000041010      0x440
 *(.got)
 .got           0x0000000000041010      0x440 c:/devkitpro/devkita64/bin/../lib/gcc/aarch64-none-elf/8.3.0/pic/crti.o
                0x0000000000041010                _GLOBAL_OFFSET_TABLE_
 *(.igot)

.got.plt        0x0000000000041450       0x58
 *(.got.plt)
 .got.plt       0x0000000000041450       0x58 c:/devkitpro/devkita64/bin/../lib/gcc/aarch64-none-elf/8.3.0/pic/crti.o
 *(.igot.plt)
                0x00000000000414a8                __got_end__ = .

.data           0x00000000000414a8     0x1ef8
 *(.data .data.* .gnu.linkonce.d.*)
 .data.rel.ro   0x00000000000414a8        0x0 c:/devkitpro/devkita64/bin/../lib/gcc/aarch64-none-elf/8.3.0/pic/crti.o
 .data          0x00000000000414a8        0x4 main.o
                0x00000000000414a8                __nx_applet_type
 *fill*         0x00000000000414ac        0x4 
 .data.rel.local
                0x00000000000414b0      0x140 raygun_printer.o
                0x00000000000414b0                alphabet
 .data.__nx_exception_stack_size
                0x00000000000415f0        0x8 S:/UltimateEnvironment/code-mod-example/param-replace/code-mod-framework/lib/libnx_min/nx/lib\libnx_min.a(init.o)
                0x00000000000415f0                __nx_exception_stack_size
 .data.__cwd    0x00000000000415f8      0x401 S:/UltimateEnvironment/code-mod-example/param-replace/code-mod-framework/lib/libnx_min/nx/lib\libnx_min.a(fs_dev.o)
 *fill*         0x00000000000419f9        0x3 
 .data.fsdev_fsdevice_cwd
                0x00000000000419fc        0x4 S:/UltimateEnvironment/code-mod-example/param-replace/code-mod-framework/lib/libnx_min/nx/lib\libnx_min.a(fs_dev.o)
 .data.fsdev_fsdevice_default
                0x0000000000041a00        0x4 S:/UltimateEnvironment/code-mod-example/param-replace/code-mod-framework/lib/libnx_min/nx/lib\libnx_min.a(fs_dev.o)
 *fill*         0x0000000000041a04        0x4 
 .data.rel.ro.local.fsdev_devoptab
                0x0000000000041a08       0xe0 S:/UltimateEnvironment/code-mod-example/param-replace/code-mod-framework/lib/libnx_min/nx/lib\libnx_min.a(fs_dev.o)
 .data.__nx_applet_auto_notifyrunning
                0x0000000000041ae8        0x1 S:/UltimateEnvironment/code-mod-example/param-replace/code-mod-framework/lib/libnx_min/nx/lib\libnx_min.a(applet.o)
                0x0000000000041ae8                __nx_applet_auto_notifyrunning
 *fill*         0x0000000000041ae9        0x7 
 .data.rel.local._impure_ptr
                0x0000000000041af0        0x8 c:/devkitpro/devkita64/bin/../lib/gcc/aarch64-none-elf/8.3.0/../../../../aarch64-none-elf/lib/pic\libg.a(lib_a-impure.o)
                0x0000000000041af0                _impure_ptr
 .data.rel.local.impure_data
                0x0000000000041af8      0x768 c:/devkitpro/devkita64/bin/../lib/gcc/aarch64-none-elf/8.3.0/../../../../aarch64-none-elf/lib/pic\libg.a(lib_a-impure.o)
 .data.rel.ro.local._global_impure_ptr
                0x0000000000042260        0x8 c:/devkitpro/devkita64/bin/../lib/gcc/aarch64-none-elf/8.3.0/../../../../aarch64-none-elf/lib/pic\libg.a(lib_a-impure.o)
                0x0000000000042260                _global_impure_ptr
 .data.__malloc_sbrk_base
                0x0000000000042268        0x8 c:/devkitpro/devkita64/bin/../lib/gcc/aarch64-none-elf/8.3.0/../../../../aarch64-none-elf/lib/pic\libg.a(lib_a-mallocr.o)
                0x0000000000042268                __malloc_sbrk_base
 .data.__malloc_trim_threshold
                0x0000000000042270        0x8 c:/devkitpro/devkita64/bin/../lib/gcc/aarch64-none-elf/8.3.0/../../../../aarch64-none-elf/lib/pic\libg.a(lib_a-mallocr.o)
                0x0000000000042270                __malloc_trim_threshold
 .data.rel.__malloc_av_
                0x0000000000042278      0x810 c:/devkitpro/devkita64/bin/../lib/gcc/aarch64-none-elf/8.3.0/../../../../aarch64-none-elf/lib/pic\libg.a(lib_a-mallocr.o)
                0x0000000000042278                __malloc_av_
 .data.rel.local.environ
                0x0000000000042a88        0x8 c:/devkitpro/devkita64/bin/../lib/gcc/aarch64-none-elf/8.3.0/../../../../aarch64-none-elf/lib/pic\libg.a(lib_a-environ.o)
                0x0000000000042a88                environ
 .data.__default_locale
                0x0000000000042a90       0x20 c:/devkitpro/devkita64/bin/../lib/gcc/aarch64-none-elf/8.3.0/../../../../aarch64-none-elf/lib/pic\libg.a(lib_a-locale.o)
                0x0000000000042a90                __default_locale
 .data.rel.__global_locale
                0x0000000000042ab0      0x1a8 c:/devkitpro/devkita64/bin/../lib/gcc/aarch64-none-elf/8.3.0/../../../../aarch64-none-elf/lib/pic\libg.a(lib_a-locale.o)
                0x0000000000042ab0                __global_locale
 .data.rel.ro.__C_locale
                0x0000000000042c58      0x1a8 c:/devkitpro/devkita64/bin/../lib/gcc/aarch64-none-elf/8.3.0/../../../../aarch64-none-elf/lib/pic\libg.a(lib_a-locale.o)
                0x0000000000042c58                __C_locale
 .data.rel.ro.local.categories
                0x0000000000042e00       0x38 c:/devkitpro/devkita64/bin/../lib/gcc/aarch64-none-elf/8.3.0/../../../../aarch64-none-elf/lib/pic\libg.a(lib_a-locale.o)
 .data.defaultDevice
                0x0000000000042e38        0x4 c:/devkitpro/devkita64/bin/../lib/gcc/aarch64-none-elf/8.3.0/../../../../aarch64-none-elf/lib/pic\libsysbase.a(iosupport.o)
 *fill*         0x0000000000042e3c        0x4 
 .data.rel.devoptab_list
                0x0000000000042e40       0x80 c:/devkitpro/devkita64/bin/../lib/gcc/aarch64-none-elf/8.3.0/../../../../aarch64-none-elf/lib/pic\libsysbase.a(iosupport.o)
                0x0000000000042e40                devoptab_list
 .data.rel.ro.local.dotab_stdnull
                0x0000000000042ec0       0xe0 c:/devkitpro/devkita64/bin/../lib/gcc/aarch64-none-elf/8.3.0/../../../../aarch64-none-elf/lib/pic\libsysbase.a(iosupport.o)
                0x0000000000042ec0                dotab_stdnull
 .data._current_working_directory
                0x0000000000042fa0      0x400 c:/devkitpro/devkita64/bin/../lib/gcc/aarch64-none-elf/8.3.0/../../../../aarch64-none-elf/lib/pic\libsysbase.a(chdir.o)
                0x00000000000433a0                __bss_start__ = .

.tm_clone_table
                0x00000000000433a0        0x0
 .tm_clone_table
                0x00000000000433a0        0x0 c:/devkitpro/devkita64/bin/../lib/gcc/aarch64-none-elf/8.3.0/pic/crtbegin.o
 .tm_clone_table
                0x00000000000433a0        0x0 c:/devkitpro/devkita64/bin/../lib/gcc/aarch64-none-elf/8.3.0/pic/crtend.o

.bss            0x00000000000433a0    0x157e0
 *(.dynbss)
 .dynbss        0x00000000000433a0        0x0 c:/devkitpro/devkita64/bin/../lib/gcc/aarch64-none-elf/8.3.0/pic/crti.o
 *(.bss .bss.* .gnu.linkonce.b.*)
 .bss.completed.7870
                0x00000000000433a0        0x1 c:/devkitpro/devkita64/bin/../lib/gcc/aarch64-none-elf/8.3.0/pic/crtbegin.o
 *fill*         0x00000000000433a1        0x7 
 .bss.object.7875
                0x00000000000433a8       0x30 c:/devkitpro/devkita64/bin/../lib/gcc/aarch64-none-elf/8.3.0/pic/crtbegin.o
 .bss           0x00000000000433d8     0x8028 main.o
                0x00000000000433d8                suicide_bomb_acmd_game
                0x00000000000433e0                get_param_float_original
                0x00000000000433e8                orig_ctx
                0x00000000000433f0                orig_main_thread
                0x00000000000433f8                orig_saved_lr
 .bss           0x000000000004b400        0x8 saltysd_helper.o
                0x000000000004b400                ANCHOR_ABS
 .bss.g_argv_empty
                0x000000000004b408        0x8 S:/UltimateEnvironment/code-mod-example/param-replace/code-mod-framework/lib/libnx_min/nx/lib\libnx_min.a(argv.o)
 .bss.g_hasRandomSeed
                0x000000000004b410        0x1 S:/UltimateEnvironment/code-mod-example/param-replace/code-mod-framework/lib/libnx_min/nx/lib\libnx_min.a(env.o)
 .bss.g_isNso   0x000000000004b411        0x1 S:/UltimateEnvironment/code-mod-example/param-replace/code-mod-framework/lib/libnx_min/nx/lib\libnx_min.a(env.o)
 *fill*         0x000000000004b412        0x2 
 .bss.g_lastLoadResult
                0x000000000004b414        0x4 S:/UltimateEnvironment/code-mod-example/param-replace/code-mod-framework/lib/libnx_min/nx/lib\libnx_min.a(env.o)
 .bss.g_loaderRetAddr
                0x000000000004b418        0x8 S:/UltimateEnvironment/code-mod-example/param-replace/code-mod-framework/lib/libnx_min/nx/lib\libnx_min.a(env.o)
 .bss.g_mainThreadHandle
                0x000000000004b420        0x4 S:/UltimateEnvironment/code-mod-example/param-replace/code-mod-framework/lib/libnx_min/nx/lib\libnx_min.a(env.o)
 *fill*         0x000000000004b424        0x4 
 .bss.g_nextLoadArgv
                0x000000000004b428        0x8 S:/UltimateEnvironment/code-mod-example/param-replace/code-mod-framework/lib/libnx_min/nx/lib\libnx_min.a(env.o)
 .bss.g_nextLoadPath
                0x000000000004b430        0x8 S:/UltimateEnvironment/code-mod-example/param-replace/code-mod-framework/lib/libnx_min/nx/lib\libnx_min.a(env.o)
 .bss.g_overrideArgv
                0x000000000004b438        0x8 S:/UltimateEnvironment/code-mod-example/param-replace/code-mod-framework/lib/libnx_min/nx/lib\libnx_min.a(env.o)
 .bss.g_overrideHeapAddr
                0x000000000004b440        0x8 S:/UltimateEnvironment/code-mod-example/param-replace/code-mod-framework/lib/libnx_min/nx/lib\libnx_min.a(env.o)
 .bss.g_overrideHeapSize
                0x000000000004b448        0x8 S:/UltimateEnvironment/code-mod-example/param-replace/code-mod-framework/lib/libnx_min/nx/lib\libnx_min.a(env.o)
 .bss.g_processHandle
                0x000000000004b450        0x4 S:/UltimateEnvironment/code-mod-example/param-replace/code-mod-framework/lib/libnx_min/nx/lib\libnx_min.a(env.o)
 *fill*         0x000000000004b454        0x4 
 .bss.g_randomSeed
                0x000000000004b458       0x10 S:/UltimateEnvironment/code-mod-example/param-replace/code-mod-framework/lib/libnx_min/nx/lib\libnx_min.a(env.o)
 .bss.g_syscallHints
                0x000000000004b468       0x10 S:/UltimateEnvironment/code-mod-example/param-replace/code-mod-framework/lib/libnx_min/nx/lib\libnx_min.a(env.o)
 .bss.__nx_exception_ignoredebug
                0x000000000004b478        0x4 S:/UltimateEnvironment/code-mod-example/param-replace/code-mod-framework/lib/libnx_min/nx/lib\libnx_min.a(init.o)
                0x000000000004b478                __nx_exception_ignoredebug
 *fill*         0x000000000004b47c        0x4 
 .bss.__nx_exception_stack
                0x000000000004b480      0x400 S:/UltimateEnvironment/code-mod-example/param-replace/code-mod-framework/lib/libnx_min/nx/lib\libnx_min.a(init.o)
                0x000000000004b480                __nx_exception_stack
 .bss.__nx_heap_size
                0x000000000004b880        0x8 S:/UltimateEnvironment/code-mod-example/param-replace/code-mod-framework/lib/libnx_min/nx/lib\libnx_min.a(init.o)
                0x000000000004b880                __nx_heap_size
 .bss.g_hosVersion
                0x000000000004b888        0x4 S:/UltimateEnvironment/code-mod-example/param-replace/code-mod-framework/lib/libnx_min/nx/lib\libnx_min.a(hosversion.o)
 *fill*         0x000000000004b88c        0x4 
 .bss.fsdev_fsdevices
                0x000000000004b890     0x2300 S:/UltimateEnvironment/code-mod-example/param-replace/code-mod-framework/lib/libnx_min/nx/lib\libnx_min.a(fs_dev.o)
 .bss.fsdev_initialised
                0x000000000004db90        0x1 S:/UltimateEnvironment/code-mod-example/param-replace/code-mod-framework/lib/libnx_min/nx/lib\libnx_min.a(fs_dev.o)
 *fill*         0x000000000004db91        0x7 
 .bss.g_AddressSpace
                0x000000000004db98       0x10 S:/UltimateEnvironment/code-mod-example/param-replace/code-mod-framework/lib/libnx_min/nx/lib\libnx_min.a(virtmem.o)
 .bss.g_CurrentAddr
                0x000000000004dba8        0x8 S:/UltimateEnvironment/code-mod-example/param-replace/code-mod-framework/lib/libnx_min/nx/lib\libnx_min.a(virtmem.o)
 .bss.g_CurrentMapAddr
                0x000000000004dbb0        0x8 S:/UltimateEnvironment/code-mod-example/param-replace/code-mod-framework/lib/libnx_min/nx/lib\libnx_min.a(virtmem.o)
 .bss.g_Region  0x000000000004dbb8       0x30 S:/UltimateEnvironment/code-mod-example/param-replace/code-mod-framework/lib/libnx_min/nx/lib\libnx_min.a(virtmem.o)
 .bss.g_VirtMemMutex
                0x000000000004dbe8        0x4 S:/UltimateEnvironment/code-mod-example/param-replace/code-mod-framework/lib/libnx_min/nx/lib\libnx_min.a(virtmem.o)
 *fill*         0x000000000004dbec        0x4 
 .bss.g_fsSrv   0x000000000004dbf0        0xc S:/UltimateEnvironment/code-mod-example/param-replace/code-mod-framework/lib/libnx_min/nx/lib\libnx_min.a(fs.o)
 *fill*         0x000000000004dbfc        0x4 
 .bss.g_refCnt  0x000000000004dc00        0x8 S:/UltimateEnvironment/code-mod-example/param-replace/code-mod-framework/lib/libnx_min/nx/lib\libnx_min.a(fs.o)
 .bss.g_refCnt  0x000000000004dc08        0x8 S:/UltimateEnvironment/code-mod-example/param-replace/code-mod-framework/lib/libnx_min/nx/lib\libnx_min.a(set.o)
 .bss.g_refCntSys
                0x000000000004dc10        0x8 S:/UltimateEnvironment/code-mod-example/param-replace/code-mod-framework/lib/libnx_min/nx/lib\libnx_min.a(set.o)
 .bss.g_setLanguageCodes
                0x000000000004dc18      0x200 S:/UltimateEnvironment/code-mod-example/param-replace/code-mod-framework/lib/libnx_min/nx/lib\libnx_min.a(set.o)
 .bss.g_setLanguageCodesInitialized
                0x000000000004de18        0x1 S:/UltimateEnvironment/code-mod-example/param-replace/code-mod-framework/lib/libnx_min/nx/lib\libnx_min.a(set.o)
 *fill*         0x000000000004de19        0x3 
 .bss.g_setLanguageCodesTotal
                0x000000000004de1c        0x4 S:/UltimateEnvironment/code-mod-example/param-replace/code-mod-framework/lib/libnx_min/nx/lib\libnx_min.a(set.o)
 .bss.g_setSrv  0x000000000004de20        0xc S:/UltimateEnvironment/code-mod-example/param-replace/code-mod-framework/lib/libnx_min/nx/lib\libnx_min.a(set.o)
 *fill*         0x000000000004de2c        0x4 
 .bss.g_setsysSrv
                0x000000000004de30        0xc S:/UltimateEnvironment/code-mod-example/param-replace/code-mod-framework/lib/libnx_min/nx/lib\libnx_min.a(set.o)
 *fill*         0x000000000004de3c        0x4 
 .bss.g_refCnt  0x000000000004de40        0x8 S:/UltimateEnvironment/code-mod-example/param-replace/code-mod-framework/lib/libnx_min/nx/lib\libnx_min.a(sm.o)
 .bss.g_smOverrides
                0x000000000004de48      0x200 S:/UltimateEnvironment/code-mod-example/param-replace/code-mod-framework/lib/libnx_min/nx/lib\libnx_min.a(sm.o)
 .bss.g_smOverridesNum
                0x000000000004e048        0x8 S:/UltimateEnvironment/code-mod-example/param-replace/code-mod-framework/lib/libnx_min/nx/lib\libnx_min.a(sm.o)
 .bss.g_smSrv   0x000000000004e050        0xc S:/UltimateEnvironment/code-mod-example/param-replace/code-mod-framework/lib/libnx_min/nx/lib\libnx_min.a(sm.o)
 *fill*         0x000000000004e05c        0x4 
 .bss.g_controllerDown
                0x000000000004e060       0x50 S:/UltimateEnvironment/code-mod-example/param-replace/code-mod-framework/lib/libnx_min/nx/lib\libnx_min.a(hid.o)
 .bss.g_controllerEntries
                0x000000000004e0b0      0x1e0 S:/UltimateEnvironment/code-mod-example/param-replace/code-mod-framework/lib/libnx_min/nx/lib\libnx_min.a(hid.o)
 .bss.g_controllerHeaders
                0x000000000004e290      0x190 S:/UltimateEnvironment/code-mod-example/param-replace/code-mod-framework/lib/libnx_min/nx/lib\libnx_min.a(hid.o)
 .bss.g_controllerHeld
                0x000000000004e420       0x50 S:/UltimateEnvironment/code-mod-example/param-replace/code-mod-framework/lib/libnx_min/nx/lib\libnx_min.a(hid.o)
 .bss.g_controllerLayout
                0x000000000004e470       0x28 S:/UltimateEnvironment/code-mod-example/param-replace/code-mod-framework/lib/libnx_min/nx/lib\libnx_min.a(hid.o)
 .bss.g_controllerMisc
                0x000000000004e498      0x500 S:/UltimateEnvironment/code-mod-example/param-replace/code-mod-framework/lib/libnx_min/nx/lib\libnx_min.a(hid.o)
 .bss.g_controllerOld
                0x000000000004e998       0x50 S:/UltimateEnvironment/code-mod-example/param-replace/code-mod-framework/lib/libnx_min/nx/lib\libnx_min.a(hid.o)
 .bss.g_controllerP1AutoID
                0x000000000004e9e8        0x4 S:/UltimateEnvironment/code-mod-example/param-replace/code-mod-framework/lib/libnx_min/nx/lib\libnx_min.a(hid.o)
 *fill*         0x000000000004e9ec        0x4 
 .bss.g_controllerTimestamps
                0x000000000004e9f0       0x50 S:/UltimateEnvironment/code-mod-example/param-replace/code-mod-framework/lib/libnx_min/nx/lib\libnx_min.a(hid.o)
 .bss.g_controllerUp
                0x000000000004ea40       0x50 S:/UltimateEnvironment/code-mod-example/param-replace/code-mod-framework/lib/libnx_min/nx/lib\libnx_min.a(hid.o)
 .bss.g_hidIAppletResource
                0x000000000004ea90        0xc S:/UltimateEnvironment/code-mod-example/param-replace/code-mod-framework/lib/libnx_min/nx/lib\libnx_min.a(hid.o)
 *fill*         0x000000000004ea9c        0x4 
 .bss.g_hidLock
                0x000000000004eaa0       0x10 S:/UltimateEnvironment/code-mod-example/param-replace/code-mod-framework/lib/libnx_min/nx/lib\libnx_min.a(hid.o)
 .bss.g_hidSharedmem
                0x000000000004eab0       0x20 S:/UltimateEnvironment/code-mod-example/param-replace/code-mod-framework/lib/libnx_min/nx/lib\libnx_min.a(hid.o)
 .bss.g_hidSrv  0x000000000004ead0        0xc S:/UltimateEnvironment/code-mod-example/param-replace/code-mod-framework/lib/libnx_min/nx/lib\libnx_min.a(hid.o)
 *fill*         0x000000000004eadc        0x4 
 .bss.g_keyboardDown
                0x000000000004eae0       0x20 S:/UltimateEnvironment/code-mod-example/param-replace/code-mod-framework/lib/libnx_min/nx/lib\libnx_min.a(hid.o)
 .bss.g_keyboardEntry
                0x000000000004eb00       0x38 S:/UltimateEnvironment/code-mod-example/param-replace/code-mod-framework/lib/libnx_min/nx/lib\libnx_min.a(hid.o)
 .bss.g_keyboardHeld
                0x000000000004eb38       0x20 S:/UltimateEnvironment/code-mod-example/param-replace/code-mod-framework/lib/libnx_min/nx/lib\libnx_min.a(hid.o)
 .bss.g_keyboardModDown
                0x000000000004eb58        0x8 S:/UltimateEnvironment/code-mod-example/param-replace/code-mod-framework/lib/libnx_min/nx/lib\libnx_min.a(hid.o)
 .bss.g_keyboardModHeld
                0x000000000004eb60        0x8 S:/UltimateEnvironment/code-mod-example/param-replace/code-mod-framework/lib/libnx_min/nx/lib\libnx_min.a(hid.o)
 .bss.g_keyboardModOld
                0x000000000004eb68        0x8 S:/UltimateEnvironment/code-mod-example/param-replace/code-mod-framework/lib/libnx_min/nx/lib\libnx_min.a(hid.o)
 .bss.g_keyboardModUp
                0x000000000004eb70        0x8 S:/UltimateEnvironment/code-mod-example/param-replace/code-mod-framework/lib/libnx_min/nx/lib\libnx_min.a(hid.o)
 .bss.g_keyboardOld
                0x000000000004eb78       0x20 S:/UltimateEnvironment/code-mod-example/param-replace/code-mod-framework/lib/libnx_min/nx/lib\libnx_min.a(hid.o)
 .bss.g_keyboardTimestamp
                0x000000000004eb98        0x8 S:/UltimateEnvironment/code-mod-example/param-replace/code-mod-framework/lib/libnx_min/nx/lib\libnx_min.a(hid.o)
 .bss.g_keyboardUp
                0x000000000004eba0       0x20 S:/UltimateEnvironment/code-mod-example/param-replace/code-mod-framework/lib/libnx_min/nx/lib\libnx_min.a(hid.o)
 .bss.g_mouse   0x000000000004ebc0      0x400 S:/UltimateEnvironment/code-mod-example/param-replace/code-mod-framework/lib/libnx_min/nx/lib\libnx_min.a(hid.o)
 .bss.g_mouseDown
                0x000000000004efc0        0x8 S:/UltimateEnvironment/code-mod-example/param-replace/code-mod-framework/lib/libnx_min/nx/lib\libnx_min.a(hid.o)
 .bss.g_mouseEntry
                0x000000000004efc8        0x8 S:/UltimateEnvironment/code-mod-example/param-replace/code-mod-framework/lib/libnx_min/nx/lib\libnx_min.a(hid.o)
 .bss.g_mouseHeld
                0x000000000004efd0        0x8 S:/UltimateEnvironment/code-mod-example/param-replace/code-mod-framework/lib/libnx_min/nx/lib\libnx_min.a(hid.o)
 .bss.g_mouseOld
                0x000000000004efd8        0x8 S:/UltimateEnvironment/code-mod-example/param-replace/code-mod-framework/lib/libnx_min/nx/lib\libnx_min.a(hid.o)
 .bss.g_mouseTimestamp
                0x000000000004efe0        0x8 S:/UltimateEnvironment/code-mod-example/param-replace/code-mod-framework/lib/libnx_min/nx/lib\libnx_min.a(hid.o)
 .bss.g_mouseUp
                0x000000000004efe8        0x8 S:/UltimateEnvironment/code-mod-example/param-replace/code-mod-framework/lib/libnx_min/nx/lib\libnx_min.a(hid.o)
 .bss.g_refCnt  0x000000000004eff0        0x8 S:/UltimateEnvironment/code-mod-example/param-replace/code-mod-framework/lib/libnx_min/nx/lib\libnx_min.a(hid.o)
 .bss.g_sevenSixAxisSensorBuffer
                0x000000000004eff8        0x8 S:/UltimateEnvironment/code-mod-example/param-replace/code-mod-framework/lib/libnx_min/nx/lib\libnx_min.a(hid.o)
 .bss.g_sevenSixAxisSensorTmem0
                0x000000000004f000       0x28 S:/UltimateEnvironment/code-mod-example/param-replace/code-mod-framework/lib/libnx_min/nx/lib\libnx_min.a(hid.o)
 .bss.g_sevenSixAxisSensorTmem1
                0x000000000004f028       0x28 S:/UltimateEnvironment/code-mod-example/param-replace/code-mod-framework/lib/libnx_min/nx/lib\libnx_min.a(hid.o)
 .bss.g_sixaxisEnabled
                0x000000000004f050        0xa S:/UltimateEnvironment/code-mod-example/param-replace/code-mod-framework/lib/libnx_min/nx/lib\libnx_min.a(hid.o)
 *fill*         0x000000000004f05a        0x6 
 .bss.g_sixaxisLayouts
                0x000000000004f060     0x4650 S:/UltimateEnvironment/code-mod-example/param-replace/code-mod-framework/lib/libnx_min/nx/lib\libnx_min.a(hid.o)
 .bss.g_touchEntry
                0x00000000000536b0      0x298 S:/UltimateEnvironment/code-mod-example/param-replace/code-mod-framework/lib/libnx_min/nx/lib\libnx_min.a(hid.o)
 .bss.g_touchTimestamp
                0x0000000000053948        0x8 S:/UltimateEnvironment/code-mod-example/param-replace/code-mod-framework/lib/libnx_min/nx/lib\libnx_min.a(hid.o)
 .bss.g_refCnt  0x0000000000053950        0x8 S:/UltimateEnvironment/code-mod-example/param-replace/code-mod-framework/lib/libnx_min/nx/lib\libnx_min.a(time.o)
 .bss.g_timeLocalSystemClock
                0x0000000000053958        0xc S:/UltimateEnvironment/code-mod-example/param-replace/code-mod-framework/lib/libnx_min/nx/lib\libnx_min.a(time.o)
 *fill*         0x0000000000053964        0x4 
 .bss.g_timeNetworkSystemClock
                0x0000000000053968        0xc S:/UltimateEnvironment/code-mod-example/param-replace/code-mod-framework/lib/libnx_min/nx/lib\libnx_min.a(time.o)
 *fill*         0x0000000000053974        0x4 
 .bss.g_timeSrv
                0x0000000000053978        0xc S:/UltimateEnvironment/code-mod-example/param-replace/code-mod-framework/lib/libnx_min/nx/lib\libnx_min.a(time.o)
 *fill*         0x0000000000053984        0x4 
 .bss.g_timeTimeZoneService
                0x0000000000053988        0xc S:/UltimateEnvironment/code-mod-example/param-replace/code-mod-framework/lib/libnx_min/nx/lib\libnx_min.a(time.o)
 *fill*         0x0000000000053994        0x4 
 .bss.g_timeUserSystemClock
                0x0000000000053998        0xc S:/UltimateEnvironment/code-mod-example/param-replace/code-mod-framework/lib/libnx_min/nx/lib\libnx_min.a(time.o)
 *fill*         0x00000000000539a4        0x4 
 .bss.__nx_applet_AppletAttribute
                0x00000000000539a8       0x80 S:/UltimateEnvironment/code-mod-example/param-replace/code-mod-framework/lib/libnx_min/nx/lib\libnx_min.a(applet.o)
                0x00000000000539a8                __nx_applet_AppletAttribute
 .bss.__nx_applet_PerformanceConfiguration
                0x0000000000053a28        0x8 S:/UltimateEnvironment/code-mod-example/param-replace/code-mod-framework/lib/libnx_min/nx/lib\libnx_min.a(applet.o)
                0x0000000000053a28                __nx_applet_PerformanceConfiguration
 .bss.__nx_applet_exit_mode
                0x0000000000053a30        0x4 S:/UltimateEnvironment/code-mod-example/param-replace/code-mod-framework/lib/libnx_min/nx/lib\libnx_min.a(applet.o)
                0x0000000000053a30                __nx_applet_exit_mode
 .bss.g_appletCpuBoostMode
                0x0000000000053a34        0x4 S:/UltimateEnvironment/code-mod-example/param-replace/code-mod-framework/lib/libnx_min/nx/lib\libnx_min.a(applet.o)
 .bss.g_appletExitProcessFlag
                0x0000000000053a38        0x1 S:/UltimateEnvironment/code-mod-example/param-replace/code-mod-framework/lib/libnx_min/nx/lib\libnx_min.a(applet.o)
 *fill*         0x0000000000053a39        0x7 
 .bss.g_appletFirstHook
                0x0000000000053a40       0x18 S:/UltimateEnvironment/code-mod-example/param-replace/code-mod-framework/lib/libnx_min/nx/lib\libnx_min.a(applet.o)
 .bss.g_appletFocusState
                0x0000000000053a58        0x1 S:/UltimateEnvironment/code-mod-example/param-replace/code-mod-framework/lib/libnx_min/nx/lib\libnx_min.a(applet.o)
 *fill*         0x0000000000053a59        0x7 
 .bss.g_appletIApplicationCreator
                0x0000000000053a60        0xc S:/UltimateEnvironment/code-mod-example/param-replace/code-mod-framework/lib/libnx_min/nx/lib\libnx_min.a(applet.o)
 *fill*         0x0000000000053a6c        0x4 
 .bss.g_appletIAudioController
                0x0000000000053a70        0xc S:/UltimateEnvironment/code-mod-example/param-replace/code-mod-framework/lib/libnx_min/nx/lib\libnx_min.a(applet.o)
 *fill*         0x0000000000053a7c        0x4 
 .bss.g_appletICommonStateGetter
                0x0000000000053a80        0xc S:/UltimateEnvironment/code-mod-example/param-replace/code-mod-framework/lib/libnx_min/nx/lib\libnx_min.a(applet.o)
 *fill*         0x0000000000053a8c        0x4 
 .bss.g_appletIDebugFunctions
                0x0000000000053a90        0xc S:/UltimateEnvironment/code-mod-example/param-replace/code-mod-framework/lib/libnx_min/nx/lib\libnx_min.a(applet.o)
 *fill*         0x0000000000053a9c        0x4 
 .bss.g_appletIDisplayController
                0x0000000000053aa0        0xc S:/UltimateEnvironment/code-mod-example/param-replace/code-mod-framework/lib/libnx_min/nx/lib\libnx_min.a(applet.o)
 *fill*         0x0000000000053aac        0x4 
 .bss.g_appletIFunctions
                0x0000000000053ab0        0xc S:/UltimateEnvironment/code-mod-example/param-replace/code-mod-framework/lib/libnx_min/nx/lib\libnx_min.a(applet.o)
 *fill*         0x0000000000053abc        0x4 
 .bss.g_appletIGlobalStateController
                0x0000000000053ac0        0xc S:/UltimateEnvironment/code-mod-example/param-replace/code-mod-framework/lib/libnx_min/nx/lib\libnx_min.a(applet.o)
 *fill*         0x0000000000053acc        0x4 
 .bss.g_appletILibraryAppletCreator
                0x0000000000053ad0        0xc S:/UltimateEnvironment/code-mod-example/param-replace/code-mod-framework/lib/libnx_min/nx/lib\libnx_min.a(applet.o)
 *fill*         0x0000000000053adc        0x4 
 .bss.g_appletILibraryAppletSelfAccessor
                0x0000000000053ae0        0xc S:/UltimateEnvironment/code-mod-example/param-replace/code-mod-framework/lib/libnx_min/nx/lib\libnx_min.a(applet.o)
 *fill*         0x0000000000053aec        0x4 
 .bss.g_appletIProcessWindingController
                0x0000000000053af0        0xc S:/UltimateEnvironment/code-mod-example/param-replace/code-mod-framework/lib/libnx_min/nx/lib\libnx_min.a(applet.o)
 *fill*         0x0000000000053afc        0x4 
 .bss.g_appletISelfController
                0x0000000000053b00        0xc S:/UltimateEnvironment/code-mod-example/param-replace/code-mod-framework/lib/libnx_min/nx/lib\libnx_min.a(applet.o)
 *fill*         0x0000000000053b0c        0x4 
 .bss.g_appletIWindowController
                0x0000000000053b10        0xc S:/UltimateEnvironment/code-mod-example/param-replace/code-mod-framework/lib/libnx_min/nx/lib\libnx_min.a(applet.o)
 *fill*         0x0000000000053b1c        0x4 
 .bss.g_appletLibraryAppletLaunchableEvent
                0x0000000000053b20        0xc S:/UltimateEnvironment/code-mod-example/param-replace/code-mod-framework/lib/libnx_min/nx/lib\libnx_min.a(applet.o)
 *fill*         0x0000000000053b2c        0x4 
 .bss.g_appletMessageEvent
                0x0000000000053b30        0xc S:/UltimateEnvironment/code-mod-example/param-replace/code-mod-framework/lib/libnx_min/nx/lib\libnx_min.a(applet.o)
 .bss.g_appletNotifiedRunning
                0x0000000000053b3c        0x1 S:/UltimateEnvironment/code-mod-example/param-replace/code-mod-framework/lib/libnx_min/nx/lib\libnx_min.a(applet.o)
 .bss.g_appletOperationMode
                0x0000000000053b3d        0x1 S:/UltimateEnvironment/code-mod-example/param-replace/code-mod-framework/lib/libnx_min/nx/lib\libnx_min.a(applet.o)
 *fill*         0x0000000000053b3e        0x2 
 .bss.g_appletPerformanceMode
                0x0000000000053b40        0x4 S:/UltimateEnvironment/code-mod-example/param-replace/code-mod-framework/lib/libnx_min/nx/lib\libnx_min.a(applet.o)
 *fill*         0x0000000000053b44        0x4 
 .bss.g_appletProxySession
                0x0000000000053b48        0xc S:/UltimateEnvironment/code-mod-example/param-replace/code-mod-framework/lib/libnx_min/nx/lib\libnx_min.a(applet.o)
 .bss.g_appletRecordingInitialized
                0x0000000000053b54        0x4 S:/UltimateEnvironment/code-mod-example/param-replace/code-mod-framework/lib/libnx_min/nx/lib\libnx_min.a(applet.o)
 .bss.g_appletRecordingTmem
                0x0000000000053b58       0x28 S:/UltimateEnvironment/code-mod-example/param-replace/code-mod-framework/lib/libnx_min/nx/lib\libnx_min.a(applet.o)
 .bss.g_appletResourceUserId
                0x0000000000053b80        0x8 S:/UltimateEnvironment/code-mod-example/param-replace/code-mod-framework/lib/libnx_min/nx/lib\libnx_min.a(applet.o)
 .bss.g_appletSrv
                0x0000000000053b88        0xc S:/UltimateEnvironment/code-mod-example/param-replace/code-mod-framework/lib/libnx_min/nx/lib\libnx_min.a(applet.o)
 .bss.g_appletThemeColorType
                0x0000000000053b94        0x4 S:/UltimateEnvironment/code-mod-example/param-replace/code-mod-framework/lib/libnx_min/nx/lib\libnx_min.a(applet.o)
 .bss.g_refCnt  0x0000000000053b98        0x8 S:/UltimateEnvironment/code-mod-example/param-replace/code-mod-framework/lib/libnx_min/nx/lib\libnx_min.a(applet.o)
 .bss.__bootticks
                0x0000000000053ba0        0x8 S:/UltimateEnvironment/code-mod-example/param-replace/code-mod-framework/lib/libnx_min/nx/lib\libnx_min.a(newlib.o)
 .bss.__boottime
                0x0000000000053ba8        0x8 S:/UltimateEnvironment/code-mod-example/param-replace/code-mod-framework/lib/libnx_min/nx/lib\libnx_min.a(newlib.o)
 .bss.__nx_time_type
                0x0000000000053bb0        0x4 S:/UltimateEnvironment/code-mod-example/param-replace/code-mod-framework/lib/libnx_min/nx/lib\libnx_min.a(newlib.o)
                0x0000000000053bb0                __nx_time_type
 *fill*         0x0000000000053bb4        0x4 
 .bss.g_threadList
                0x0000000000053bb8        0x8 S:/UltimateEnvironment/code-mod-example/param-replace/code-mod-framework/lib/libnx_min/nx/lib\libnx_min.a(thread.o)
 .bss.g_threadMutex
                0x0000000000053bc0        0x4 S:/UltimateEnvironment/code-mod-example/param-replace/code-mod-framework/lib/libnx_min/nx/lib\libnx_min.a(thread.o)
 *fill*         0x0000000000053bc4        0x4 
 .bss.g_tlsDestructors
                0x0000000000053bc8       0xd0 S:/UltimateEnvironment/code-mod-example/param-replace/code-mod-framework/lib/libnx_min/nx/lib\libnx_min.a(thread.o)
 .bss.g_tlsUsageMask
                0x0000000000053c98        0x8 S:/UltimateEnvironment/code-mod-example/param-replace/code-mod-framework/lib/libnx_min/nx/lib\libnx_min.a(thread.o)
 .bss.g_JitKernelPatchCached
                0x0000000000053ca0        0x1 S:/UltimateEnvironment/code-mod-example/param-replace/code-mod-framework/lib/libnx_min/nx/lib\libnx_min.a(detect.o)
 .bss.g_JitKernelPatchDetected
                0x0000000000053ca1        0x1 S:/UltimateEnvironment/code-mod-example/param-replace/code-mod-framework/lib/libnx_min/nx/lib\libnx_min.a(detect.o)
 *fill*         0x0000000000053ca2        0x2 
 .bss.g_JitKernelPatchMutex
                0x0000000000053ca4        0x4 S:/UltimateEnvironment/code-mod-example/param-replace/code-mod-framework/lib/libnx_min/nx/lib\libnx_min.a(detect.o)
 .bss.g_Version
                0x0000000000053ca8        0x4 S:/UltimateEnvironment/code-mod-example/param-replace/code-mod-framework/lib/libnx_min/nx/lib\libnx_min.a(detect.o)
 .bss.g_VersionCached
                0x0000000000053cac        0x1 S:/UltimateEnvironment/code-mod-example/param-replace/code-mod-framework/lib/libnx_min/nx/lib\libnx_min.a(detect.o)
 *fill*         0x0000000000053cad        0x3 
 .bss.g_VersionMutex
                0x0000000000053cb0        0x4 S:/UltimateEnvironment/code-mod-example/param-replace/code-mod-framework/lib/libnx_min/nx/lib\libnx_min.a(detect.o)
 *fill*         0x0000000000053cb4        0x4 
 .bss.g_apmISession
                0x0000000000053cb8        0xc S:/UltimateEnvironment/code-mod-example/param-replace/code-mod-framework/lib/libnx_min/nx/lib\libnx_min.a(apm.o)
 *fill*         0x0000000000053cc4        0x4 
 .bss.g_apmSrv  0x0000000000053cc8        0xc S:/UltimateEnvironment/code-mod-example/param-replace/code-mod-framework/lib/libnx_min/nx/lib\libnx_min.a(apm.o)
 *fill*         0x0000000000053cd4        0x4 
 .bss.g_refCnt  0x0000000000053cd8        0x8 S:/UltimateEnvironment/code-mod-example/param-replace/code-mod-framework/lib/libnx_min/nx/lib\libnx_min.a(apm.o)
 .bss.__malloc_current_mallinfo
                0x0000000000053ce0       0x28 c:/devkitpro/devkita64/bin/../lib/gcc/aarch64-none-elf/8.3.0/../../../../aarch64-none-elf/lib/pic\libg.a(lib_a-mallocr.o)
                0x0000000000053ce0                __malloc_current_mallinfo
 .bss.__malloc_max_sbrked_mem
                0x0000000000053d08        0x8 c:/devkitpro/devkita64/bin/../lib/gcc/aarch64-none-elf/8.3.0/../../../../aarch64-none-elf/lib/pic\libg.a(lib_a-mallocr.o)
                0x0000000000053d08                __malloc_max_sbrked_mem
 .bss.__malloc_max_total_mem
                0x0000000000053d10        0x8 c:/devkitpro/devkita64/bin/../lib/gcc/aarch64-none-elf/8.3.0/../../../../aarch64-none-elf/lib/pic\libg.a(lib_a-mallocr.o)
                0x0000000000053d10                __malloc_max_total_mem
 .bss.__malloc_top_pad
                0x0000000000053d18        0x8 c:/devkitpro/devkita64/bin/../lib/gcc/aarch64-none-elf/8.3.0/../../../../aarch64-none-elf/lib/pic\libg.a(lib_a-mallocr.o)
                0x0000000000053d18                __malloc_top_pad
 .bss.__malloc_recursive_mutex
                0x0000000000053d20        0xc c:/devkitpro/devkita64/bin/../lib/gcc/aarch64-none-elf/8.3.0/../../../../aarch64-none-elf/lib/pic\libg.a(lib_a-mlock.o)
 .bss.alloced.4086
                0x0000000000053d2c        0x4 c:/devkitpro/devkita64/bin/../lib/gcc/aarch64-none-elf/8.3.0/../../../../aarch64-none-elf/lib/pic\libg.a(lib_a-setenv_r.o)
 .bss.__atexit_recursive_mutex
                0x0000000000053d30        0xc c:/devkitpro/devkita64/bin/../lib/gcc/aarch64-none-elf/8.3.0/../../../../aarch64-none-elf/lib/pic\libg.a(lib_a-__call_atexit.o)
                0x0000000000053d30                __atexit_recursive_mutex
 *fill*         0x0000000000053d3c        0x4 
 .bss.initial_env
                0x0000000000053d40        0x8 c:/devkitpro/devkita64/bin/../lib/gcc/aarch64-none-elf/8.3.0/../../../../aarch64-none-elf/lib/pic\libg.a(lib_a-environ.o)
 .bss.__env_recursive_mutex
                0x0000000000053d48        0xc c:/devkitpro/devkita64/bin/../lib/gcc/aarch64-none-elf/8.3.0/../../../../aarch64-none-elf/lib/pic\libg.a(lib_a-envlock.o)
 *fill*         0x0000000000053d54        0x4 
 .bss._PathLocale
                0x0000000000053d58        0x8 c:/devkitpro/devkita64/bin/../lib/gcc/aarch64-none-elf/8.3.0/../../../../aarch64-none-elf/lib/pic\libg.a(lib_a-locale.o)
                0x0000000000053d58                _PathLocale
 .bss.global_locale_string
                0x0000000000053d60       0xe7 c:/devkitpro/devkita64/bin/../lib/gcc/aarch64-none-elf/8.3.0/../../../../aarch64-none-elf/lib/pic\libg.a(lib_a-locale.o)
 *fill*         0x0000000000053e47        0x1 
 .bss.new_categories.4568
                0x0000000000053e48       0xe0 c:/devkitpro/devkita64/bin/../lib/gcc/aarch64-none-elf/8.3.0/../../../../aarch64-none-elf/lib/pic\libg.a(lib_a-locale.o)
 .bss.saved_categories.4569
                0x0000000000053f28       0xe0 c:/devkitpro/devkita64/bin/../lib/gcc/aarch64-none-elf/8.3.0/../../../../aarch64-none-elf/lib/pic\libg.a(lib_a-locale.o)
 .bss.heap_start.5295
                0x0000000000054008        0x8 c:/devkitpro/devkita64/bin/../lib/gcc/aarch64-none-elf/8.3.0/../../../../aarch64-none-elf/lib/pic\libsysbase.a(sbrk.o)
 .bss.fake_heap_end
                0x0000000000054010        0x8 c:/devkitpro/devkita64/bin/../lib/gcc/aarch64-none-elf/8.3.0/../../../../aarch64-none-elf/lib/pic\libsysbase.a(malloc_vars.o)
                0x0000000000054010                fake_heap_end
 .bss.fake_heap_start
                0x0000000000054018        0x8 c:/devkitpro/devkita64/bin/../lib/gcc/aarch64-none-elf/8.3.0/../../../../aarch64-none-elf/lib/pic\libsysbase.a(malloc_vars.o)
                0x0000000000054018                fake_heap_start
 .bss.temp_cwd  0x0000000000054020      0x400 c:/devkitpro/devkita64/bin/../lib/gcc/aarch64-none-elf/8.3.0/../../../../aarch64-none-elf/lib/pic\libsysbase.a(chdir.o)
 *(COMMON)
 COMMON         0x0000000000054420        0xc S:/UltimateEnvironment/code-mod-example/param-replace/code-mod-framework/lib/libnx_min/nx/lib\libnx_min.a(argv.o)
                0x0000000000054420                __system_argv
                0x0000000000054428                __system_argc
 *fill*         0x000000000005442c        0x4 
 COMMON         0x0000000000054430      0x348 S:/UltimateEnvironment/code-mod-example/param-replace/code-mod-framework/lib/libnx_min/nx/lib\libnx_min.a(init.o)
                0x0000000000054430                __nx_exceptiondump
                0x0000000000054770                __stack_top
                0x0000000000054778                . = ALIGN (0x8)
                0x0000000000054778                __tls_start = .
                0x0000000000058b80                . = (. + (SIZEOF (.tdata) + SIZEOF (.tbss)))
 *fill*         0x0000000000054778     0x4408 
                0x0000000000058b80                __tls_end = .
                0x0000000000058b80                __bss_end__ = .
                0x0000000000058b80                __end__ = ABSOLUTE (.)
                0x0000000000059000                . = ALIGN (0x1000)
                0x0000000000059000                __argdata__ = ABSOLUTE (.)

/DISCARD/
 *(.group .comment .note)

.stab
 *(.stab)

.stabstr
 *(.stabstr)

.stab.excl
 *(.stab.excl)

.stab.exclstr
 *(.stab.exclstr)

.stab.index
 *(.stab.index)

.stab.indexstr
 *(.stab.indexstr)

.debug
 *(.debug)

.line
 *(.line)

.debug_srcinfo
 *(.debug_srcinfo)

.debug_sfnames
 *(.debug_sfnames)

.debug_aranges
 *(.debug_aranges)

.debug_pubnames
 *(.debug_pubnames)

.debug_info
 *(.debug_info)

.debug_abbrev
 *(.debug_abbrev)

.debug_line
 *(.debug_line)

.debug_frame
 *(.debug_frame)

.debug_str
 *(.debug_str)

.debug_loc
 *(.debug_loc)

.debug_macinfo
 *(.debug_macinfo)
LOAD c:/devkitpro/devkita64/bin/../lib/gcc/aarch64-none-elf/8.3.0/pic/crti.o
LOAD c:/devkitpro/devkita64/bin/../lib/gcc/aarch64-none-elf/8.3.0/pic/crtbegin.o
LOAD main.o
LOAD acmd_wrapper.o
LOAD saltysd_helper.o
LOAD lua_bind_hash.o
LOAD l2c_imports.o
LOAD raygun_printer.o
LOAD S:/UltimateEnvironment/code-mod-example/param-replace/code-mod-framework/lib/libnx_min/nx/lib\libnx_min.a
LOAD c:/devkitpro/devkita64/bin/../lib/gcc/aarch64-none-elf/8.3.0/../../../../aarch64-none-elf/lib/pic\libstdc++.a
LOAD c:/devkitpro/devkita64/bin/../lib/gcc/aarch64-none-elf/8.3.0/../../../../aarch64-none-elf/lib/pic\libm.a
START GROUP
LOAD c:/devkitpro/devkita64/bin/../lib/gcc/aarch64-none-elf/8.3.0/pic\libgcc.a
LOAD c:/devkitpro/devkita64/bin/../lib/gcc/aarch64-none-elf/8.3.0/../../../../aarch64-none-elf/lib/pic\libg.a
LOAD c:/devkitpro/devkita64/bin/../lib/gcc/aarch64-none-elf/8.3.0/../../../../aarch64-none-elf/lib/pic\libc.a
LOAD c:/devkitpro/devkita64/bin/../lib/gcc/aarch64-none-elf/8.3.0/../../../../aarch64-none-elf/lib/pic\libsysbase.a
END GROUP
LOAD c:/devkitpro/devkita64/bin/../lib/gcc/aarch64-none-elf/8.3.0/pic/crtend.o
LOAD c:/devkitpro/devkita64/bin/../lib/gcc/aarch64-none-elf/8.3.0/pic/crtn.o
OUTPUT(S:/UltimateEnvironment/code-mod-example/param-replace/my_plugin.elf elf64-littleaarch64)
